ccopy_reg
_reconstructor
p0
(cdebian_linux.config
ConfigCore
p1
c__builtin__
dict
p2
(dp3
(Vdescription
p4
tp5
(dp6
Vpart-long-xen
p7
VThis kernel also runs on a Xen hypervisor.\u000aIt supports both privileged (dom0) and unprivileged (domU) operation.
p8
sVpart-long-up
p9
VThis kernel is not suitable for SMP (multi-processor,\u000amulti-core or hyper-threaded) systems.
p10
ss(Vbase
p11
Vamd64
p12
tp13
(dp14
Vkernel-arch
p15
Vx86
p16
sVfeaturesets
p17
(lp18
Vnone
p19
aVnone
p20
ass(Vimage
p21
Vi386
p22
NVaptosid-686
p23
tp24
(dp25
Vrecommends
p26
Vlibc6-i686
p27
sVconfigs
p28
(lp29
Vkernelarch-x86/config-arch-32
p30
ass(Vimage
p31
g12
NVaptosid-amd64
p32
tp33
(dp34
Vconfigs
p35
(lp36
Vkernelarch-x86/config-arch-64
p37
ass(Vimage
p38
g12
tp39
(dp40
Vconfigs
p41
(lp42
sVsuggests
p43
Vcrda
p44
sVinstall-stem
p45
Vvmlinuz
p46
sVbootloaders
p47
(lp48
Vgrub-pc
p49
aVextlinux
p50
aVgrub-efi-amd64
p51
ass(Vdescription
p52
g12
g20
Vaptosid-amd64
p53
tp54
(dp55
Vparts
p56
(lp57
Vxen
p58
ass(Vimage
p59
g22
tp60
(dp61
Vconfigs
p62
(lp63
sVsuggests
p64
Vcrda
p65
sVinstall-stem
p66
Vvmlinuz
p67
sVbootloaders
p68
(lp69
Vgrub-pc
p70
aVextlinux
p71
aVgrub-efi-ia32
p72
ass(Vxen
p73
g12
g20
Vaptosid-amd64
p74
tp75
(dp76
Vflavours
p77
(lp78
Vaptosid-amd64
p79
ass(Vbase
p80
g22
Vnone
p81
tp82
(dp83
Vimplicit-flavour
p84
I01
sVflavours
p85
(lp86
Vaptosid-686
p87
ass(Vbuild
p88
g22
tp89
(dp90
Vdebug-info
p91
I00
sVimage-file
p92
Varch/x86/boot/bzImage
p93
ss(Vimage
p94
tp95
(dp96
Vinitramfs-generators
p97
(lp98
Vinitramfs-tools
p99
aVinitramfs-fallback
p100
asVtype
p101
Vplain
p102
ss(Vversion
p103
tp104
(dp105
Vupstream
p106
V4.4
p107
sVabiname_base
p108
V4.4.0
p109
sVsource
p110
V4.4-10
p111
sVabiname
p112
V4.4.0-2.slh.1
p113
ss(Vbase
p114
g22
tp115
(dp116
Vkernel-arch
p117
Vx86
p118
sVfeaturesets
p119
(lp120
g19
ag81
ass(Vabi
p121
tp122
(dp123
Vabiname
p124
V2.slh.1
p125
ss(Vdescription
p126
g22
NVaptosid-686
p127
tp128
(dp129
Vhardware
p130
Vmodern PCs
p131
sVhardware-long
p132
VPCs with Intel Pentium Pro/II/III/4/4M/D/M, Xeon, Celeron, Core or Atom; AMD Geode LX/NX, Athlon (K7), Duron, Opteron, Sempron, Turion or Phenom; Transmeta Efficeon; VIA C3 "Nehemiah" or C7 processors
p133
ss(Vbase
p134
g12
g20
tp135
(dp136
g84
I01
sg85
(lp137
Vaptosid-amd64
p138
ass(Vdescription
p139
g12
NVaptosid-amd64
p140
tp141
(dp142
Vhardware
p143
V64-bit PCs
p144
sVhardware-long
p145
VPCs with AMD64 or Intel 64 processors
p146
ss(Vrelations
p147
tp148
(dp149
Vinitramfs-tools
p150
Vinitramfs-tools (>= 0.118+c0.aptosid.1~)
p151
sVinitramfs-fallback
p152
Vlinux-initramfs-tool
p153
sVgcc-5
p154
Vgcc-5
p155
ss(Vbuild
p156
g12
tp157
(dp158
Vdebug-info
p159
I00
sVimage-file
p160
Varch/x86/boot/bzImage
p161
ss(Vbase
p162
tp163
(dp164
Vcompiler
p165
Vgcc-5
p166
sVfeaturesets
p167
(lp168
Vnone
p169
asVarches
p170
(lp171
Vamd64
p172
aVi386
p173
asstp174
Rp175
.