ccopy_reg
_reconstructor
p0
(cdebian_linux.config
ConfigCore
p1
c__builtin__
dict
p2
(dp3
(Vdescription
p4
Vi386
p5
NVaptosid-686
p6
tp7
(dp8
Vhardware-long
p9
VPCs with Intel Pentium Pro/II/III/4/4M/D/M, Xeon, Celeron, Core or Atom; AMD Geode LX/NX, Athlon (K7), Duron, Opteron, Sempron, Turion or Phenom; Transmeta Efficeon; VIA C3 "Nehemiah" or C7 processors
p10
sVhardware
p11
Vmodern PCs
p12
ss(Vbase
p13
g5
tp14
(dp15
Vfeaturesets
p16
(lp17
Vnone
p18
aVnone
p19
asVkernel-arch
p20
Vx86
p21
ss(Vimage
p22
Vamd64
p23
tp24
(dp25
Vsuggests
p26
Vcrda
p27
sVinstall-stem
p28
Vvmlinuz
p29
sVbootloaders
p30
(lp31
Vgrub-pc
p32
aVextlinux
p33
aVgrub-efi-amd64
p34
asVbreaks
p35
Vxserver-xorg-input-vmmouse (<< 1:13.0.99)
p36
ss(Vbase
p37
g23
Vnone
p38
tp39
(dp40
Vflavours
p41
(lp42
Vaptosid-amd64
p43
asVimplicit-flavour
p44
I01
ss(Vbuild
p45
g5
tp46
(dp47
Vdebug-info
p48
I00
sVimage-file
p49
Varch/x86/boot/bzImage
p50
ss(Vabi
p51
tp52
(dp53
Vabiname
p54
V4.slh.3
p55
ss(Vbase
p56
g5
g19
tp57
(dp58
g41
(lp59
Vaptosid-686
p60
asg44
I01
ss(Vdescription
p61
g23
g38
Vaptosid-amd64
p62
tp63
(dp64
Vparts
p65
(lp66
Vxen
p67
ass(Vbuild
p68
g23
tp69
(dp70
Vdebug-info
p71
I00
sVimage-file
p72
Varch/x86/boot/bzImage
p73
ss(Vdescription
p74
g23
NVaptosid-amd64
p75
tp76
(dp77
Vhardware-long
p78
VPCs with AMD64 or Intel 64 processors
p79
sVhardware
p80
V64-bit PCs
p81
ss(Vbase
p82
tp83
(dp84
Vcompiler
p85
Vgcc-7
p86
sVarches
p87
(lp88
Vamd64
p89
aVi386
p90
asVfeaturesets
p91
(lp92
Vnone
p93
ass(Vimage
p94
tp95
(dp96
Vinitramfs-generators
p97
(lp98
Vinitramfs-tools
p99
aVinitramfs-fallback
p100
ass(Vdescription
p101
tp102
(dp103
Vpart-long-up
p104
VThis kernel is not suitable for SMP (multi-processor,\u000amulti-core or hyper-threaded) systems.
p105
sVpart-long-xen
p106
VThis kernel also runs on a Xen hypervisor.\u000aIt supports both privileged (dom0) and unprivileged (domU) operation.
p107
ss(Vbase
p108
g23
tp109
(dp110
Vfeaturesets
p111
(lp112
g18
ag38
asVkernel-arch
p113
Vx86
p114
ss(Vrelations
p115
tp116
(dp117
Vgcc-7
p118
Vgcc-7
p119
sVinitramfs-fallback
p120
Vlinux-initramfs-tool
p121
sVinitramfs-tools
p122
Vinitramfs-tools (>= 0.121~)
p123
ss(Vimage
p124
g5
tp125
(dp126
Vsuggests
p127
Vcrda
p128
sVinstall-stem
p129
Vvmlinuz
p130
sVbootloaders
p131
(lp132
Vgrub-pc
p133
aVextlinux
p134
aVgrub-efi-ia32
p135
asVbreaks
p136
Vxserver-xorg-input-vmmouse (<< 1:13.0.99)
p137
ss(Vversion
p138
tp139
(dp140
Vsource
p141
V4.13-10
p142
sVabiname
p143
V4.13.0-4.slh.3
p144
sVabiname_base
p145
V4.13.0
p146
sVupstream
p147
V4.13
p148
sstp149
Rp150
.