ccopy_reg
_reconstructor
p0
(cdebian_linux.config
ConfigCore
p1
c__builtin__
dict
p2
(dp3
(Vbase
p4
Vi386
p5
Vnone
p6
tp7
(dp8
Vflavours
p9
(lp10
Vaptosid-686
p11
asVimplicit-flavour
p12
I01
ss(Vbuild
p13
Vamd64
p14
tp15
(dp16
Vdebug-info
p17
I00
sVimage-file
p18
Varch/x86/boot/bzImage
p19
ss(Vimage
p20
g5
tp21
(dp22
Vsuggests
p23
Vcrda
p24
sVbootloaders
p25
(lp26
Vgrub-pc
p27
aVextlinux
p28
aVgrub-efi-ia32
p29
asVinstall-stem
p30
Vvmlinuz
p31
sVbreaks
p32
Vxserver-xorg-input-vmmouse (<< 1:13.0.99)
p33
ss(Vdescription
p34
g14
Vnone
p35
Vaptosid-amd64
p36
tp37
(dp38
Vparts
p39
(lp40
Vxen
p41
ass(Vdescription
p42
g14
NVaptosid-amd64
p43
tp44
(dp45
Vhardware-long
p46
VPCs with AMD64 or Intel 64 processors
p47
sVhardware
p48
V64-bit PCs
p49
ss(Vimage
p50
g14
tp51
(dp52
Vsuggests
p53
Vcrda
p54
sVbootloaders
p55
(lp56
Vgrub-pc
p57
aVextlinux
p58
aVgrub-efi-amd64
p59
asVinstall-stem
p60
Vvmlinuz
p61
sVbreaks
p62
Vxserver-xorg-input-vmmouse (<< 1:13.0.99)
p63
ss(Vbase
p64
tp65
(dp66
Varches
p67
(lp68
Vamd64
p69
aVi386
p70
asVfeaturesets
p71
(lp72
Vnone
p73
asVcompiler
p74
Vgcc-6
p75
ss(Vdescription
p76
tp77
(dp78
Vpart-long-xen
p79
VThis kernel also runs on a Xen hypervisor.\u000aIt supports both privileged (dom0) and unprivileged (domU) operation.
p80
sVpart-long-up
p81
VThis kernel is not suitable for SMP (multi-processor,\u000amulti-core or hyper-threaded) systems.
p82
ss(Vbase
p83
g5
tp84
(dp85
Vfeaturesets
p86
(lp87
Vnone
p88
ag6
asVkernel-arch
p89
Vx86
p90
ss(Vdescription
p91
g5
NVaptosid-686
p92
tp93
(dp94
Vhardware-long
p95
VPCs with Intel Pentium Pro/II/III/4/4M/D/M, Xeon, Celeron, Core or Atom; AMD Geode LX/NX, Athlon (K7), Duron, Opteron, Sempron, Turion or Phenom; Transmeta Efficeon; VIA C3 "Nehemiah" or C7 processors
p96
sVhardware
p97
Vmodern PCs
p98
ss(Vbase
p99
g14
tp100
(dp101
Vfeaturesets
p102
(lp103
g88
ag35
asVkernel-arch
p104
Vx86
p105
ss(Vversion
p106
tp107
(dp108
Vsource
p109
V4.12-8
p110
sVabiname
p111
V4.12.0-3.slh.3
p112
sVupstream
p113
V4.12
p114
sVabiname_base
p115
V4.12.0
p116
ss(Vbuild
p117
g5
tp118
(dp119
Vdebug-info
p120
I00
sVimage-file
p121
Varch/x86/boot/bzImage
p122
ss(Vimage
p123
tp124
(dp125
Vinitramfs-generators
p126
(lp127
Vinitramfs-tools
p128
aVinitramfs-fallback
p129
ass(Vrelations
p130
tp131
(dp132
Vgcc-6
p133
Vgcc-6
p134
sVinitramfs-fallback
p135
Vlinux-initramfs-tool
p136
sVinitramfs-tools
p137
Vinitramfs-tools (>= 0.121~)
p138
ss(Vbase
p139
g14
g35
tp140
(dp141
g9
(lp142
Vaptosid-amd64
p143
asg12
I01
ss(Vabi
p144
tp145
(dp146
Vabiname
p147
V3.slh.3
p148
sstp149
Rp150
.