ccopy_reg
_reconstructor
p0
(cdebian_linux.config
ConfigCore
p1
c__builtin__
dict
p2
(dp3
(Vbuild
p4
Vamd64
p5
tp6
(dp7
Vimage-file
p8
Varch/x86/boot/bzImage
p9
sVdebug-info
p10
I00
ss(Vabi
p11
tp12
(dp13
Vabiname
p14
V11.slh.1
p15
ss(Vbase
p16
g5
tp17
(dp18
Vfeaturesets
p19
(lp20
Vnone
p21
aVnone
p22
asVkernel-arch
p23
Vx86
p24
ss(Vdescription
p25
g5
NVaptosid-amd64
p26
tp27
(dp28
Vhardware
p29
V64-bit PCs
p30
sVhardware-long
p31
VPCs with AMD64 or Intel 64 processors
p32
ss(Vdescription
p33
Vi386
p34
NVaptosid-686
p35
tp36
(dp37
Vhardware
p38
Vmodern PCs
p39
sVhardware-long
p40
VPCs with Intel Pentium Pro/II/III/4/4M/D/M, Xeon, Celeron, Core or Atom; AMD Geode LX/NX, Athlon (K7), Duron, Opteron, Sempron, Turion or Phenom; Transmeta Efficeon; VIA C3 "Nehemiah" or C7 processors
p41
ss(Vxen
p42
g5
g22
Vaptosid-amd64
p43
tp44
(dp45
Vflavours
p46
(lp47
Vaptosid-amd64
p48
ass(Vimage
p49
g5
tp50
(dp51
Vinstall-stem
p52
Vvmlinuz
p53
sVsuggests
p54
Vcrda
p55
sVbreaks
p56
Vxserver-xorg-input-vmmouse (<< 1:13.0.99)
p57
sVbootloaders
p58
(lp59
Vgrub-pc
p60
aVextlinux
p61
aVgrub-efi-amd64
p62
ass(Vbase
p63
g34
tp64
(dp65
Vfeaturesets
p66
(lp67
g21
aVnone
p68
asVkernel-arch
p69
Vx86
p70
ss(Vdescription
p71
g5
g22
Vaptosid-amd64
p72
tp73
(dp74
Vparts
p75
(lp76
Vxen
p77
ass(Vbase
p78
tp79
(dp80
Varches
p81
(lp82
Vamd64
p83
aVi386
p84
asVfeaturesets
p85
(lp86
Vnone
p87
asVcompiler
p88
Vgcc-6
p89
ss(Vimage
p90
g34
tp91
(dp92
Vinstall-stem
p93
Vvmlinuz
p94
sVsuggests
p95
Vcrda
p96
sVbreaks
p97
Vxserver-xorg-input-vmmouse (<< 1:13.0.99)
p98
sVbootloaders
p99
(lp100
Vgrub-pc
p101
aVextlinux
p102
aVgrub-efi-ia32
p103
ass(Vrelations
p104
tp105
(dp106
Vinitramfs-fallback
p107
Vlinux-initramfs-tool
p108
sVinitramfs-tools
p109
Vinitramfs-tools (>= 0.121~)
p110
sVgcc-6
p111
Vgcc-6
p112
ss(Vbase
p113
g34
g68
tp114
(dp115
Vflavours
p116
(lp117
Vaptosid-686
p118
asVimplicit-flavour
p119
I01
ss(Vbuild
p120
g34
tp121
(dp122
Vimage-file
p123
Varch/x86/boot/bzImage
p124
sVdebug-info
p125
I00
ss(Vversion
p126
tp127
(dp128
Vabiname_base
p129
V4.8.0
p130
sVsource
p131
V4.8-17
p132
sVabiname
p133
V4.8.0-11.slh.1
p134
sVupstream
p135
V4.8
p136
ss(Vdescription
p137
tp138
(dp139
Vpart-long-xen
p140
VThis kernel also runs on a Xen hypervisor.\u000aIt supports both privileged (dom0) and unprivileged (domU) operation.
p141
sVpart-long-up
p142
VThis kernel is not suitable for SMP (multi-processor,\u000amulti-core or hyper-threaded) systems.
p143
ss(Vbase
p144
g5
g22
tp145
(dp146
g116
(lp147
Vaptosid-amd64
p148
asg119
I01
ss(Vimage
p149
tp150
(dp151
Vinitramfs-generators
p152
(lp153
Vinitramfs-tools
p154
aVinitramfs-fallback
p155
asstp156
Rp157
.