ccopy_reg
_reconstructor
p1
(cdebian_linux.config
ConfigCore
p2
c__builtin__
dict
p3
(dp4
(S'image'
p5
S'amd64'
p6
tp7
(dp8
S'suggests'
p9
S'crda'
p10
sS'configs'
p11
(lp12
S'kernelarch-x86/config'
p13
asS'bootloaders'
p14
(lp15
S'grub-pc'
p16
aS'extlinux'
p17
aS'grub-efi-amd64'
p18
ass(S'base'
p19
g6
S'none'
p20
tp21
(dp22
S'implicit-flavour'
p23
I01
sS'flavours'
p24
(lp25
S'aptosid-amd64'
p26
ass(S'build'
g6
NS'aptosid-amd64'
tp27
(dp28
S'debug-info'
p29
I00
ss(S'build'
S'i386'
p30
NS'aptosid-686'
tp31
(dp32
S'debug-info'
p33
I00
ss(S'base'
p34
g6
tp35
(dp36
S'kernel-arch'
p37
S'x86'
p38
sS'featuresets'
p39
(lp40
g20
ass(S'image'
g6
NS'aptosid-amd64'
tp41
(dp42
S'configs'
p43
(lp44
S'kernelarch-x86/config-arch-64'
p45
ass(S'image'
g30
NS'aptosid-686'
tp46
(dp47
S'configs'
p48
(lp49
S'kernelarch-x86/config-arch-32'
p50
asS'recommends'
p51
S'libc6-i686'
p52
ss(S'version'
p53
tp54
(dp55
S'abiname'
p56
S'3.14-5.slh.4'
p57
sS'source'
p58
V3.14-18
p59
ss(S'description'
g30
NS'aptosid-686'
tp60
(dp61
S'hardware'
p62
S'modern PCs'
p63
sS'hardware-long'
p64
S'PCs with Intel Pentium Pro/II/III/4/4M/D/M, Xeon, Celeron, Core or Atom; AMD Geode LX/NX, Athlon (K7), Duron, Opteron, Sempron, Turion or Phenom; Transmeta Efficeon; VIA C3 "Nehemiah" or C7 processors'
p65
ss(S'base'
g30
tp66
(dp67
S'kernel-arch'
p68
S'x86'
p69
sg39
(lp70
g20
ass(S'image'
p71
tp72
(dp73
S'initramfs-generators'
p74
(lp75
S'initramfs-tools'
p76
aS'initramfs-fallback'
p77
asS'type'
p78
S'plain'
p79
ss(S'base'
p80
tp81
(dp82
S'arches'
p83
(lp84
S'amd64'
p85
aS'i386'
p86
asS'featuresets'
p87
(lp88
S'none'
p89
asS'compiler'
p90
S'gcc-4.8'
p91
ss(S'abi'
p92
tp93
(dp94
S'abiname'
p95
S'5.slh.4'
p96
ss(S'image'
g30
tp97
(dp98
S'suggests'
p99
S'crda'
p100
sS'configs'
p101
(lp102
S'kernelarch-x86/config'
p103
asS'bootloaders'
p104
(lp105
S'grub-pc'
p106
aS'extlinux'
p107
ass(g19
g30
g20
tp108
(dp109
g23
I01
sg24
(lp110
S'aptosid-686'
p111
ass(S'description'
g6
NS'aptosid-amd64'
tp112
(dp113
S'hardware'
p114
S'64-bit PCs'
p115
sS'hardware-long'
p116
S'PCs with AMD64 or Intel 64 processors'
p117
ss(S'relations'
p118
tp119
(dp120
S'initramfs-fallback'
p121
S'linux-initramfs-tool'
p122
sS'lilo'
p123
S'lilo (>= 22.8-8.2~)'
p124
sS'gcc-4.8'
p125
S'gcc-4.8'
p126
sS'initramfs-tools'
p127
S'initramfs-tools (>= 0.110~)'
p128
sS'elilo'
p129
S'elilo (>= 3.12-3.1~)'
p130
sstRp131
.