ccopy_reg
_reconstructor
p0
(cdebian_linux.config
ConfigCore
p1
c__builtin__
dict
p2
(dp3
(S'image'
p4
S'amd64'
p5
tp6
(dp7
S'install-stem'
p8
S'vmlinuz'
p9
sS'configs'
p10
(lp11
sS'bootloaders'
p12
(lp13
S'grub-pc'
p14
aS'extlinux'
p15
aS'grub-efi-amd64'
p16
asS'suggests'
p17
S'crda'
p18
ss(S'base'
p19
g5
S'none'
p20
tp21
(dp22
S'implicit-flavour'
p23
I01
sS'flavours'
p24
(lp25
S'aptosid-amd64'
p26
ass(S'xen'
p27
g5
g20
S'aptosid-amd64'
p28
tp29
(dp30
S'flavours'
p31
(lp32
S'aptosid-amd64'
p33
ass(S'base'
p34
S'i386'
p35
tp36
(dp37
S'kernel-arch'
p38
S'x86'
p39
sS'featuresets'
p40
(lp41
S'none'
p42
aS'none'
p43
ass(S'base'
p44
g5
tp45
(dp46
S'kernel-arch'
p47
S'x86'
p48
sS'featuresets'
p49
(lp50
g42
ag20
ass(S'image'
p51
tp52
(dp53
S'initramfs-generators'
p54
(lp55
S'initramfs-tools'
p56
aS'initramfs-fallback'
p57
asS'type'
p58
S'plain'
p59
ss(S'description'
p60
g35
NS'aptosid-686'
p61
tp62
(dp63
S'hardware'
p64
S'modern PCs'
p65
sS'hardware-long'
p66
S'PCs with Intel Pentium Pro/II/III/4/4M/D/M, Xeon, Celeron, Core or Atom; AMD Geode LX/NX, Athlon (K7), Duron, Opteron, Sempron, Turion or Phenom; Transmeta Efficeon; VIA C3 "Nehemiah" or C7 processors'
p67
ss(S'version'
p68
tp69
(dp70
S'abiname'
p71
S'4.2.0-3.slh.2'
p72
sS'source'
p73
V4.2-9
p74
sS'abiname_base'
p75
S'4.2.0'
p76
sS'upstream'
p77
S'4.2'
p78
ss(S'description'
p79
g5
g20
S'aptosid-amd64'
p80
tp81
(dp82
S'parts'
p83
(lp84
S'xen'
p85
ass(S'image'
p86
g5
NS'aptosid-amd64'
p87
tp88
(dp89
S'configs'
p90
(lp91
S'kernelarch-x86/config-arch-64'
p92
ass(S'description'
p93
g5
NS'aptosid-amd64'
p94
tp95
(dp96
S'hardware'
p97
S'64-bit PCs'
p98
sS'hardware-long'
p99
S'PCs with AMD64 or Intel 64 processors'
p100
ss(S'base'
p101
tp102
(dp103
S'arches'
p104
(lp105
S'amd64'
p106
aS'i386'
p107
asS'featuresets'
p108
(lp109
S'none'
p110
asS'compiler'
p111
S'gcc-5'
p112
ss(S'base'
p113
g35
g43
tp114
(dp115
g23
I01
sg24
(lp116
S'aptosid-686'
p117
ass(S'abi'
p118
tp119
(dp120
S'abiname'
p121
S'3.slh.2'
p122
ss(S'image'
p123
g35
tp124
(dp125
S'install-stem'
p126
S'vmlinuz'
p127
sS'configs'
p128
(lp129
sS'bootloaders'
p130
(lp131
S'grub-pc'
p132
aS'extlinux'
p133
aS'grub-efi-ia32'
p134
asS'suggests'
p135
S'crda'
p136
ss(S'description'
p137
tp138
(dp139
S'part-long-up'
p140
S'This kernel is not suitable for SMP (multi-processor,\nmulti-core or hyper-threaded) systems.'
p141
sS'part-long-xen'
p142
S'This kernel also runs on a Xen hypervisor.\nIt supports both privileged (dom0) and unprivileged (domU) operation.'
p143
ss(S'build'
p144
g5
tp145
(dp146
S'debug-info'
p147
I00
sS'image-file'
p148
S'arch/x86/boot/bzImage'
p149
ss(S'image'
p150
g35
NS'aptosid-686'
p151
tp152
(dp153
S'configs'
p154
(lp155
S'kernelarch-x86/config-arch-32'
p156
asS'recommends'
p157
S'libc6-i686'
p158
ss(S'build'
p159
g35
tp160
(dp161
S'debug-info'
p162
I00
sS'image-file'
p163
S'arch/x86/boot/bzImage'
p164
ss(S'relations'
p165
tp166
(dp167
S'initramfs-fallback'
p168
S'linux-initramfs-tool'
p169
sS'gcc-5'
p170
S'gcc-5'
p171
sS'initramfs-tools'
p172
S'initramfs-tools (>= 0.118+c0.aptosid.1~)'
p173
sstp174
Rp175
.