ccopy_reg
_reconstructor
p0
(cdebian_linux.config
ConfigCore
p1
c__builtin__
dict
p2
(dp3
(Vbuild
p4
Vamd64
p5
tp6
(dp7
Vdebug-info
p8
I00
sVimage-file
p9
Varch/x86/boot/bzImage
p10
ss(Vrelations
p11
tp12
(dp13
Vgcc-6
p14
Vgcc-6
p15
sVinitramfs-tools
p16
Vinitramfs-tools (>= 0.121~)
p17
sVinitramfs-fallback
p18
Vlinux-initramfs-tool
p19
ss(Vabi
p20
tp21
(dp22
Vabiname
p23
V0.slh.2
p24
ss(Vdescription
p25
g5
Vnone
p26
Vaptosid-amd64
p27
tp28
(dp29
Vparts
p30
(lp31
Vxen
p32
ass(Vbuild
p33
Vi386
p34
tp35
(dp36
Vdebug-info
p37
I00
sVimage-file
p38
Varch/x86/boot/bzImage
p39
ss(Vdescription
p40
g5
NVaptosid-amd64
p41
tp42
(dp43
Vhardware
p44
V64-bit PCs
p45
sVhardware-long
p46
VPCs with AMD64 or Intel 64 processors
p47
ss(Vdescription
p48
tp49
(dp50
Vpart-long-up
p51
VThis kernel is not suitable for SMP (multi-processor,\u000amulti-core or hyper-threaded) systems.
p52
sVpart-long-xen
p53
VThis kernel also runs on a Xen hypervisor.\u000aIt supports both privileged (dom0) and unprivileged (domU) operation.
p54
ss(Vbase
p55
g34
tp56
(dp57
Vfeaturesets
p58
(lp59
Vnone
p60
aVnone
p61
asVkernel-arch
p62
Vx86
p63
ss(Vimage
p64
g5
tp65
(dp66
Vbreaks
p67
Vxserver-xorg-input-vmmouse (<< 1:13.0.99)
p68
sVinstall-stem
p69
Vvmlinuz
p70
sVbootloaders
p71
(lp72
Vgrub-pc
p73
aVextlinux
p74
aVgrub-efi-amd64
p75
asVsuggests
p76
Vcrda
p77
ss(Vbase
p78
g34
g61
tp79
(dp80
Vflavours
p81
(lp82
Vaptosid-686
p83
asVimplicit-flavour
p84
I01
ss(Vbase
p85
g5
tp86
(dp87
Vfeaturesets
p88
(lp89
g60
ag26
asVkernel-arch
p90
Vx86
p91
ss(Vbase
p92
tp93
(dp94
Varches
p95
(lp96
Vamd64
p97
aVi386
p98
asVcompiler
p99
Vgcc-6
p100
sVfeaturesets
p101
(lp102
Vnone
p103
ass(Vimage
p104
tp105
(dp106
Vinitramfs-generators
p107
(lp108
Vinitramfs-tools
p109
aVinitramfs-fallback
p110
ass(Vimage
p111
g34
tp112
(dp113
Vbreaks
p114
Vxserver-xorg-input-vmmouse (<< 1:13.0.99)
p115
sVinstall-stem
p116
Vvmlinuz
p117
sVbootloaders
p118
(lp119
Vgrub-pc
p120
aVextlinux
p121
aVgrub-efi-ia32
p122
asVsuggests
p123
Vcrda
p124
ss(Vversion
p125
tp126
(dp127
Vupstream
p128
V4.9
p129
sVsource
p130
V4.9-2
p131
sVabiname_base
p132
V4.9.0
p133
sVabiname
p134
V4.9.0-0.slh.2
p135
ss(Vdescription
p136
g34
NVaptosid-686
p137
tp138
(dp139
Vhardware
p140
Vmodern PCs
p141
sVhardware-long
p142
VPCs with Intel Pentium Pro/II/III/4/4M/D/M, Xeon, Celeron, Core or Atom; AMD Geode LX/NX, Athlon (K7), Duron, Opteron, Sempron, Turion or Phenom; Transmeta Efficeon; VIA C3 "Nehemiah" or C7 processors
p143
ss(Vbase
p144
g5
g26
tp145
(dp146
g81
(lp147
Vaptosid-amd64
p148
asg84
I01
sstp149
Rp150
.