ccopy_reg
_reconstructor
p1
(cdebian_linux.config
ConfigCore
p2
c__builtin__
dict
p3
(dp4
(S'image'
S'amd64'
p5
tp6
(dp7
S'suggests'
p8
S'crda'
p9
sS'configs'
p10
(lp11
S'kernelarch-x86/config'
p12
asS'bootloaders'
p13
(lp14
S'grub-pc'
p15
aS'extlinux'
p16
aS'grub-efi-amd64'
p17
ass(S'base'
p18
g5
S'none'
p19
tp20
(dp21
S'implicit-flavour'
p22
I01
sS'flavours'
p23
(lp24
S'aptosid-amd64'
p25
ass(S'description'
g5
NS'aptosid-amd64'
tp26
(dp27
S'hardware'
p28
S'64-bit PCs'
p29
sS'hardware-long'
p30
S'PCs with AMD64 or Intel 64 processors'
p31
ss(S'base'
g5
tp32
(dp33
S'kernel-arch'
p34
S'x86'
p35
sS'featuresets'
p36
(lp37
g19
ass(S'image'
p38
tp39
(dp40
S'initramfs-generators'
p41
(lp42
S'initramfs-tools'
p43
aS'initramfs-fallback'
p44
asS'type'
p45
S'plain'
p46
ss(S'build'
S'i386'
p47
NS'aptosid-686'
tp48
(dp49
S'debug-info'
p50
I00
ss(S'version'
p51
tp52
(dp53
S'abiname'
p54
S'3.11-0.slh.3'
p55
sS'source'
p56
V3.11-3
p57
ss(S'build'
g5
NS'aptosid-amd64'
tp58
(dp59
S'debug-info'
p60
I00
ss(S'base'
p61
g47
tp62
(dp63
S'kernel-arch'
p64
S'x86'
p65
sg36
(lp66
g19
ass(S'image'
g5
NS'aptosid-amd64'
tp67
(dp68
S'configs'
p69
(lp70
S'kernelarch-x86/config-arch-64'
p71
ass(S'abi'
p72
tp73
(dp74
S'abiname'
p75
S'0.slh.3'
p76
ss(S'image'
p77
g47
tp78
(dp79
S'suggests'
p80
S'crda'
p81
sS'configs'
p82
(lp83
S'kernelarch-x86/config'
p84
asS'bootloaders'
p85
(lp86
S'grub-pc'
p87
aS'extlinux'
p88
ass(g18
g47
g19
tp89
(dp90
g22
I01
sg23
(lp91
S'aptosid-686'
p92
ass(S'image'
g47
NS'aptosid-686'
tp93
(dp94
S'configs'
p95
(lp96
S'kernelarch-x86/config-arch-32'
p97
asS'recommends'
p98
S'libc6-i686'
p99
ss(S'base'
p100
tp101
(dp102
S'arches'
p103
(lp104
S'amd64'
p105
aS'i386'
p106
asS'featuresets'
p107
(lp108
S'none'
p109
asS'compiler'
p110
S'gcc-4.8'
p111
ss(S'relations'
p112
tp113
(dp114
S'initramfs-fallback'
p115
S'linux-initramfs-tool'
p116
sS'lilo'
p117
S'lilo (>= 22.8-8.2~)'
p118
sS'gcc-4.8'
p119
S'gcc-4.8'
p120
sS'initramfs-tools'
p121
S'initramfs-tools (>= 0.110~)'
p122
sS'elilo'
p123
S'elilo (>= 3.12-3.1~)'
p124
ss(S'description'
g47
NS'aptosid-686'
tp125
(dp126
S'hardware'
p127
S'modern PCs'
p128
sS'hardware-long'
p129
S'PCs with Intel Pentium Pro/II/III/4/4M/D/M, Xeon, Celeron, Core or Atom; AMD Geode LX/NX, Athlon (K7), Duron, Opteron, Sempron, Turion or Phenom; Transmeta Efficeon; VIA C3 "Nehemiah" or C7 processors'
p130
sstRp131
.