ccopy_reg
_reconstructor
p0
(cdebian_linux.config
ConfigCore
p1
c__builtin__
dict
p2
(dp3
(Vabi
p4
tp5
(dp6
Vabiname
p7
V2.slh.1
p8
ss(Vbase
p9
Vamd64
p10
tp11
(dp12
Vkernel-arch
p13
Vx86
p14
sVfeaturesets
p15
(lp16
Vnone
p17
aVnone
p18
ass(Vbuild
p19
g10
tp20
(dp21
Vimage-file
p22
Varch/x86/boot/bzImage
p23
sVdebug-info
p24
I00
ss(Vbase
p25
g10
g18
tp26
(dp27
Vflavours
p28
(lp29
Vaptosid-amd64
p30
asVimplicit-flavour
p31
I01
ss(Vbase
p32
Vi386
p33
tp34
(dp35
Vkernel-arch
p36
Vx86
p37
sVfeaturesets
p38
(lp39
g17
aVnone
p40
ass(Vversion
p41
tp42
(dp43
Vabiname
p44
V4.9.0-2.slh.1
p45
sVupstream
p46
V4.9
p47
sVsource
p48
V4.9-5
p49
sVabiname_base
p50
V4.9.0
p51
ss(Vbase
p52
tp53
(dp54
Vcompiler
p55
Vgcc-6
p56
sVarches
p57
(lp58
Vamd64
p59
aVi386
p60
asVfeaturesets
p61
(lp62
Vnone
p63
ass(Vbuild
p64
g33
tp65
(dp66
Vimage-file
p67
Varch/x86/boot/bzImage
p68
sVdebug-info
p69
I00
ss(Vrelations
p70
tp71
(dp72
Vgcc-6
p73
Vgcc-6
p74
sVinitramfs-fallback
p75
Vlinux-initramfs-tool
p76
sVinitramfs-tools
p77
Vinitramfs-tools (>= 0.121~)
p78
ss(Vdescription
p79
tp80
(dp81
Vpart-long-xen
p82
VThis kernel also runs on a Xen hypervisor.\u000aIt supports both privileged (dom0) and unprivileged (domU) operation.
p83
sVpart-long-up
p84
VThis kernel is not suitable for SMP (multi-processor,\u000amulti-core or hyper-threaded) systems.
p85
ss(Vdescription
p86
g10
NVaptosid-amd64
p87
tp88
(dp89
Vhardware
p90
V64-bit PCs
p91
sVhardware-long
p92
VPCs with AMD64 or Intel 64 processors
p93
ss(Vdescription
p94
g10
g18
Vaptosid-amd64
p95
tp96
(dp97
Vparts
p98
(lp99
Vxen
p100
ass(Vimage
p101
g33
tp102
(dp103
Vsuggests
p104
Vcrda
p105
sVbootloaders
p106
(lp107
Vgrub-pc
p108
aVextlinux
p109
aVgrub-efi-ia32
p110
asVinstall-stem
p111
Vvmlinuz
p112
sVbreaks
p113
Vxserver-xorg-input-vmmouse (<< 1:13.0.99)
p114
ss(Vdescription
p115
g33
NVaptosid-686
p116
tp117
(dp118
Vhardware
p119
Vmodern PCs
p120
sVhardware-long
p121
VPCs with Intel Pentium Pro/II/III/4/4M/D/M, Xeon, Celeron, Core or Atom; AMD Geode LX/NX, Athlon (K7), Duron, Opteron, Sempron, Turion or Phenom; Transmeta Efficeon; VIA C3 "Nehemiah" or C7 processors
p122
ss(Vimage
p123
g10
tp124
(dp125
Vsuggests
p126
Vcrda
p127
sVbootloaders
p128
(lp129
Vgrub-pc
p130
aVextlinux
p131
aVgrub-efi-amd64
p132
asVinstall-stem
p133
Vvmlinuz
p134
sVbreaks
p135
Vxserver-xorg-input-vmmouse (<< 1:13.0.99)
p136
ss(Vbase
p137
g33
g40
tp138
(dp139
g28
(lp140
Vaptosid-686
p141
asg31
I01
ss(Vimage
p142
tp143
(dp144
Vinitramfs-generators
p145
(lp146
Vinitramfs-tools
p147
aVinitramfs-fallback
p148
asstp149
Rp150
.