ccopy_reg
_reconstructor
p0
(cdebian_linux.config
ConfigCore
p1
c__builtin__
dict
p2
(dp3
(Vbase
p4
Vamd64
p5
tp6
(dp7
Vfeaturesets
p8
(lp9
Vnone
p10
aVnone
p11
asVkernel-arch
p12
Vx86
p13
ss(Vdescription
p14
tp15
(dp16
Vpart-long-up
p17
VThis kernel is not suitable for SMP (multi-processor,\u000amulti-core or hyper-threaded) systems.
p18
sVpart-long-xen
p19
VThis kernel also runs on a Xen hypervisor.\u000aIt supports both privileged (dom0) and unprivileged (domU) operation.
p20
ss(Vbase
p21
tp22
(dp23
Varches
p24
(lp25
Vamd64
p26
aVi386
p27
asVcompiler
p28
Vgcc-6
p29
sVfeaturesets
p30
(lp31
Vnone
p32
ass(Vdescription
p33
g5
g11
Vaptosid-amd64
p34
tp35
(dp36
Vparts
p37
(lp38
Vxen
p39
ass(Vbase
p40
Vi386
p41
Vnone
p42
tp43
(dp44
Vflavours
p45
(lp46
Vaptosid-686
p47
asVimplicit-flavour
p48
I01
ss(Vdescription
p49
g5
NVaptosid-amd64
p50
tp51
(dp52
Vhardware-long
p53
VPCs with AMD64 or Intel 64 processors
p54
sVhardware
p55
V64-bit PCs
p56
ss(Vimage
p57
g5
tp58
(dp59
Vsuggests
p60
Vcrda
p61
sVinstall-stem
p62
Vvmlinuz
p63
sVbreaks
p64
Vxserver-xorg-input-vmmouse (<< 1:13.0.99)
p65
sVbootloaders
p66
(lp67
Vgrub-pc
p68
aVextlinux
p69
aVgrub-efi-amd64
p70
ass(Vabi
p71
tp72
(dp73
Vabiname
p74
V2.slh.2
p75
ss(Vbuild
p76
g41
tp77
(dp78
Vdebug-info
p79
I00
sVimage-file
p80
Varch/x86/boot/bzImage
p81
ss(Vimage
p82
g41
tp83
(dp84
Vsuggests
p85
Vcrda
p86
sVinstall-stem
p87
Vvmlinuz
p88
sVbreaks
p89
Vxserver-xorg-input-vmmouse (<< 1:13.0.99)
p90
sVbootloaders
p91
(lp92
Vgrub-pc
p93
aVextlinux
p94
aVgrub-efi-ia32
p95
ass(Vimage
p96
tp97
(dp98
Vinitramfs-generators
p99
(lp100
Vinitramfs-tools
p101
aVinitramfs-fallback
p102
ass(Vdescription
p103
g41
NVaptosid-686
p104
tp105
(dp106
Vhardware-long
p107
VPCs with Intel Pentium Pro/II/III/4/4M/D/M, Xeon, Celeron, Core or Atom; AMD Geode LX/NX, Athlon (K7), Duron, Opteron, Sempron, Turion or Phenom; Transmeta Efficeon; VIA C3 "Nehemiah" or C7 processors
p108
sVhardware
p109
Vmodern PCs
p110
ss(Vrelations
p111
tp112
(dp113
Vgcc-6
p114
Vgcc-6
p115
sVinitramfs-tools
p116
Vinitramfs-tools (>= 0.121~)
p117
sVinitramfs-fallback
p118
Vlinux-initramfs-tool
p119
ss(Vbase
p120
g41
tp121
(dp122
Vfeaturesets
p123
(lp124
g10
ag42
asVkernel-arch
p125
Vx86
p126
ss(Vversion
p127
tp128
(dp129
Vsource
p130
V4.12-5
p131
sVabiname
p132
V4.12.0-2.slh.2
p133
sVabiname_base
p134
V4.12.0
p135
sVupstream
p136
V4.12
p137
ss(Vbase
p138
g5
g11
tp139
(dp140
g45
(lp141
Vaptosid-amd64
p142
asg48
I01
ss(Vbuild
p143
g5
tp144
(dp145
Vdebug-info
p146
I00
sVimage-file
p147
Varch/x86/boot/bzImage
p148
sstp149
Rp150
.