ccopy_reg
_reconstructor
p0
(cdebian_linux.config
ConfigCore
p1
c__builtin__
dict
p2
(dp3
(Vabi
p4
tp5
(dp6
Vabiname
p7
V4.slh.2
p8
ss(Vimage
p9
Vi386
p10
tp11
(dp12
Vbreaks
p13
Vxserver-xorg-input-vmmouse (<< 1:13.0.99)
p14
sVbootloaders
p15
(lp16
Vgrub-pc
p17
aVextlinux
p18
aVgrub-efi-ia32
p19
asVinstall-stem
p20
Vvmlinuz
p21
sVsuggests
p22
Vcrda
p23
ss(Vbase
p24
tp25
(dp26
Varches
p27
(lp28
Vamd64
p29
aVi386
p30
asVcompiler
p31
Vgcc-6
p32
sVfeaturesets
p33
(lp34
Vnone
p35
ass(Vrelations
p36
tp37
(dp38
Vinitramfs-fallback
p39
Vlinux-initramfs-tool
p40
sVinitramfs-tools
p41
Vinitramfs-tools (>= 0.121~)
p42
sVgcc-6
p43
Vgcc-6
p44
ss(Vbuild
p45
g10
tp46
(dp47
Vimage-file
p48
Varch/x86/boot/bzImage
p49
sVdebug-info
p50
I00
ss(Vdescription
p51
Vamd64
p52
Vnone
p53
Vaptosid-amd64
p54
tp55
(dp56
Vparts
p57
(lp58
Vxen
p59
ass(Vversion
p60
tp61
(dp62
Vabiname_base
p63
V4.11.0
p64
sVsource
p65
V4.11-11
p66
sVupstream
p67
V4.11
p68
sVabiname
p69
V4.11.0-4.slh.2
p70
ss(Vdescription
p71
g52
NVaptosid-amd64
p72
tp73
(dp74
Vhardware
p75
V64-bit PCs
p76
sVhardware-long
p77
VPCs with AMD64 or Intel 64 processors
p78
ss(Vbase
p79
g52
g53
tp80
(dp81
Vimplicit-flavour
p82
I01
sVflavours
p83
(lp84
Vaptosid-amd64
p85
ass(Vbase
p86
g52
tp87
(dp88
Vfeaturesets
p89
(lp90
Vnone
p91
ag53
asVkernel-arch
p92
Vx86
p93
ss(Vdescription
p94
tp95
(dp96
Vpart-long-up
p97
VThis kernel is not suitable for SMP (multi-processor,\u000amulti-core or hyper-threaded) systems.
p98
sVpart-long-xen
p99
VThis kernel also runs on a Xen hypervisor.\u000aIt supports both privileged (dom0) and unprivileged (domU) operation.
p100
ss(Vimage
p101
g52
tp102
(dp103
Vbreaks
p104
Vxserver-xorg-input-vmmouse (<< 1:13.0.99)
p105
sVbootloaders
p106
(lp107
Vgrub-pc
p108
aVextlinux
p109
aVgrub-efi-amd64
p110
asVinstall-stem
p111
Vvmlinuz
p112
sVsuggests
p113
Vcrda
p114
ss(Vbase
p115
g10
Vnone
p116
tp117
(dp118
g82
I01
sg83
(lp119
Vaptosid-686
p120
ass(Vimage
p121
tp122
(dp123
Vinitramfs-generators
p124
(lp125
Vinitramfs-tools
p126
aVinitramfs-fallback
p127
ass(Vdescription
p128
g10
NVaptosid-686
p129
tp130
(dp131
Vhardware
p132
Vmodern PCs
p133
sVhardware-long
p134
VPCs with Intel Pentium Pro/II/III/4/4M/D/M, Xeon, Celeron, Core or Atom; AMD Geode LX/NX, Athlon (K7), Duron, Opteron, Sempron, Turion or Phenom; Transmeta Efficeon; VIA C3 "Nehemiah" or C7 processors
p135
ss(Vbase
p136
g10
tp137
(dp138
Vfeaturesets
p139
(lp140
g91
ag116
asVkernel-arch
p141
Vx86
p142
ss(Vbuild
p143
g52
tp144
(dp145
Vimage-file
p146
Varch/x86/boot/bzImage
p147
sVdebug-info
p148
I00
sstp149
Rp150
.