ccopy_reg
_reconstructor
p0
(cdebian_linux.config
ConfigCore
p1
c__builtin__
dict
p2
(dp3
(Vbuild
p4
Vi386
p5
tp6
(dp7
Vdebug-info
p8
I00
sVimage-file
p9
Varch/x86/boot/bzImage
p10
ss(Vimage
p11
tp12
(dp13
Vinitramfs-generators
p14
(lp15
Vinitramfs-tools
p16
aVinitramfs-fallback
p17
ass(Vimage
p18
Vamd64
p19
tp20
(dp21
Vbreaks
p22
Vxserver-xorg-input-vmmouse (<< 1:13.0.99)
p23
sVbootloaders
p24
(lp25
Vgrub-pc
p26
aVextlinux
p27
aVgrub-efi-amd64
p28
asVsuggests
p29
Vcrda
p30
sVinstall-stem
p31
Vvmlinuz
p32
ss(Vbase
p33
g5
Vnone
p34
tp35
(dp36
Vflavours
p37
(lp38
Vaptosid-686
p39
asVimplicit-flavour
p40
I01
ss(Vbase
p41
g5
tp42
(dp43
Vkernel-arch
p44
Vx86
p45
sVfeaturesets
p46
(lp47
Vnone
p48
ag34
ass(Vrelations
p49
tp50
(dp51
Vinitramfs-tools
p52
Vinitramfs-tools (>= 0.121~)
p53
sVgcc-6
p54
Vgcc-6
p55
sVinitramfs-fallback
p56
Vlinux-initramfs-tool
p57
ss(Vbase
p58
tp59
(dp60
Vcompiler
p61
Vgcc-6
p62
sVarches
p63
(lp64
Vamd64
p65
aVi386
p66
asVfeaturesets
p67
(lp68
Vnone
p69
ass(Vdescription
p70
g19
Vnone
p71
Vaptosid-amd64
p72
tp73
(dp74
Vparts
p75
(lp76
Vxen
p77
ass(Vdescription
p78
g19
NVaptosid-amd64
p79
tp80
(dp81
Vhardware-long
p82
VPCs with AMD64 or Intel 64 processors
p83
sVhardware
p84
V64-bit PCs
p85
ss(Vversion
p86
tp87
(dp88
Vabiname_base
p89
V4.8.0
p90
sVupstream
p91
V4.8
p92
sVsource
p93
V4.8-13
p94
sVabiname
p95
V4.8.0-9.slh.1
p96
ss(Vimage
p97
g5
tp98
(dp99
Vbreaks
p100
Vxserver-xorg-input-vmmouse (<< 1:13.0.99)
p101
sVbootloaders
p102
(lp103
Vgrub-pc
p104
aVextlinux
p105
aVgrub-efi-ia32
p106
asVsuggests
p107
Vcrda
p108
sVinstall-stem
p109
Vvmlinuz
p110
ss(Vbase
p111
g19
g71
tp112
(dp113
g37
(lp114
Vaptosid-amd64
p115
asg40
I01
ss(Vbase
p116
g19
tp117
(dp118
Vkernel-arch
p119
Vx86
p120
sVfeaturesets
p121
(lp122
g48
ag71
ass(Vbuild
p123
g19
tp124
(dp125
Vdebug-info
p126
I00
sVimage-file
p127
Varch/x86/boot/bzImage
p128
ss(Vxen
p129
g19
g71
Vaptosid-amd64
p130
tp131
(dp132
Vflavours
p133
(lp134
Vaptosid-amd64
p135
ass(Vdescription
p136
tp137
(dp138
Vpart-long-up
p139
VThis kernel is not suitable for SMP (multi-processor,\u000amulti-core or hyper-threaded) systems.
p140
sVpart-long-xen
p141
VThis kernel also runs on a Xen hypervisor.\u000aIt supports both privileged (dom0) and unprivileged (domU) operation.
p142
ss(Vabi
p143
tp144
(dp145
Vabiname
p146
V9.slh.1
p147
ss(Vdescription
p148
g5
NVaptosid-686
p149
tp150
(dp151
Vhardware-long
p152
VPCs with Intel Pentium Pro/II/III/4/4M/D/M, Xeon, Celeron, Core or Atom; AMD Geode LX/NX, Athlon (K7), Duron, Opteron, Sempron, Turion or Phenom; Transmeta Efficeon; VIA C3 "Nehemiah" or C7 processors
p153
sVhardware
p154
Vmodern PCs
p155
sstp156
Rp157
.