ccopy_reg
_reconstructor
p0
(cdebian_linux.config
ConfigCore
p1
c__builtin__
dict
p2
(dp3
(Vdescription
p4
Vi386
p5
NVaptosid-686
p6
tp7
(dp8
Vhardware-long
p9
VPCs with Intel Pentium Pro/II/III/4/4M/D/M, Xeon, Celeron, Core or Atom; AMD Geode LX/NX, Athlon (K7), Duron, Opteron, Sempron, Turion or Phenom; Transmeta Efficeon; VIA C3 "Nehemiah" or C7 processors
p10
sVhardware
p11
Vmodern PCs
p12
ss(Vdescription
p13
Vamd64
p14
NVaptosid-amd64
p15
tp16
(dp17
Vhardware-long
p18
VPCs with AMD64 or Intel 64 processors
p19
sVhardware
p20
V64-bit PCs
p21
ss(Vimage
p22
g5
tp23
(dp24
Vinstall-stem
p25
Vvmlinuz
p26
sVsuggests
p27
Vcrda
p28
sVbootloaders
p29
(lp30
Vgrub-pc
p31
aVextlinux
p32
aVgrub-efi-ia32
p33
asVbreaks
p34
Vxserver-xorg-input-vmmouse (<< 1:13.0.99)
p35
ss(Vrelations
p36
tp37
(dp38
Vinitramfs-fallback
p39
Vlinux-initramfs-tool
p40
sVgcc-7
p41
Vgcc-7
p42
sVinitramfs-tools
p43
Vinitramfs-tools (>= 0.121~)
p44
ss(Vbuild
p45
g5
tp46
(dp47
Vdebug-info
p48
I00
sVimage-file
p49
Varch/x86/boot/bzImage
p50
ss(Vbase
p51
g5
tp52
(dp53
Vkernel-arch
p54
Vx86
p55
sVfeaturesets
p56
(lp57
Vnone
p58
aVnone
p59
ass(Vdescription
p60
g14
Vnone
p61
Vaptosid-amd64
p62
tp63
(dp64
Vparts
p65
(lp66
Vxen
p67
ass(Vabi
p68
tp69
(dp70
Vabiname
p71
V8.slh.1
p72
ss(Vbase
p73
tp74
(dp75
Vcompiler
p76
Vgcc-7
p77
sVarches
p78
(lp79
Vamd64
p80
aVi386
p81
asVfeaturesets
p82
(lp83
Vnone
p84
ass(Vbase
p85
g14
tp86
(dp87
Vkernel-arch
p88
Vx86
p89
sVfeaturesets
p90
(lp91
g58
ag61
ass(Vbase
p92
g14
g61
tp93
(dp94
Vimplicit-flavour
p95
I01
sVflavours
p96
(lp97
Vaptosid-amd64
p98
ass(Vimage
p99
g14
tp100
(dp101
Vinstall-stem
p102
Vvmlinuz
p103
sVsuggests
p104
Vcrda
p105
sVbootloaders
p106
(lp107
Vgrub-pc
p108
aVextlinux
p109
aVgrub-efi-amd64
p110
asVbreaks
p111
Vxserver-xorg-input-vmmouse (<< 1:13.0.99)
p112
ss(Vversion
p113
tp114
(dp115
Vabiname_base
p116
V4.12.0
p117
sVabiname
p118
V4.12.0-8.slh.1
p119
sVsource
p120
V4.12-16
p121
sVupstream
p122
V4.12
p123
ss(Vdescription
p124
tp125
(dp126
Vpart-long-up
p127
VThis kernel is not suitable for SMP (multi-processor,\u000amulti-core or hyper-threaded) systems.
p128
sVpart-long-xen
p129
VThis kernel also runs on a Xen hypervisor.\u000aIt supports both privileged (dom0) and unprivileged (domU) operation.
p130
ss(Vbuild
p131
g14
tp132
(dp133
Vdebug-info
p134
I00
sVimage-file
p135
Varch/x86/boot/bzImage
p136
ss(Vimage
p137
tp138
(dp139
Vinitramfs-generators
p140
(lp141
Vinitramfs-tools
p142
aVinitramfs-fallback
p143
ass(Vbase
p144
g5
g59
tp145
(dp146
g95
I01
sg96
(lp147
Vaptosid-686
p148
asstp149
Rp150
.