ccopy_reg
_reconstructor
p0
(cdebian_linux.config
ConfigCore
p1
c__builtin__
dict
p2
(dp3
(Vabi
p4
tp5
(dp6
Vabiname
p7
V3.slh.1
p8
ss(Vbase
p9
tp10
(dp11
Vcompiler
p12
Vgcc-5
p13
sVfeaturesets
p14
(lp15
Vnone
p16
asVarches
p17
(lp18
Vamd64
p19
aVi386
p20
ass(Vdescription
p21
Vamd64
p22
NVaptosid-amd64
p23
tp24
(dp25
Vhardware-long
p26
VPCs with AMD64 or Intel 64 processors
p27
sVhardware
p28
V64-bit PCs
p29
ss(Vimage
p30
tp31
(dp32
Vtype
p33
Vplain
p34
sVinitramfs-generators
p35
(lp36
Vinitramfs-tools
p37
aVinitramfs-fallback
p38
ass(Vbuild
p39
g22
tp40
(dp41
Vimage-file
p42
Varch/x86/boot/bzImage
p43
sVdebug-info
p44
I00
ss(Vdescription
p45
g22
Vnone
p46
Vaptosid-amd64
p47
tp48
(dp49
Vparts
p50
(lp51
Vxen
p52
ass(Vdescription
p53
Vi386
p54
NVaptosid-686
p55
tp56
(dp57
Vhardware-long
p58
VPCs with Intel Pentium Pro/II/III/4/4M/D/M, Xeon, Celeron, Core or Atom; AMD Geode LX/NX, Athlon (K7), Duron, Opteron, Sempron, Turion or Phenom; Transmeta Efficeon; VIA C3 "Nehemiah" or C7 processors
p59
sVhardware
p60
Vmodern PCs
p61
ss(Vxen
p62
g22
g46
Vaptosid-amd64
p63
tp64
(dp65
Vflavours
p66
(lp67
Vaptosid-amd64
p68
ass(Vimage
p69
g22
tp70
(dp71
Vinstall-stem
p72
Vvmlinuz
p73
sVconfigs
p74
(lp75
sVbootloaders
p76
(lp77
Vgrub-pc
p78
aVextlinux
p79
aVgrub-efi-amd64
p80
asVsuggests
p81
Vcrda
p82
ss(Vbase
p83
g54
tp84
(dp85
Vfeaturesets
p86
(lp87
Vnone
p88
aVnone
p89
asVkernel-arch
p90
Vx86
p91
ss(Vimage
p92
g54
tp93
(dp94
Vinstall-stem
p95
Vvmlinuz
p96
sVconfigs
p97
(lp98
sVbootloaders
p99
(lp100
Vgrub-pc
p101
aVextlinux
p102
aVgrub-efi-ia32
p103
asVsuggests
p104
Vcrda
p105
ss(Vimage
p106
g22
NVaptosid-amd64
p107
tp108
(dp109
Vconfigs
p110
(lp111
Vkernelarch-x86/config-arch-64
p112
ass(Vversion
p113
tp114
(dp115
Vupstream
p116
V4.6
p117
sVabiname
p118
V4.6.0-3.slh.1
p119
sVsource
p120
V4.6-11
p121
sVabiname_base
p122
V4.6.0
p123
ss(Vrelations
p124
tp125
(dp126
Vgcc-5
p127
Vgcc-5
p128
sVinitramfs-fallback
p129
Vlinux-initramfs-tool
p130
sVinitramfs-tools
p131
Vinitramfs-tools (>= 0.121~)
p132
ss(Vdescription
p133
tp134
(dp135
Vpart-long-xen
p136
VThis kernel also runs on a Xen hypervisor.\u000aIt supports both privileged (dom0) and unprivileged (domU) operation.
p137
sVpart-long-up
p138
VThis kernel is not suitable for SMP (multi-processor,\u000amulti-core or hyper-threaded) systems.
p139
ss(Vbuild
p140
g54
tp141
(dp142
Vimage-file
p143
Varch/x86/boot/bzImage
p144
sVdebug-info
p145
I00
ss(Vbase
p146
g54
g89
tp147
(dp148
Vflavours
p149
(lp150
Vaptosid-686
p151
asVimplicit-flavour
p152
I01
ss(Vbase
p153
g22
tp154
(dp155
Vfeaturesets
p156
(lp157
g88
ag46
asVkernel-arch
p158
Vx86
p159
ss(Vimage
p160
g54
NVaptosid-686
p161
tp162
(dp163
Vconfigs
p164
(lp165
Vkernelarch-x86/config-arch-32
p166
asVrecommends
p167
Vlibc6-i686
p168
ss(Vbase
p169
g22
g46
tp170
(dp171
g149
(lp172
Vaptosid-amd64
p173
asg152
I01
sstp174
Rp175
.