ccopy_reg
_reconstructor
p0
(cdebian_linux.config
ConfigCore
p1
c__builtin__
dict
p2
(dp3
(Vbase
p4
Vi386
p5
Vnone
p6
tp7
(dp8
Vimplicit-flavour
p9
I01
sVflavours
p10
(lp11
Vaptosid-686
p12
ass(Vbase
p13
g5
tp14
(dp15
Vfeaturesets
p16
(lp17
Vnone
p18
ag6
asVkernel-arch
p19
Vx86
p20
ss(Vdescription
p21
tp22
(dp23
Vpart-long-xen
p24
VThis kernel also runs on a Xen hypervisor.\u000aIt supports both privileged (dom0) and unprivileged (domU) operation.
p25
sVpart-long-up
p26
VThis kernel is not suitable for SMP (multi-processor,\u000amulti-core or hyper-threaded) systems.
p27
ss(Vbase
p28
Vamd64
p29
tp30
(dp31
Vfeaturesets
p32
(lp33
g18
aVnone
p34
asVkernel-arch
p35
Vx86
p36
ss(Vbuild
p37
g29
tp38
(dp39
Vimage-file
p40
Varch/x86/boot/bzImage
p41
sVdebug-info
p42
I00
ss(Vbuild
p43
g5
tp44
(dp45
Vimage-file
p46
Varch/x86/boot/bzImage
p47
sVdebug-info
p48
I00
ss(Vbase
p49
g29
g34
tp50
(dp51
g9
I01
sg10
(lp52
Vaptosid-amd64
p53
ass(Vrelations
p54
tp55
(dp56
Vinitramfs-fallback
p57
Vlinux-initramfs-tool
p58
sVinitramfs-tools
p59
Vinitramfs-tools (>= 0.121~)
p60
sVgcc-7
p61
Vgcc-7
p62
ss(Vimage
p63
g29
tp64
(dp65
Vbreaks
p66
Vxserver-xorg-input-vmmouse (<< 1:13.0.99)
p67
sVbootloaders
p68
(lp69
Vgrub-pc
p70
aVextlinux
p71
aVgrub-efi-amd64
p72
asVinstall-stem
p73
Vvmlinuz
p74
sVsuggests
p75
Vcrda
p76
ss(Vversion
p77
tp78
(dp79
Vabiname
p80
V4.12.0-9.slh.1
p81
sVupstream
p82
V4.12
p83
sVabiname_base
p84
V4.12.0
p85
sVsource
p86
V4.12-18
p87
ss(Vdescription
p88
g29
NVaptosid-amd64
p89
tp90
(dp91
Vhardware-long
p92
VPCs with AMD64 or Intel 64 processors
p93
sVhardware
p94
V64-bit PCs
p95
ss(Vbase
p96
tp97
(dp98
Varches
p99
(lp100
Vamd64
p101
aVi386
p102
asVfeaturesets
p103
(lp104
Vnone
p105
asVcompiler
p106
Vgcc-7
p107
ss(Vimage
p108
tp109
(dp110
Vinitramfs-generators
p111
(lp112
Vinitramfs-tools
p113
aVinitramfs-fallback
p114
ass(Vabi
p115
tp116
(dp117
Vabiname
p118
V9.slh.1
p119
ss(Vdescription
p120
g29
g34
Vaptosid-amd64
p121
tp122
(dp123
Vparts
p124
(lp125
Vxen
p126
ass(Vimage
p127
g5
tp128
(dp129
Vbreaks
p130
Vxserver-xorg-input-vmmouse (<< 1:13.0.99)
p131
sVbootloaders
p132
(lp133
Vgrub-pc
p134
aVextlinux
p135
aVgrub-efi-ia32
p136
asVinstall-stem
p137
Vvmlinuz
p138
sVsuggests
p139
Vcrda
p140
ss(Vdescription
p141
g5
NVaptosid-686
p142
tp143
(dp144
Vhardware-long
p145
VPCs with Intel Pentium Pro/II/III/4/4M/D/M, Xeon, Celeron, Core or Atom; AMD Geode LX/NX, Athlon (K7), Duron, Opteron, Sempron, Turion or Phenom; Transmeta Efficeon; VIA C3 "Nehemiah" or C7 processors
p146
sVhardware
p147
Vmodern PCs
p148
sstp149
Rp150
.