ccopy_reg
_reconstructor
p0
(cdebian_linux.config
ConfigCore
p1
c__builtin__
dict
p2
(dp3
(Vdescription
p4
Vamd64
p5
Vnone
p6
Vaptosid-amd64
p7
tp8
(dp9
Vparts
p10
(lp11
Vxen
p12
ass(Vbase
p13
Vi386
p14
Vnone
p15
tp16
(dp17
Vflavours
p18
(lp19
Vaptosid-686
p20
asVimplicit-flavour
p21
I01
ss(Vdescription
p22
tp23
(dp24
Vpart-long-xen
p25
VThis kernel also runs on a Xen hypervisor.\u000aIt supports both privileged (dom0) and unprivileged (domU) operation.
p26
sVpart-long-up
p27
VThis kernel is not suitable for SMP (multi-processor,\u000amulti-core or hyper-threaded) systems.
p28
ss(Vbuild
p29
g14
tp30
(dp31
Vdebug-info
p32
I00
sVimage-file
p33
Varch/x86/boot/bzImage
p34
ss(Vbuild
p35
g5
tp36
(dp37
Vdebug-info
p38
I00
sVimage-file
p39
Varch/x86/boot/bzImage
p40
ss(Vimage
p41
g14
tp42
(dp43
Vinstall-stem
p44
Vvmlinuz
p45
sVsuggests
p46
Vcrda
p47
sVbootloaders
p48
(lp49
Vgrub-pc
p50
aVextlinux
p51
aVgrub-efi-ia32
p52
asVbreaks
p53
Vxserver-xorg-input-vmmouse (<< 1:13.0.99)
p54
ss(Vxen
p55
g5
g6
Vaptosid-amd64
p56
tp57
(dp58
Vflavours
p59
(lp60
Vaptosid-amd64
p61
ass(Vimage
p62
tp63
(dp64
Vinitramfs-generators
p65
(lp66
Vinitramfs-tools
p67
aVinitramfs-fallback
p68
ass(Vversion
p69
tp70
(dp71
Vsource
p72
V4.7-9
p73
sVabiname
p74
V4.7.0-1.slh.2
p75
sVupstream
p76
V4.7
p77
sVabiname_base
p78
V4.7.0
p79
ss(Vabi
p80
tp81
(dp82
Vabiname
p83
V1.slh.2
p84
ss(Vbase
p85
g5
g6
tp86
(dp87
g18
(lp88
Vaptosid-amd64
p89
asg21
I01
ss(Vdescription
p90
g14
NVaptosid-686
p91
tp92
(dp93
Vhardware
p94
Vmodern PCs
p95
sVhardware-long
p96
VPCs with Intel Pentium Pro/II/III/4/4M/D/M, Xeon, Celeron, Core or Atom; AMD Geode LX/NX, Athlon (K7), Duron, Opteron, Sempron, Turion or Phenom; Transmeta Efficeon; VIA C3 "Nehemiah" or C7 processors
p97
ss(Vbase
p98
g14
tp99
(dp100
Vkernel-arch
p101
Vx86
p102
sVfeaturesets
p103
(lp104
Vnone
p105
ag15
ass(Vbase
p106
g5
tp107
(dp108
Vkernel-arch
p109
Vx86
p110
sVfeaturesets
p111
(lp112
g105
ag6
ass(Vrelations
p113
tp114
(dp115
Vgcc-6
p116
Vgcc-6
p117
sVinitramfs-fallback
p118
Vlinux-initramfs-tool
p119
sVinitramfs-tools
p120
Vinitramfs-tools (>= 0.121~)
p121
ss(Vdescription
p122
g5
NVaptosid-amd64
p123
tp124
(dp125
Vhardware
p126
V64-bit PCs
p127
sVhardware-long
p128
VPCs with AMD64 or Intel 64 processors
p129
ss(Vbase
p130
tp131
(dp132
Varches
p133
(lp134
Vamd64
p135
aVi386
p136
asVfeaturesets
p137
(lp138
Vnone
p139
asVcompiler
p140
Vgcc-6
p141
ss(Vimage
p142
g5
tp143
(dp144
Vinstall-stem
p145
Vvmlinuz
p146
sVsuggests
p147
Vcrda
p148
sVbootloaders
p149
(lp150
Vgrub-pc
p151
aVextlinux
p152
aVgrub-efi-amd64
p153
asVbreaks
p154
Vxserver-xorg-input-vmmouse (<< 1:13.0.99)
p155
sstp156
Rp157
.