ccopy_reg
_reconstructor
p0
(cdebian_linux.config
ConfigCore
p1
c__builtin__
dict
p2
(dp3
(Vabi
p4
tp5
(dp6
Vabiname
p7
V0.slh.2
p8
ss(Vdescription
p9
Vamd64
p10
NVaptosid-amd64
p11
tp12
(dp13
Vhardware
p14
V64-bit PCs
p15
sVhardware-long
p16
VPCs with AMD64 or Intel 64 processors
p17
ss(Vbase
p18
g10
Vnone
p19
tp20
(dp21
Vimplicit-flavour
p22
I01
sVflavours
p23
(lp24
Vaptosid-amd64
p25
ass(Vbase
p26
tp27
(dp28
Vcompiler
p29
Vgcc-5
p30
sVarches
p31
(lp32
Vamd64
p33
aVi386
p34
asVfeaturesets
p35
(lp36
Vnone
p37
ass(Vversion
p38
tp39
(dp40
Vabiname
p41
V4.3.0-0.slh.2
p42
sVabiname_base
p43
V4.3.0
p44
sVsource
p45
V4.3-2
p46
sVupstream
p47
V4.3
p48
ss(Vbuild
p49
g10
tp50
(dp51
Vimage-file
p52
Varch/x86/boot/bzImage
p53
sVdebug-info
p54
I00
ss(Vxen
p55
g10
g19
Vaptosid-amd64
p56
tp57
(dp58
Vflavours
p59
(lp60
Vaptosid-amd64
p61
ass(Vimage
p62
g10
NVaptosid-amd64
p63
tp64
(dp65
Vconfigs
p66
(lp67
Vkernelarch-x86/config-arch-64
p68
ass(Vimage
p69
Vi386
p70
tp71
(dp72
Vsuggests
p73
Vcrda
p74
sVbootloaders
p75
(lp76
Vgrub-pc
p77
aVextlinux
p78
aVgrub-efi-ia32
p79
asVconfigs
p80
(lp81
sVinstall-stem
p82
Vvmlinuz
p83
ss(Vimage
p84
g70
NVaptosid-686
p85
tp86
(dp87
Vconfigs
p88
(lp89
Vkernelarch-x86/config-arch-32
p90
asVrecommends
p91
Vlibc6-i686
p92
ss(Vdescription
p93
g10
g19
Vaptosid-amd64
p94
tp95
(dp96
Vparts
p97
(lp98
Vxen
p99
ass(Vimage
p100
tp101
(dp102
Vtype
p103
Vplain
p104
sVinitramfs-generators
p105
(lp106
Vinitramfs-tools
p107
aVinitramfs-fallback
p108
ass(Vimage
p109
g10
tp110
(dp111
Vsuggests
p112
Vcrda
p113
sVbootloaders
p114
(lp115
Vgrub-pc
p116
aVextlinux
p117
aVgrub-efi-amd64
p118
asVconfigs
p119
(lp120
sVinstall-stem
p121
Vvmlinuz
p122
ss(Vdescription
p123
g70
NVaptosid-686
p124
tp125
(dp126
Vhardware
p127
Vmodern PCs
p128
sVhardware-long
p129
VPCs with Intel Pentium Pro/II/III/4/4M/D/M, Xeon, Celeron, Core or Atom; AMD Geode LX/NX, Athlon (K7), Duron, Opteron, Sempron, Turion or Phenom; Transmeta Efficeon; VIA C3 "Nehemiah" or C7 processors
p130
ss(Vdescription
p131
tp132
(dp133
Vpart-long-xen
p134
VThis kernel also runs on a Xen hypervisor.\u000aIt supports both privileged (dom0) and unprivileged (domU) operation.
p135
sVpart-long-up
p136
VThis kernel is not suitable for SMP (multi-processor,\u000amulti-core or hyper-threaded) systems.
p137
ss(Vbuild
p138
g70
tp139
(dp140
Vimage-file
p141
Varch/x86/boot/bzImage
p142
sVdebug-info
p143
I00
ss(Vbase
p144
g10
tp145
(dp146
Vkernel-arch
p147
Vx86
p148
sVfeaturesets
p149
(lp150
Vnone
p151
ag19
ass(Vbase
p152
g70
tp153
(dp154
Vkernel-arch
p155
Vx86
p156
sVfeaturesets
p157
(lp158
g151
aVnone
p159
ass(Vrelations
p160
tp161
(dp162
Vinitramfs-fallback
p163
Vlinux-initramfs-tool
p164
sVinitramfs-tools
p165
Vinitramfs-tools (>= 0.118+c0.aptosid.1~)
p166
sVgcc-5
p167
Vgcc-5
p168
ss(Vbase
p169
g70
g159
tp170
(dp171
g22
I01
sg23
(lp172
Vaptosid-686
p173
asstp174
Rp175
.