ccopy_reg
_reconstructor
p0
(cdebian_linux.config
ConfigCore
p1
c__builtin__
dict
p2
(dp3
(Vimage
p4
Vamd64
p5
tp6
(dp7
Vsuggests
p8
Vcrda
p9
sVinstall-stem
p10
Vvmlinuz
p11
sVconfigs
p12
(lp13
sVbootloaders
p14
(lp15
Vgrub-pc
p16
aVextlinux
p17
aVgrub-efi-amd64
p18
ass(Vdescription
p19
tp20
(dp21
Vpart-long-up
p22
VThis kernel is not suitable for SMP (multi-processor,\u000amulti-core or hyper-threaded) systems.
p23
sVpart-long-xen
p24
VThis kernel also runs on a Xen hypervisor.\u000aIt supports both privileged (dom0) and unprivileged (domU) operation.
p25
ss(Vrelations
p26
tp27
(dp28
Vgcc-5
p29
Vgcc-5
p30
sVinitramfs-fallback
p31
Vlinux-initramfs-tool
p32
sVinitramfs-tools
p33
Vinitramfs-tools (>= 0.118+c0.aptosid.1~)
p34
ss(Vversion
p35
tp36
(dp37
Vsource
p38
V4.5-4
p39
sVupstream
p40
V4.5
p41
sVabiname
p42
V4.5.0-1.slh.1
p43
sVabiname_base
p44
V4.5.0
p45
ss(Vbase
p46
g5
tp47
(dp48
Vfeaturesets
p49
(lp50
Vnone
p51
aVnone
p52
asVkernel-arch
p53
Vx86
p54
ss(Vbase
p55
g5
g52
tp56
(dp57
Vimplicit-flavour
p58
I01
sVflavours
p59
(lp60
Vaptosid-amd64
p61
ass(Vdescription
p62
Vi386
p63
NVaptosid-686
p64
tp65
(dp66
Vhardware-long
p67
VPCs with Intel Pentium Pro/II/III/4/4M/D/M, Xeon, Celeron, Core or Atom; AMD Geode LX/NX, Athlon (K7), Duron, Opteron, Sempron, Turion or Phenom; Transmeta Efficeon; VIA C3 "Nehemiah" or C7 processors
p68
sVhardware
p69
Vmodern PCs
p70
ss(Vbuild
p71
g5
tp72
(dp73
Vdebug-info
p74
I00
sVimage-file
p75
Varch/x86/boot/bzImage
p76
ss(Vdescription
p77
g5
NVaptosid-amd64
p78
tp79
(dp80
Vhardware-long
p81
VPCs with AMD64 or Intel 64 processors
p82
sVhardware
p83
V64-bit PCs
p84
ss(Vbase
p85
g63
Vnone
p86
tp87
(dp88
g58
I01
sg59
(lp89
Vaptosid-686
p90
ass(Vimage
p91
tp92
(dp93
Vtype
p94
Vplain
p95
sVinitramfs-generators
p96
(lp97
Vinitramfs-tools
p98
aVinitramfs-fallback
p99
ass(Vbase
p100
tp101
(dp102
Vcompiler
p103
Vgcc-5
p104
sVfeaturesets
p105
(lp106
Vnone
p107
asVarches
p108
(lp109
Vamd64
p110
aVi386
p111
ass(Vdescription
p112
g5
g52
Vaptosid-amd64
p113
tp114
(dp115
Vparts
p116
(lp117
Vxen
p118
ass(Vimage
p119
g63
tp120
(dp121
Vsuggests
p122
Vcrda
p123
sVinstall-stem
p124
Vvmlinuz
p125
sVconfigs
p126
(lp127
sVbootloaders
p128
(lp129
Vgrub-pc
p130
aVextlinux
p131
aVgrub-efi-ia32
p132
ass(Vbuild
p133
g63
tp134
(dp135
Vdebug-info
p136
I00
sVimage-file
p137
Varch/x86/boot/bzImage
p138
ss(Vimage
p139
g5
NVaptosid-amd64
p140
tp141
(dp142
Vconfigs
p143
(lp144
Vkernelarch-x86/config-arch-64
p145
ass(Vbase
p146
g63
tp147
(dp148
Vfeaturesets
p149
(lp150
g51
ag86
asVkernel-arch
p151
Vx86
p152
ss(Vxen
p153
g5
g52
Vaptosid-amd64
p154
tp155
(dp156
Vflavours
p157
(lp158
Vaptosid-amd64
p159
ass(Vimage
p160
g63
NVaptosid-686
p161
tp162
(dp163
Vrecommends
p164
Vlibc6-i686
p165
sVconfigs
p166
(lp167
Vkernelarch-x86/config-arch-32
p168
ass(Vabi
p169
tp170
(dp171
Vabiname
p172
V1.slh.1
p173
sstp174
Rp175
.