ccopy_reg
_reconstructor
p0
(cdebian_linux.config
ConfigCore
p1
c__builtin__
dict
p2
(dp3
(Vdescription
p4
Vamd64
p5
Vnone
p6
Vaptosid-amd64
p7
tp8
(dp9
Vparts
p10
(lp11
Vxen
p12
ass(Vbase
p13
tp14
(dp15
Vcompiler
p16
Vgcc-6
p17
sVarches
p18
(lp19
Vamd64
p20
aVi386
p21
asVfeaturesets
p22
(lp23
Vnone
p24
ass(Vimage
p25
g5
tp26
(dp27
Vbootloaders
p28
(lp29
Vgrub-pc
p30
aVextlinux
p31
aVgrub-efi-amd64
p32
asVinstall-stem
p33
Vvmlinuz
p34
sVsuggests
p35
Vcrda
p36
sVbreaks
p37
Vxserver-xorg-input-vmmouse (<< 1:13.0.99)
p38
ss(Vbase
p39
Vi386
p40
tp41
(dp42
Vkernel-arch
p43
Vx86
p44
sVfeaturesets
p45
(lp46
Vnone
p47
aVnone
p48
ass(Vabi
p49
tp50
(dp51
Vabiname
p52
V5.slh.1
p53
ss(Vbase
p54
g5
g6
tp55
(dp56
Vflavours
p57
(lp58
Vaptosid-amd64
p59
asVimplicit-flavour
p60
I01
ss(Vxen
p61
g5
g6
Vaptosid-amd64
p62
tp63
(dp64
Vflavours
p65
(lp66
Vaptosid-amd64
p67
ass(Vversion
p68
tp69
(dp70
Vsource
p71
V4.8-9
p72
sVupstream
p73
V4.8
p74
sVabiname_base
p75
V4.8.0
p76
sVabiname
p77
V4.8.0-5.slh.1
p78
ss(Vbuild
p79
g40
tp80
(dp81
Vimage-file
p82
Varch/x86/boot/bzImage
p83
sVdebug-info
p84
I00
ss(Vbase
p85
g40
g48
tp86
(dp87
g57
(lp88
Vaptosid-686
p89
asg60
I01
ss(Vbuild
p90
g5
tp91
(dp92
Vimage-file
p93
Varch/x86/boot/bzImage
p94
sVdebug-info
p95
I00
ss(Vdescription
p96
g5
NVaptosid-amd64
p97
tp98
(dp99
Vhardware-long
p100
VPCs with AMD64 or Intel 64 processors
p101
sVhardware
p102
V64-bit PCs
p103
ss(Vrelations
p104
tp105
(dp106
Vinitramfs-tools
p107
Vinitramfs-tools (>= 0.121~)
p108
sVinitramfs-fallback
p109
Vlinux-initramfs-tool
p110
sVgcc-6
p111
Vgcc-6
p112
ss(Vdescription
p113
g40
NVaptosid-686
p114
tp115
(dp116
Vhardware-long
p117
VPCs with Intel Pentium Pro/II/III/4/4M/D/M, Xeon, Celeron, Core or Atom; AMD Geode LX/NX, Athlon (K7), Duron, Opteron, Sempron, Turion or Phenom; Transmeta Efficeon; VIA C3 "Nehemiah" or C7 processors
p118
sVhardware
p119
Vmodern PCs
p120
ss(Vbase
p121
g5
tp122
(dp123
Vkernel-arch
p124
Vx86
p125
sVfeaturesets
p126
(lp127
g47
ag6
ass(Vimage
p128
tp129
(dp130
Vinitramfs-generators
p131
(lp132
Vinitramfs-tools
p133
aVinitramfs-fallback
p134
ass(Vimage
p135
g40
tp136
(dp137
Vbootloaders
p138
(lp139
Vgrub-pc
p140
aVextlinux
p141
aVgrub-efi-ia32
p142
asVinstall-stem
p143
Vvmlinuz
p144
sVsuggests
p145
Vcrda
p146
sVbreaks
p147
Vxserver-xorg-input-vmmouse (<< 1:13.0.99)
p148
ss(Vdescription
p149
tp150
(dp151
Vpart-long-up
p152
VThis kernel is not suitable for SMP (multi-processor,\u000amulti-core or hyper-threaded) systems.
p153
sVpart-long-xen
p154
VThis kernel also runs on a Xen hypervisor.\u000aIt supports both privileged (dom0) and unprivileged (domU) operation.
p155
sstp156
Rp157
.