ccopy_reg
_reconstructor
p0
(cdebian_linux.config
ConfigCore
p1
c__builtin__
dict
p2
(dp3
(S'image'
p4
S'amd64'
p5
NS'aptosid-amd64'
p6
tp7
(dp8
S'configs'
p9
(lp10
S'kernelarch-x86/config-arch-64'
p11
ass(S'image'
p12
g5
tp13
(dp14
S'install-stem'
p15
S'vmlinuz'
p16
sS'configs'
p17
(lp18
sS'bootloaders'
p19
(lp20
S'grub-pc'
p21
aS'extlinux'
p22
aS'grub-efi-amd64'
p23
asS'suggests'
p24
S'crda'
p25
ss(S'description'
p26
g5
NS'aptosid-amd64'
p27
tp28
(dp29
S'hardware'
p30
S'64-bit PCs'
p31
sS'hardware-long'
p32
S'PCs with AMD64 or Intel 64 processors'
p33
ss(S'base'
p34
g5
S'none'
p35
tp36
(dp37
S'implicit-flavour'
p38
I01
sS'flavours'
p39
(lp40
S'aptosid-amd64'
p41
ass(S'xen'
p42
g5
g35
S'aptosid-amd64'
p43
tp44
(dp45
S'flavours'
p46
(lp47
S'aptosid-amd64'
p48
ass(S'base'
p49
g5
tp50
(dp51
S'kernel-arch'
p52
S'x86'
p53
sS'featuresets'
p54
(lp55
S'none'
p56
ag35
ass(S'image'
p57
tp58
(dp59
S'initramfs-generators'
p60
(lp61
S'initramfs-tools'
p62
aS'initramfs-fallback'
p63
asS'type'
p64
S'plain'
p65
ss(S'version'
p66
tp67
(dp68
S'abiname'
p69
S'3.18.0-6.slh.2'
p70
sS'source'
p71
V3.18-22
p72
sS'upstream'
p73
S'3.18'
p74
ss(S'description'
p75
g5
g35
S'aptosid-amd64'
p76
tp77
(dp78
S'parts'
p79
(lp80
S'xen'
p81
ass(S'base'
p82
S'i386'
p83
tp84
(dp85
S'kernel-arch'
p86
S'x86'
p87
sS'featuresets'
p88
(lp89
g56
aS'none'
p90
ass(S'description'
p91
g83
NS'aptosid-686'
p92
tp93
(dp94
S'hardware'
p95
S'modern PCs'
p96
sS'hardware-long'
p97
S'PCs with Intel Pentium Pro/II/III/4/4M/D/M, Xeon, Celeron, Core or Atom; AMD Geode LX/NX, Athlon (K7), Duron, Opteron, Sempron, Turion or Phenom; Transmeta Efficeon; VIA C3 "Nehemiah" or C7 processors'
p98
ss(S'base'
p99
tp100
(dp101
S'arches'
p102
(lp103
S'amd64'
p104
aS'i386'
p105
asS'featuresets'
p106
(lp107
S'none'
p108
asS'compiler'
p109
S'gcc-4.9'
p110
ss(S'base'
p111
g83
g90
tp112
(dp113
g38
I01
sg39
(lp114
S'aptosid-686'
p115
ass(S'abi'
p116
tp117
(dp118
S'abiname'
p119
S'6.slh.2'
p120
ss(S'image'
p121
g83
tp122
(dp123
S'install-stem'
p124
S'vmlinuz'
p125
sS'configs'
p126
(lp127
sS'bootloaders'
p128
(lp129
S'grub-pc'
p130
aS'extlinux'
p131
aS'grub-efi-ia32'
p132
asS'suggests'
p133
S'crda'
p134
ss(S'description'
p135
tp136
(dp137
S'part-long-up'
p138
S'This kernel is not suitable for SMP (multi-processor,\nmulti-core or hyper-threaded) systems.'
p139
sS'part-long-xen'
p140
S'This kernel also runs on a Xen hypervisor.\nIt supports both privileged (dom0) and unprivileged (domU) operation.'
p141
ss(S'build'
p142
g5
tp143
(dp144
S'debug-info'
p145
I00
sS'image-file'
p146
S'arch/x86/boot/bzImage'
p147
ss(S'image'
p148
g83
NS'aptosid-686'
p149
tp150
(dp151
S'configs'
p152
(lp153
S'kernelarch-x86/config-arch-32'
p154
asS'recommends'
p155
S'libc6-i686'
p156
ss(S'build'
p157
g83
tp158
(dp159
S'debug-info'
p160
I00
sS'image-file'
p161
S'arch/x86/boot/bzImage'
p162
ss(S'relations'
p163
tp164
(dp165
S'initramfs-fallback'
p166
S'linux-initramfs-tool'
p167
sS'gcc-4.9'
p168
S'gcc-4.9'
p169
sS'initramfs-tools'
p170
S'initramfs-tools (>= 0.118+c0.aptosid.1~)'
p171
sstp172
Rp173
.