ccopy_reg
_reconstructor
p0
(cdebian_linux.config
ConfigCore
p1
c__builtin__
dict
p2
(dp3
(Vbase
p4
Vamd64
p5
Vnone
p6
tp7
(dp8
Vimplicit-flavour
p9
I01
sVflavours
p10
(lp11
Vaptosid-amd64
p12
ass(Vabi
p13
tp14
(dp15
Vabiname
p16
V2.slh.1
p17
ss(Vimage
p18
tp19
(dp20
Vtype
p21
Vplain
p22
sVinitramfs-generators
p23
(lp24
Vinitramfs-tools
p25
aVinitramfs-fallback
p26
ass(Vbase
p27
tp28
(dp29
Vfeaturesets
p30
(lp31
Vnone
p32
asVcompiler
p33
Vgcc-5
p34
sVarches
p35
(lp36
Vamd64
p37
aVi386
p38
ass(Vbuild
p39
Vi386
p40
tp41
(dp42
Vimage-file
p43
Varch/x86/boot/bzImage
p44
sVdebug-info
p45
I00
ss(Vimage
p46
g40
NVaptosid-686
p47
tp48
(dp49
Vconfigs
p50
(lp51
Vkernelarch-x86/config-arch-32
p52
asVrecommends
p53
Vlibc6-i686
p54
ss(Vxen
p55
g5
g6
Vaptosid-amd64
p56
tp57
(dp58
Vflavours
p59
(lp60
Vaptosid-amd64
p61
ass(Vdescription
p62
g40
NVaptosid-686
p63
tp64
(dp65
Vhardware
p66
Vmodern PCs
p67
sVhardware-long
p68
VPCs with Intel Pentium Pro/II/III/4/4M/D/M, Xeon, Celeron, Core or Atom; AMD Geode LX/NX, Athlon (K7), Duron, Opteron, Sempron, Turion or Phenom; Transmeta Efficeon; VIA C3 "Nehemiah" or C7 processors
p69
ss(Vbase
p70
g5
tp71
(dp72
Vfeaturesets
p73
(lp74
Vnone
p75
ag6
asVkernel-arch
p76
Vx86
p77
ss(Vdescription
p78
g5
NVaptosid-amd64
p79
tp80
(dp81
Vhardware
p82
V64-bit PCs
p83
sVhardware-long
p84
VPCs with AMD64 or Intel 64 processors
p85
ss(Vbase
p86
g40
tp87
(dp88
Vfeaturesets
p89
(lp90
g75
aVnone
p91
asVkernel-arch
p92
Vx86
p93
ss(Vdescription
p94
tp95
(dp96
Vpart-long-xen
p97
VThis kernel also runs on a Xen hypervisor.\u000aIt supports both privileged (dom0) and unprivileged (domU) operation.
p98
sVpart-long-up
p99
VThis kernel is not suitable for SMP (multi-processor,\u000amulti-core or hyper-threaded) systems.
p100
ss(Vbuild
p101
g5
tp102
(dp103
Vimage-file
p104
Varch/x86/boot/bzImage
p105
sVdebug-info
p106
I00
ss(Vversion
p107
tp108
(dp109
Vabiname
p110
V4.5.0-2.slh.1
p111
sVupstream
p112
V4.5
p113
sVsource
p114
V4.5-7
p115
sVabiname_base
p116
V4.5.0
p117
ss(Vrelations
p118
tp119
(dp120
Vinitramfs-tools
p121
Vinitramfs-tools (>= 0.121~)
p122
sVinitramfs-fallback
p123
Vlinux-initramfs-tool
p124
sVgcc-5
p125
Vgcc-5
p126
ss(Vimage
p127
g40
tp128
(dp129
Vsuggests
p130
Vcrda
p131
sVconfigs
p132
(lp133
sVinstall-stem
p134
Vvmlinuz
p135
sVbootloaders
p136
(lp137
Vgrub-pc
p138
aVextlinux
p139
aVgrub-efi-ia32
p140
ass(Vbase
p141
g40
g91
tp142
(dp143
g9
I01
sg10
(lp144
Vaptosid-686
p145
ass(Vdescription
p146
g5
g6
Vaptosid-amd64
p147
tp148
(dp149
Vparts
p150
(lp151
Vxen
p152
ass(Vimage
p153
g5
NVaptosid-amd64
p154
tp155
(dp156
Vconfigs
p157
(lp158
Vkernelarch-x86/config-arch-64
p159
ass(Vimage
p160
g5
tp161
(dp162
Vsuggests
p163
Vcrda
p164
sVconfigs
p165
(lp166
sVinstall-stem
p167
Vvmlinuz
p168
sVbootloaders
p169
(lp170
Vgrub-pc
p171
aVextlinux
p172
aVgrub-efi-amd64
p173
asstp174
Rp175
.