ccopy_reg
_reconstructor
p0
(cdebian_linux.config
ConfigCore
p1
c__builtin__
dict
p2
(dp3
(Vbuild
p4
Vamd64
p5
tp6
(dp7
Vimage-file
p8
Varch/x86/boot/bzImage
p9
sVdebug-info
p10
I00
ss(Vbase
p11
g5
Vnone
p12
tp13
(dp14
Vflavours
p15
(lp16
Vaptosid-amd64
p17
asVimplicit-flavour
p18
I01
ss(Vbase
p19
Vi386
p20
tp21
(dp22
Vfeaturesets
p23
(lp24
Vnone
p25
aVnone
p26
asVkernel-arch
p27
Vx86
p28
ss(Vversion
p29
tp30
(dp31
Vsource
p32
V4.12-19
p33
sVabiname_base
p34
V4.12.0
p35
sVabiname
p36
V4.12.0-9.slh.2
p37
sVupstream
p38
V4.12
p39
ss(Vimage
p40
g20
tp41
(dp42
Vsuggests
p43
Vcrda
p44
sVbreaks
p45
Vxserver-xorg-input-vmmouse (<< 1:13.0.99)
p46
sVbootloaders
p47
(lp48
Vgrub-pc
p49
aVextlinux
p50
aVgrub-efi-ia32
p51
asVinstall-stem
p52
Vvmlinuz
p53
ss(Vbase
p54
tp55
(dp56
Vfeaturesets
p57
(lp58
Vnone
p59
asVcompiler
p60
Vgcc-7
p61
sVarches
p62
(lp63
Vamd64
p64
aVi386
p65
ass(Vdescription
p66
g5
NVaptosid-amd64
p67
tp68
(dp69
Vhardware-long
p70
VPCs with AMD64 or Intel 64 processors
p71
sVhardware
p72
V64-bit PCs
p73
ss(Vdescription
p74
tp75
(dp76
Vpart-long-xen
p77
VThis kernel also runs on a Xen hypervisor.\u000aIt supports both privileged (dom0) and unprivileged (domU) operation.
p78
sVpart-long-up
p79
VThis kernel is not suitable for SMP (multi-processor,\u000amulti-core or hyper-threaded) systems.
p80
ss(Vbase
p81
g5
tp82
(dp83
Vfeaturesets
p84
(lp85
g25
ag12
asVkernel-arch
p86
Vx86
p87
ss(Vbase
p88
g20
g26
tp89
(dp90
g15
(lp91
Vaptosid-686
p92
asg18
I01
ss(Vrelations
p93
tp94
(dp95
Vgcc-7
p96
Vgcc-7
p97
sVinitramfs-tools
p98
Vinitramfs-tools (>= 0.121~)
p99
sVinitramfs-fallback
p100
Vlinux-initramfs-tool
p101
ss(Vabi
p102
tp103
(dp104
Vabiname
p105
V9.slh.2
p106
ss(Vbuild
p107
g20
tp108
(dp109
Vimage-file
p110
Varch/x86/boot/bzImage
p111
sVdebug-info
p112
I00
ss(Vdescription
p113
g20
NVaptosid-686
p114
tp115
(dp116
Vhardware-long
p117
VPCs with Intel Pentium Pro/II/III/4/4M/D/M, Xeon, Celeron, Core or Atom; AMD Geode LX/NX, Athlon (K7), Duron, Opteron, Sempron, Turion or Phenom; Transmeta Efficeon; VIA C3 "Nehemiah" or C7 processors
p118
sVhardware
p119
Vmodern PCs
p120
ss(Vimage
p121
tp122
(dp123
Vinitramfs-generators
p124
(lp125
Vinitramfs-tools
p126
aVinitramfs-fallback
p127
ass(Vimage
p128
g5
tp129
(dp130
Vsuggests
p131
Vcrda
p132
sVbreaks
p133
Vxserver-xorg-input-vmmouse (<< 1:13.0.99)
p134
sVbootloaders
p135
(lp136
Vgrub-pc
p137
aVextlinux
p138
aVgrub-efi-amd64
p139
asVinstall-stem
p140
Vvmlinuz
p141
ss(Vdescription
p142
g5
g12
Vaptosid-amd64
p143
tp144
(dp145
Vparts
p146
(lp147
Vxen
p148
asstp149
Rp150
.