ccopy_reg
_reconstructor
p0
(cdebian_linux.config
ConfigCore
p1
c__builtin__
dict
p2
(dp3
(Vdescription
p4
Vamd64
p5
Vnone
p6
Vaptosid-amd64
p7
tp8
(dp9
Vparts
p10
(lp11
Vxen
p12
ass(Vabi
p13
tp14
(dp15
Vabiname
p16
V10.slh.1
p17
ss(Vimage
p18
Vi386
p19
tp20
(dp21
Vbreaks
p22
Vxserver-xorg-input-vmmouse (<< 1:13.0.99)
p23
sVbootloaders
p24
(lp25
Vgrub-pc
p26
aVextlinux
p27
aVgrub-efi-ia32
p28
asVinstall-stem
p29
Vvmlinuz
p30
sVsuggests
p31
Vcrda
p32
ss(Vbase
p33
g19
Vnone
p34
tp35
(dp36
Vimplicit-flavour
p37
I01
sVflavours
p38
(lp39
Vaptosid-686
p40
ass(Vdescription
p41
tp42
(dp43
Vpart-long-up
p44
VThis kernel is not suitable for SMP (multi-processor,\u000amulti-core or hyper-threaded) systems.
p45
sVpart-long-xen
p46
VThis kernel also runs on a Xen hypervisor.\u000aIt supports both privileged (dom0) and unprivileged (domU) operation.
p47
ss(Vimage
p48
tp49
(dp50
Vinitramfs-generators
p51
(lp52
Vinitramfs-tools
p53
aVinitramfs-fallback
p54
ass(Vdescription
p55
g5
NVaptosid-amd64
p56
tp57
(dp58
Vhardware
p59
V64-bit PCs
p60
sVhardware-long
p61
VPCs with AMD64 or Intel 64 processors
p62
ss(Vimage
p63
g5
tp64
(dp65
Vbreaks
p66
Vxserver-xorg-input-vmmouse (<< 1:13.0.99)
p67
sVbootloaders
p68
(lp69
Vgrub-pc
p70
aVextlinux
p71
aVgrub-efi-amd64
p72
asVinstall-stem
p73
Vvmlinuz
p74
sVsuggests
p75
Vcrda
p76
ss(Vbase
p77
tp78
(dp79
Varches
p80
(lp81
Vamd64
p82
aVi386
p83
asVcompiler
p84
Vgcc-6
p85
sVfeaturesets
p86
(lp87
Vnone
p88
ass(Vxen
p89
g5
g6
Vaptosid-amd64
p90
tp91
(dp92
Vflavours
p93
(lp94
Vaptosid-amd64
p95
ass(Vrelations
p96
tp97
(dp98
Vinitramfs-fallback
p99
Vlinux-initramfs-tool
p100
sVgcc-6
p101
Vgcc-6
p102
sVinitramfs-tools
p103
Vinitramfs-tools (>= 0.121~)
p104
ss(Vbuild
p105
g5
tp106
(dp107
Vdebug-info
p108
I00
sVimage-file
p109
Varch/x86/boot/bzImage
p110
ss(Vbase
p111
g5
tp112
(dp113
Vkernel-arch
p114
Vx86
p115
sVfeaturesets
p116
(lp117
Vnone
p118
ag6
ass(Vversion
p119
tp120
(dp121
Vsource
p122
V4.8-14
p123
sVabiname
p124
V4.8.0-10.slh.1
p125
sVabiname_base
p126
V4.8.0
p127
sVupstream
p128
V4.8
p129
ss(Vbuild
p130
g19
tp131
(dp132
Vdebug-info
p133
I00
sVimage-file
p134
Varch/x86/boot/bzImage
p135
ss(Vdescription
p136
g19
NVaptosid-686
p137
tp138
(dp139
Vhardware
p140
Vmodern PCs
p141
sVhardware-long
p142
VPCs with Intel Pentium Pro/II/III/4/4M/D/M, Xeon, Celeron, Core or Atom; AMD Geode LX/NX, Athlon (K7), Duron, Opteron, Sempron, Turion or Phenom; Transmeta Efficeon; VIA C3 "Nehemiah" or C7 processors
p143
ss(Vbase
p144
g5
g6
tp145
(dp146
g37
I01
sg38
(lp147
Vaptosid-amd64
p148
ass(Vbase
p149
g19
tp150
(dp151
Vkernel-arch
p152
Vx86
p153
sVfeaturesets
p154
(lp155
g118
ag34
asstp156
Rp157
.