ccopy_reg
_reconstructor
p0
(cdebian_linux.config
ConfigCore
p1
c__builtin__
dict
p2
(dp3
(Vdescription
p4
tp5
(dp6
Vpart-long-xen
p7
VThis kernel also runs on a Xen hypervisor.\u000aIt supports both privileged (dom0) and unprivileged (domU) operation.
p8
sVpart-long-up
p9
VThis kernel is not suitable for SMP (multi-processor,\u000amulti-core or hyper-threaded) systems.
p10
ss(Vimage
p11
Vamd64
p12
tp13
(dp14
Vsuggests
p15
Vcrda
p16
sVbreaks
p17
Vxserver-xorg-input-vmmouse (<< 1:13.0.99)
p18
sVinstall-stem
p19
Vvmlinuz
p20
sVbootloaders
p21
(lp22
Vgrub-pc
p23
aVextlinux
p24
aVgrub-efi-amd64
p25
ass(Vrelations
p26
tp27
(dp28
Vgcc-7
p29
Vgcc-7
p30
sVinitramfs-tools
p31
Vinitramfs-tools (>= 0.121~)
p32
sVinitramfs-fallback
p33
Vlinux-initramfs-tool
p34
ss(Vbase
p35
tp36
(dp37
Vcompiler
p38
Vgcc-7
p39
sVfeaturesets
p40
(lp41
Vnone
p42
asVarches
p43
(lp44
Vamd64
p45
aVi386
p46
ass(Vimage
p47
Vi386
p48
tp49
(dp50
Vsuggests
p51
Vcrda
p52
sVbreaks
p53
Vxserver-xorg-input-vmmouse (<< 1:13.0.99)
p54
sVinstall-stem
p55
Vvmlinuz
p56
sVbootloaders
p57
(lp58
Vgrub-pc
p59
aVextlinux
p60
aVgrub-efi-ia32
p61
ass(Vdescription
p62
g12
Vnone
p63
Vaptosid-amd64
p64
tp65
(dp66
Vparts
p67
(lp68
Vxen
p69
ass(Vdescription
p70
g12
NVaptosid-amd64
p71
tp72
(dp73
Vhardware
p74
V64-bit PCs
p75
sVhardware-long
p76
VPCs with AMD64 or Intel 64 processors
p77
ss(Vbase
p78
g48
tp79
(dp80
Vfeaturesets
p81
(lp82
Vnone
p83
aVnone
p84
asVkernel-arch
p85
Vx86
p86
ss(Vbase
p87
g12
g63
tp88
(dp89
Vimplicit-flavour
p90
I01
sVflavours
p91
(lp92
Vaptosid-amd64
p93
ass(Vbuild
p94
g48
tp95
(dp96
Vimage-file
p97
Varch/x86/boot/bzImage
p98
sVdebug-info
p99
I00
ss(Vbase
p100
g12
tp101
(dp102
Vfeaturesets
p103
(lp104
g83
ag63
asVkernel-arch
p105
Vx86
p106
ss(Vimage
p107
tp108
(dp109
Vinitramfs-generators
p110
(lp111
Vinitramfs-tools
p112
aVinitramfs-fallback
p113
ass(Vbase
p114
g48
g84
tp115
(dp116
g90
I01
sg91
(lp117
Vaptosid-686
p118
ass(Vdescription
p119
g48
NVaptosid-686
p120
tp121
(dp122
Vhardware
p123
Vmodern PCs
p124
sVhardware-long
p125
VPCs with Intel Pentium Pro/II/III/4/4M/D/M, Xeon, Celeron, Core or Atom; AMD Geode LX/NX, Athlon (K7), Duron, Opteron, Sempron, Turion or Phenom; Transmeta Efficeon; VIA C3 "Nehemiah" or C7 processors
p126
ss(Vbuild
p127
g12
tp128
(dp129
Vimage-file
p130
Varch/x86/boot/bzImage
p131
sVdebug-info
p132
I00
ss(Vabi
p133
tp134
(dp135
Vabiname
p136
V1.slh.2
p137
ss(Vversion
p138
tp139
(dp140
Vupstream
p141
V4.13
p142
sVabiname
p143
V4.13.0-1.slh.2
p144
sVsource
p145
V4.13-4
p146
sVabiname_base
p147
V4.13.0
p148
sstp149
Rp150
.