ccopy_reg
_reconstructor
p0
(cdebian_linux.config
ConfigCore
p1
c__builtin__
dict
p2
(dp3
(Vdescription
p4
Vi386
p5
NVaptosid-686
p6
tp7
(dp8
Vhardware-long
p9
VPCs with Intel Pentium Pro/II/III/4/4M/D/M, Xeon, Celeron, Core or Atom; AMD Geode LX/NX, Athlon (K7), Duron, Opteron, Sempron, Turion or Phenom; Transmeta Efficeon; VIA C3 "Nehemiah" or C7 processors
p10
sVhardware
p11
Vmodern PCs
p12
ss(Vbuild
p13
Vamd64
p14
tp15
(dp16
Vdebug-info
p17
I00
sVimage-file
p18
Varch/x86/boot/bzImage
p19
ss(Vbuild
p20
g5
tp21
(dp22
Vdebug-info
p23
I00
sVimage-file
p24
Varch/x86/boot/bzImage
p25
ss(Vversion
p26
tp27
(dp28
Vsource
p29
V4.10-15
p30
sVupstream
p31
V4.10
p32
sVabiname_base
p33
V4.10.0
p34
sVabiname
p35
V4.10.0-9.slh.2
p36
ss(Vabi
p37
tp38
(dp39
Vabiname
p40
V9.slh.2
p41
ss(Vimage
p42
g5
tp43
(dp44
Vsuggests
p45
Vcrda
p46
sVinstall-stem
p47
Vvmlinuz
p48
sVbootloaders
p49
(lp50
Vgrub-pc
p51
aVextlinux
p52
aVgrub-efi-ia32
p53
asVbreaks
p54
Vxserver-xorg-input-vmmouse (<< 1:13.0.99)
p55
ss(Vrelations
p56
tp57
(dp58
Vinitramfs-fallback
p59
Vlinux-initramfs-tool
p60
sVinitramfs-tools
p61
Vinitramfs-tools (>= 0.121~)
p62
sVgcc-6
p63
Vgcc-6
p64
ss(Vimage
p65
tp66
(dp67
Vinitramfs-generators
p68
(lp69
Vinitramfs-tools
p70
aVinitramfs-fallback
p71
ass(Vbase
p72
g5
tp73
(dp74
Vfeaturesets
p75
(lp76
Vnone
p77
aVnone
p78
asVkernel-arch
p79
Vx86
p80
ss(Vbase
p81
g14
Vnone
p82
tp83
(dp84
Vimplicit-flavour
p85
I01
sVflavours
p86
(lp87
Vaptosid-amd64
p88
ass(Vdescription
p89
g14
NVaptosid-amd64
p90
tp91
(dp92
Vhardware-long
p93
VPCs with AMD64 or Intel 64 processors
p94
sVhardware
p95
V64-bit PCs
p96
ss(Vdescription
p97
tp98
(dp99
Vpart-long-up
p100
VThis kernel is not suitable for SMP (multi-processor,\u000amulti-core or hyper-threaded) systems.
p101
sVpart-long-xen
p102
VThis kernel also runs on a Xen hypervisor.\u000aIt supports both privileged (dom0) and unprivileged (domU) operation.
p103
ss(Vbase
p104
tp105
(dp106
Varches
p107
(lp108
Vamd64
p109
aVi386
p110
asVfeaturesets
p111
(lp112
Vnone
p113
asVcompiler
p114
Vgcc-6
p115
ss(Vdescription
p116
g14
g82
Vaptosid-amd64
p117
tp118
(dp119
Vparts
p120
(lp121
Vxen
p122
ass(Vbase
p123
g5
g78
tp124
(dp125
g85
I01
sg86
(lp126
Vaptosid-686
p127
ass(Vimage
p128
g14
tp129
(dp130
Vsuggests
p131
Vcrda
p132
sVinstall-stem
p133
Vvmlinuz
p134
sVbootloaders
p135
(lp136
Vgrub-pc
p137
aVextlinux
p138
aVgrub-efi-amd64
p139
asVbreaks
p140
Vxserver-xorg-input-vmmouse (<< 1:13.0.99)
p141
ss(Vbase
p142
g14
tp143
(dp144
Vfeaturesets
p145
(lp146
g77
ag82
asVkernel-arch
p147
Vx86
p148
sstp149
Rp150
.