ccopy_reg
_reconstructor
p0
(cdebian_linux.config
ConfigCore
p1
c__builtin__
dict
p2
(dp3
(Vbase
p4
Vamd64
p5
tp6
(dp7
Vkernel-arch
p8
Vx86
p9
sVfeaturesets
p10
(lp11
Vnone
p12
aVnone
p13
ass(Vdescription
p14
tp15
(dp16
Vpart-long-xen
p17
VThis kernel also runs on a Xen hypervisor.\u000aIt supports both privileged (dom0) and unprivileged (domU) operation.
p18
sVpart-long-up
p19
VThis kernel is not suitable for SMP (multi-processor,\u000amulti-core or hyper-threaded) systems.
p20
ss(Vdescription
p21
Vi386
p22
NVaptosid-686
p23
tp24
(dp25
Vhardware-long
p26
VPCs with Intel Pentium Pro/II/III/4/4M/D/M, Xeon, Celeron, Core or Atom; AMD Geode LX/NX, Athlon (K7), Duron, Opteron, Sempron, Turion or Phenom; Transmeta Efficeon; VIA C3 "Nehemiah" or C7 processors
p27
sVhardware
p28
Vmodern PCs
p29
ss(Vabi
p30
tp31
(dp32
Vabiname
p33
V13.slh.1
p34
ss(Vbase
p35
tp36
(dp37
Vfeaturesets
p38
(lp39
Vnone
p40
asVcompiler
p41
Vgcc-6
p42
sVarches
p43
(lp44
Vamd64
p45
aVi386
p46
ass(Vbase
p47
g22
tp48
(dp49
Vkernel-arch
p50
Vx86
p51
sVfeaturesets
p52
(lp53
g12
aVnone
p54
ass(Vbuild
p55
g22
tp56
(dp57
Vimage-file
p58
Varch/x86/boot/bzImage
p59
sVdebug-info
p60
I00
ss(Vversion
p61
tp62
(dp63
Vabiname_base
p64
V4.10.0
p65
sVupstream
p66
V4.10
p67
sVabiname
p68
V4.10.0-13.slh.1
p69
sVsource
p70
V4.10-19
p71
ss(Vdescription
p72
g5
NVaptosid-amd64
p73
tp74
(dp75
Vhardware-long
p76
VPCs with AMD64 or Intel 64 processors
p77
sVhardware
p78
V64-bit PCs
p79
ss(Vrelations
p80
tp81
(dp82
Vgcc-6
p83
Vgcc-6
p84
sVinitramfs-fallback
p85
Vlinux-initramfs-tool
p86
sVinitramfs-tools
p87
Vinitramfs-tools (>= 0.121~)
p88
ss(Vdescription
p89
g5
g13
Vaptosid-amd64
p90
tp91
(dp92
Vparts
p93
(lp94
Vxen
p95
ass(Vimage
p96
g22
tp97
(dp98
Vbootloaders
p99
(lp100
Vgrub-pc
p101
aVextlinux
p102
aVgrub-efi-ia32
p103
asVsuggests
p104
Vcrda
p105
sVbreaks
p106
Vxserver-xorg-input-vmmouse (<< 1:13.0.99)
p107
sVinstall-stem
p108
Vvmlinuz
p109
ss(Vimage
p110
tp111
(dp112
Vinitramfs-generators
p113
(lp114
Vinitramfs-tools
p115
aVinitramfs-fallback
p116
ass(Vbuild
p117
g5
tp118
(dp119
Vimage-file
p120
Varch/x86/boot/bzImage
p121
sVdebug-info
p122
I00
ss(Vbase
p123
g5
g13
tp124
(dp125
Vflavours
p126
(lp127
Vaptosid-amd64
p128
asVimplicit-flavour
p129
I01
ss(Vbase
p130
g22
g54
tp131
(dp132
g126
(lp133
Vaptosid-686
p134
asg129
I01
ss(Vimage
p135
g5
tp136
(dp137
Vbootloaders
p138
(lp139
Vgrub-pc
p140
aVextlinux
p141
aVgrub-efi-amd64
p142
asVsuggests
p143
Vcrda
p144
sVbreaks
p145
Vxserver-xorg-input-vmmouse (<< 1:13.0.99)
p146
sVinstall-stem
p147
Vvmlinuz
p148
sstp149
Rp150
.