ccopy_reg
_reconstructor
p0
(cdebian_linux.config
ConfigCore
p1
c__builtin__
dict
p2
(dp3
(Vbuild
p4
Vi386
p5
tp6
(dp7
Vimage-file
p8
Varch/x86/boot/bzImage
p9
sVdebug-info
p10
I00
ss(Vimage
p11
g5
NVaptosid-686
p12
tp13
(dp14
Vconfigs
p15
(lp16
Vkernelarch-x86/config-arch-32
p17
asVrecommends
p18
Vlibc6-i686
p19
ss(Vimage
p20
tp21
(dp22
Vtype
p23
Vplain
p24
sVinitramfs-generators
p25
(lp26
Vinitramfs-tools
p27
aVinitramfs-fallback
p28
ass(Vversion
p29
tp30
(dp31
Vsource
p32
V4.4-14
p33
sVabiname_base
p34
V4.4.0
p35
sVabiname
p36
V4.4.0-3.slh.2
p37
sVupstream
p38
V4.4
p39
ss(Vimage
p40
Vamd64
p41
tp42
(dp43
Vconfigs
p44
(lp45
sVsuggests
p46
Vcrda
p47
sVinstall-stem
p48
Vvmlinuz
p49
sVbootloaders
p50
(lp51
Vgrub-pc
p52
aVextlinux
p53
aVgrub-efi-amd64
p54
ass(Vbase
p55
g41
Vnone
p56
tp57
(dp58
Vimplicit-flavour
p59
I01
sVflavours
p60
(lp61
Vaptosid-amd64
p62
ass(Vbase
p63
g41
tp64
(dp65
Vfeaturesets
p66
(lp67
Vnone
p68
ag56
asVkernel-arch
p69
Vx86
p70
ss(Vimage
p71
g41
NVaptosid-amd64
p72
tp73
(dp74
Vconfigs
p75
(lp76
Vkernelarch-x86/config-arch-64
p77
ass(Vbuild
p78
g41
tp79
(dp80
Vimage-file
p81
Varch/x86/boot/bzImage
p82
sVdebug-info
p83
I00
ss(Vbase
p84
tp85
(dp86
Vfeaturesets
p87
(lp88
Vnone
p89
asVarches
p90
(lp91
Vamd64
p92
aVi386
p93
asVcompiler
p94
Vgcc-5
p95
ss(Vrelations
p96
tp97
(dp98
Vinitramfs-fallback
p99
Vlinux-initramfs-tool
p100
sVgcc-5
p101
Vgcc-5
p102
sVinitramfs-tools
p103
Vinitramfs-tools (>= 0.118+c0.aptosid.1~)
p104
ss(Vdescription
p105
tp106
(dp107
Vpart-long-up
p108
VThis kernel is not suitable for SMP (multi-processor,\u000amulti-core or hyper-threaded) systems.
p109
sVpart-long-xen
p110
VThis kernel also runs on a Xen hypervisor.\u000aIt supports both privileged (dom0) and unprivileged (domU) operation.
p111
ss(Vimage
p112
g5
tp113
(dp114
Vconfigs
p115
(lp116
sVsuggests
p117
Vcrda
p118
sVinstall-stem
p119
Vvmlinuz
p120
sVbootloaders
p121
(lp122
Vgrub-pc
p123
aVextlinux
p124
aVgrub-efi-ia32
p125
ass(Vdescription
p126
g41
g56
Vaptosid-amd64
p127
tp128
(dp129
Vparts
p130
(lp131
Vxen
p132
ass(Vdescription
p133
g5
NVaptosid-686
p134
tp135
(dp136
Vhardware
p137
Vmodern PCs
p138
sVhardware-long
p139
VPCs with Intel Pentium Pro/II/III/4/4M/D/M, Xeon, Celeron, Core or Atom; AMD Geode LX/NX, Athlon (K7), Duron, Opteron, Sempron, Turion or Phenom; Transmeta Efficeon; VIA C3 "Nehemiah" or C7 processors
p140
ss(Vbase
p141
g5
tp142
(dp143
Vfeaturesets
p144
(lp145
g68
aVnone
p146
asVkernel-arch
p147
Vx86
p148
ss(Vabi
p149
tp150
(dp151
Vabiname
p152
V3.slh.2
p153
ss(Vxen
p154
g41
g56
Vaptosid-amd64
p155
tp156
(dp157
Vflavours
p158
(lp159
Vaptosid-amd64
p160
ass(Vdescription
p161
g41
NVaptosid-amd64
p162
tp163
(dp164
Vhardware
p165
V64-bit PCs
p166
sVhardware-long
p167
VPCs with AMD64 or Intel 64 processors
p168
ss(Vbase
p169
g5
g146
tp170
(dp171
g59
I01
sg60
(lp172
Vaptosid-686
p173
asstp174
Rp175
.