ccopy_reg
_reconstructor
p0
(cdebian_linux.config
ConfigCore
p1
c__builtin__
dict
p2
(dp3
(Vdescription
p4
Vi386
p5
NVaptosid-686
p6
tp7
(dp8
Vhardware
p9
Vmodern PCs
p10
sVhardware-long
p11
VPCs with Intel Pentium Pro/II/III/4/4M/D/M, Xeon, Celeron, Core or Atom; AMD Geode LX/NX, Athlon (K7), Duron, Opteron, Sempron, Turion or Phenom; Transmeta Efficeon; VIA C3 "Nehemiah" or C7 processors
p12
ss(Vbuild
p13
Vamd64
p14
tp15
(dp16
Vimage-file
p17
Varch/x86/boot/bzImage
p18
sVdebug-info
p19
I00
ss(Vrelations
p20
tp21
(dp22
Vgcc-5
p23
Vgcc-5
p24
sVinitramfs-fallback
p25
Vlinux-initramfs-tool
p26
sVinitramfs-tools
p27
Vinitramfs-tools (>= 0.121~)
p28
ss(Vbase
p29
g14
Vnone
p30
tp31
(dp32
Vflavours
p33
(lp34
Vaptosid-amd64
p35
asVimplicit-flavour
p36
I01
ss(Vbase
p37
tp38
(dp39
Varches
p40
(lp41
Vamd64
p42
aVi386
p43
asVcompiler
p44
Vgcc-5
p45
sVfeaturesets
p46
(lp47
Vnone
p48
ass(Vdescription
p49
g14
g30
Vaptosid-amd64
p50
tp51
(dp52
Vparts
p53
(lp54
Vxen
p55
ass(Vimage
p56
g5
tp57
(dp58
Vsuggests
p59
Vcrda
p60
sVinstall-stem
p61
Vvmlinuz
p62
sVbreaks
p63
Vxserver-xorg-input-vmmouse (<< 1:13.0.99)
p64
sVbootloaders
p65
(lp66
Vgrub-pc
p67
aVextlinux
p68
aVgrub-efi-ia32
p69
ass(Vimage
p70
g14
tp71
(dp72
Vsuggests
p73
Vcrda
p74
sVinstall-stem
p75
Vvmlinuz
p76
sVbreaks
p77
Vxserver-xorg-input-vmmouse (<< 1:13.0.99)
p78
sVbootloaders
p79
(lp80
Vgrub-pc
p81
aVextlinux
p82
aVgrub-efi-amd64
p83
ass(Vabi
p84
tp85
(dp86
Vabiname
p87
V4.slh.1
p88
ss(Vdescription
p89
tp90
(dp91
Vpart-long-xen
p92
VThis kernel also runs on a Xen hypervisor.\u000aIt supports both privileged (dom0) and unprivileged (domU) operation.
p93
sVpart-long-up
p94
VThis kernel is not suitable for SMP (multi-processor,\u000amulti-core or hyper-threaded) systems.
p95
ss(Vxen
p96
g14
g30
Vaptosid-amd64
p97
tp98
(dp99
Vflavours
p100
(lp101
Vaptosid-amd64
p102
ass(Vversion
p103
tp104
(dp105
Vabiname_base
p106
V4.8.0
p107
sVsource
p108
V4.8-7
p109
sVupstream
p110
V4.8
p111
sVabiname
p112
V4.8.0-4.slh.1
p113
ss(Vdescription
p114
g14
NVaptosid-amd64
p115
tp116
(dp117
Vhardware
p118
V64-bit PCs
p119
sVhardware-long
p120
VPCs with AMD64 or Intel 64 processors
p121
ss(Vimage
p122
tp123
(dp124
Vinitramfs-generators
p125
(lp126
Vinitramfs-tools
p127
aVinitramfs-fallback
p128
ass(Vbase
p129
g5
tp130
(dp131
Vfeaturesets
p132
(lp133
Vnone
p134
aVnone
p135
asVkernel-arch
p136
Vx86
p137
ss(Vbase
p138
g5
g135
tp139
(dp140
g33
(lp141
Vaptosid-686
p142
asg36
I01
ss(Vbuild
p143
g5
tp144
(dp145
Vimage-file
p146
Varch/x86/boot/bzImage
p147
sVdebug-info
p148
I00
ss(Vbase
p149
g14
tp150
(dp151
Vfeaturesets
p152
(lp153
g134
ag30
asVkernel-arch
p154
Vx86
p155
sstp156
Rp157
.