ccopy_reg
_reconstructor
p0
(cdebian_linux.config
ConfigCore
p1
c__builtin__
dict
p2
(dp3
(Vbase
p4
Vi386
p5
Vnone
p6
tp7
(dp8
Vflavours
p9
(lp10
Vaptosid-686
p11
asVimplicit-flavour
p12
I01
ss(Vimage
p13
Vamd64
p14
tp15
(dp16
Vinstall-stem
p17
Vvmlinuz
p18
sVconfigs
p19
(lp20
sVsuggests
p21
Vcrda
p22
sVbootloaders
p23
(lp24
Vgrub-pc
p25
aVextlinux
p26
aVgrub-efi-amd64
p27
ass(Vversion
p28
tp29
(dp30
Vabiname
p31
V4.5.0-3.slh.1
p32
sVabiname_base
p33
V4.5.0
p34
sVsource
p35
V4.5-10
p36
sVupstream
p37
V4.5
p38
ss(Vabi
p39
tp40
(dp41
Vabiname
p42
V3.slh.1
p43
ss(Vdescription
p44
g14
NVaptosid-amd64
p45
tp46
(dp47
Vhardware-long
p48
VPCs with AMD64 or Intel 64 processors
p49
sVhardware
p50
V64-bit PCs
p51
ss(Vbuild
p52
g5
tp53
(dp54
Vdebug-info
p55
I00
sVimage-file
p56
Varch/x86/boot/bzImage
p57
ss(Vxen
p58
g14
Vnone
p59
Vaptosid-amd64
p60
tp61
(dp62
Vflavours
p63
(lp64
Vaptosid-amd64
p65
ass(Vdescription
p66
tp67
(dp68
Vpart-long-xen
p69
VThis kernel also runs on a Xen hypervisor.\u000aIt supports both privileged (dom0) and unprivileged (domU) operation.
p70
sVpart-long-up
p71
VThis kernel is not suitable for SMP (multi-processor,\u000amulti-core or hyper-threaded) systems.
p72
ss(Vbase
p73
g5
tp74
(dp75
Vkernel-arch
p76
Vx86
p77
sVfeaturesets
p78
(lp79
Vnone
p80
ag6
ass(Vimage
p81
g5
NVaptosid-686
p82
tp83
(dp84
Vrecommends
p85
Vlibc6-i686
p86
sVconfigs
p87
(lp88
Vkernelarch-x86/config-arch-32
p89
ass(Vrelations
p90
tp91
(dp92
Vinitramfs-fallback
p93
Vlinux-initramfs-tool
p94
sVgcc-5
p95
Vgcc-5
p96
sVinitramfs-tools
p97
Vinitramfs-tools (>= 0.121~)
p98
ss(Vimage
p99
g5
tp100
(dp101
Vinstall-stem
p102
Vvmlinuz
p103
sVconfigs
p104
(lp105
sVsuggests
p106
Vcrda
p107
sVbootloaders
p108
(lp109
Vgrub-pc
p110
aVextlinux
p111
aVgrub-efi-ia32
p112
ass(Vimage
p113
tp114
(dp115
Vinitramfs-generators
p116
(lp117
Vinitramfs-tools
p118
aVinitramfs-fallback
p119
asVtype
p120
Vplain
p121
ss(Vbase
p122
tp123
(dp124
Vcompiler
p125
Vgcc-5
p126
sVarches
p127
(lp128
Vamd64
p129
aVi386
p130
asVfeaturesets
p131
(lp132
Vnone
p133
ass(Vdescription
p134
g14
g59
Vaptosid-amd64
p135
tp136
(dp137
Vparts
p138
(lp139
Vxen
p140
ass(Vimage
p141
g14
NVaptosid-amd64
p142
tp143
(dp144
Vconfigs
p145
(lp146
Vkernelarch-x86/config-arch-64
p147
ass(Vbase
p148
g14
g59
tp149
(dp150
g9
(lp151
Vaptosid-amd64
p152
asg12
I01
ss(Vbuild
p153
g14
tp154
(dp155
Vdebug-info
p156
I00
sVimage-file
p157
Varch/x86/boot/bzImage
p158
ss(Vbase
p159
g14
tp160
(dp161
Vkernel-arch
p162
Vx86
p163
sVfeaturesets
p164
(lp165
g80
ag59
ass(Vdescription
p166
g5
NVaptosid-686
p167
tp168
(dp169
Vhardware-long
p170
VPCs with Intel Pentium Pro/II/III/4/4M/D/M, Xeon, Celeron, Core or Atom; AMD Geode LX/NX, Athlon (K7), Duron, Opteron, Sempron, Turion or Phenom; Transmeta Efficeon; VIA C3 "Nehemiah" or C7 processors
p171
sVhardware
p172
Vmodern PCs
p173
sstp174
Rp175
.