ccopy_reg
_reconstructor
p0
(cdebian_linux.config
ConfigCore
p1
c__builtin__
dict
p2
(dp3
(Vbase
p4
tp5
(dp6
Vfeaturesets
p7
(lp8
Vnone
p9
asVarches
p10
(lp11
Vamd64
p12
aVi386
p13
asVcompiler
p14
Vgcc-6
p15
ss(Vdescription
p16
Vi386
p17
NVaptosid-686
p18
tp19
(dp20
Vhardware-long
p21
VPCs with Intel Pentium Pro/II/III/4/4M/D/M, Xeon, Celeron, Core or Atom; AMD Geode LX/NX, Athlon (K7), Duron, Opteron, Sempron, Turion or Phenom; Transmeta Efficeon; VIA C3 "Nehemiah" or C7 processors
p22
sVhardware
p23
Vmodern PCs
p24
ss(Vdescription
p25
Vamd64
p26
NVaptosid-amd64
p27
tp28
(dp29
Vhardware-long
p30
VPCs with AMD64 or Intel 64 processors
p31
sVhardware
p32
V64-bit PCs
p33
ss(Vbase
p34
g26
Vnone
p35
tp36
(dp37
Vflavours
p38
(lp39
Vaptosid-amd64
p40
asVimplicit-flavour
p41
I01
ss(Vbase
p42
g17
tp43
(dp44
Vfeaturesets
p45
(lp46
Vnone
p47
aVnone
p48
asVkernel-arch
p49
Vx86
p50
ss(Vbuild
p51
g26
tp52
(dp53
Vdebug-info
p54
I00
sVimage-file
p55
Varch/x86/boot/bzImage
p56
ss(Vbase
p57
g26
tp58
(dp59
Vfeaturesets
p60
(lp61
g47
ag35
asVkernel-arch
p62
Vx86
p63
ss(Vbuild
p64
g17
tp65
(dp66
Vdebug-info
p67
I00
sVimage-file
p68
Varch/x86/boot/bzImage
p69
ss(Vabi
p70
tp71
(dp72
Vabiname
p73
V0.slh.4
p74
ss(Vrelations
p75
tp76
(dp77
Vinitramfs-fallback
p78
Vlinux-initramfs-tool
p79
sVgcc-6
p80
Vgcc-6
p81
sVinitramfs-tools
p82
Vinitramfs-tools (>= 0.121~)
p83
ss(Vbase
p84
g17
g48
tp85
(dp86
g38
(lp87
Vaptosid-686
p88
asg41
I01
ss(Vimage
p89
g17
tp90
(dp91
Vbootloaders
p92
(lp93
Vgrub-pc
p94
aVextlinux
p95
aVgrub-efi-ia32
p96
asVsuggests
p97
Vcrda
p98
sVinstall-stem
p99
Vvmlinuz
p100
sVbreaks
p101
Vxserver-xorg-input-vmmouse (<< 1:13.0.99)
p102
ss(Vimage
p103
tp104
(dp105
Vinitramfs-generators
p106
(lp107
Vinitramfs-tools
p108
aVinitramfs-fallback
p109
ass(Vversion
p110
tp111
(dp112
Vupstream
p113
V4.11
p114
sVabiname
p115
V4.11.0-0.slh.4
p116
sVsource
p117
V4.11-4
p118
sVabiname_base
p119
V4.11.0
p120
ss(Vimage
p121
g26
tp122
(dp123
Vbootloaders
p124
(lp125
Vgrub-pc
p126
aVextlinux
p127
aVgrub-efi-amd64
p128
asVsuggests
p129
Vcrda
p130
sVinstall-stem
p131
Vvmlinuz
p132
sVbreaks
p133
Vxserver-xorg-input-vmmouse (<< 1:13.0.99)
p134
ss(Vdescription
p135
g26
g35
Vaptosid-amd64
p136
tp137
(dp138
Vparts
p139
(lp140
Vxen
p141
ass(Vdescription
p142
tp143
(dp144
Vpart-long-up
p145
VThis kernel is not suitable for SMP (multi-processor,\u000amulti-core or hyper-threaded) systems.
p146
sVpart-long-xen
p147
VThis kernel also runs on a Xen hypervisor.\u000aIt supports both privileged (dom0) and unprivileged (domU) operation.
p148
sstp149
Rp150
.