ccopy_reg
_reconstructor
p0
(cdebian_linux.config
ConfigCore
p1
c__builtin__
dict
p2
(dp3
(Vbase
p4
tp5
(dp6
Varches
p7
(lp8
Vamd64
p9
aVi386
p10
asVcompiler
p11
Vgcc-5
p12
sVfeaturesets
p13
(lp14
Vnone
p15
ass(Vbase
p16
Vi386
p17
tp18
(dp19
Vfeaturesets
p20
(lp21
Vnone
p22
aVnone
p23
asVkernel-arch
p24
Vx86
p25
ss(Vrelations
p26
tp27
(dp28
Vinitramfs-tools
p29
Vinitramfs-tools (>= 0.118+c0.aptosid.1~)
p30
sVinitramfs-fallback
p31
Vlinux-initramfs-tool
p32
sVgcc-5
p33
Vgcc-5
p34
ss(Vbase
p35
Vamd64
p36
Vnone
p37
tp38
(dp39
Vimplicit-flavour
p40
I01
sVflavours
p41
(lp42
Vaptosid-amd64
p43
ass(Vimage
p44
g36
tp45
(dp46
Vsuggests
p47
Vcrda
p48
sVconfigs
p49
(lp50
sVbootloaders
p51
(lp52
Vgrub-pc
p53
aVextlinux
p54
aVgrub-efi-amd64
p55
asVinstall-stem
p56
Vvmlinuz
p57
ss(Vbuild
p58
g17
tp59
(dp60
Vdebug-info
p61
I00
sVimage-file
p62
Varch/x86/boot/bzImage
p63
ss(Vabi
p64
tp65
(dp66
Vabiname
p67
V0.slh.3
p68
ss(Vimage
p69
g17
NVaptosid-686
p70
tp71
(dp72
Vrecommends
p73
Vlibc6-i686
p74
sVconfigs
p75
(lp76
Vkernelarch-x86/config-arch-32
p77
ass(Vbuild
p78
g36
tp79
(dp80
Vdebug-info
p81
I00
sVimage-file
p82
Varch/x86/boot/bzImage
p83
ss(Vimage
p84
g36
NVaptosid-amd64
p85
tp86
(dp87
Vconfigs
p88
(lp89
Vkernelarch-x86/config-arch-64
p90
ass(Vbase
p91
g17
g23
tp92
(dp93
g40
I01
sg41
(lp94
Vaptosid-686
p95
ass(Vbase
p96
g36
tp97
(dp98
Vfeaturesets
p99
(lp100
g22
ag37
asVkernel-arch
p101
Vx86
p102
ss(Vimage
p103
tp104
(dp105
Vtype
p106
Vplain
p107
sVinitramfs-generators
p108
(lp109
Vinitramfs-tools
p110
aVinitramfs-fallback
p111
ass(Vdescription
p112
g36
NVaptosid-amd64
p113
tp114
(dp115
Vhardware-long
p116
VPCs with AMD64 or Intel 64 processors
p117
sVhardware
p118
V64-bit PCs
p119
ss(Vxen
p120
g36
g37
Vaptosid-amd64
p121
tp122
(dp123
Vflavours
p124
(lp125
Vaptosid-amd64
p126
ass(Vversion
p127
tp128
(dp129
Vabiname_base
p130
V4.5.0
p131
sVsource
p132
V4.5-3
p133
sVabiname
p134
V4.5.0-0.slh.3
p135
sVupstream
p136
V4.5
p137
ss(Vdescription
p138
g17
NVaptosid-686
p139
tp140
(dp141
Vhardware-long
p142
VPCs with Intel Pentium Pro/II/III/4/4M/D/M, Xeon, Celeron, Core or Atom; AMD Geode LX/NX, Athlon (K7), Duron, Opteron, Sempron, Turion or Phenom; Transmeta Efficeon; VIA C3 "Nehemiah" or C7 processors
p143
sVhardware
p144
Vmodern PCs
p145
ss(Vimage
p146
g17
tp147
(dp148
Vsuggests
p149
Vcrda
p150
sVconfigs
p151
(lp152
sVbootloaders
p153
(lp154
Vgrub-pc
p155
aVextlinux
p156
aVgrub-efi-ia32
p157
asVinstall-stem
p158
Vvmlinuz
p159
ss(Vdescription
p160
g36
g37
Vaptosid-amd64
p161
tp162
(dp163
Vparts
p164
(lp165
Vxen
p166
ass(Vdescription
p167
tp168
(dp169
Vpart-long-up
p170
VThis kernel is not suitable for SMP (multi-processor,\u000amulti-core or hyper-threaded) systems.
p171
sVpart-long-xen
p172
VThis kernel also runs on a Xen hypervisor.\u000aIt supports both privileged (dom0) and unprivileged (domU) operation.
p173
sstp174
Rp175
.