ccopy_reg
_reconstructor
p1
(cdebian_linux.config
ConfigCore
p2
c__builtin__
dict
p3
(dp4
(S'image'
p5
S'amd64'
p6
tp7
(dp8
S'suggests'
p9
S'crda'
p10
sS'configs'
p11
(lp12
S'kernelarch-x86/config'
p13
asS'bootloaders'
p14
(lp15
S'grub-pc'
p16
aS'extlinux'
p17
aS'grub-efi-amd64'
p18
ass(S'base'
p19
g6
S'none'
p20
tp21
(dp22
S'implicit-flavour'
p23
I01
sS'flavours'
p24
(lp25
S'aptosid-amd64'
p26
ass(S'image'
S'i386'
p27
NS'aptosid-686'
tp28
(dp29
S'configs'
p30
(lp31
S'kernelarch-x86/config-arch-32'
p32
asS'recommends'
p33
S'libc6-i686'
p34
ss(S'base'
p35
g6
tp36
(dp37
S'kernel-arch'
p38
S'x86'
p39
sS'featuresets'
p40
(lp41
g20
ass(S'image'
p42
tp43
(dp44
S'initramfs-generators'
p45
(lp46
S'initramfs-tools'
p47
aS'initramfs-fallback'
p48
asS'type'
p49
S'plain'
p50
ss(S'image'
g6
NS'aptosid-amd64'
tp51
(dp52
S'configs'
p53
(lp54
S'kernelarch-x86/config-arch-64'
p55
ass(S'abi'
p56
tp57
(dp58
S'abiname'
p59
S'6.slh.1'
p60
ss(S'description'
g27
NS'aptosid-686'
tp61
(dp62
S'hardware'
p63
S'modern PCs'
p64
sS'hardware-long'
p65
S'PCs with Intel Pentium Pro/II/III/4/4M/D/M, Xeon, Celeron, Core or Atom; AMD Geode LX/NX, Athlon (K7), Duron, Opteron, Sempron, Turion or Phenom; Transmeta Efficeon; VIA C3 "Nehemiah" or C7 processors'
p66
ss(S'version'
p67
tp68
(dp69
S'abiname'
p70
S'3.14-6.slh.1'
p71
sS'source'
p72
V3.14-19
p73
ss(S'build'
g27
NS'aptosid-686'
tp74
(dp75
S'debug-info'
p76
I00
ss(S'base'
g27
tp77
(dp78
S'kernel-arch'
p79
S'x86'
p80
sg40
(lp81
g20
ass(S'build'
g6
NS'aptosid-amd64'
tp82
(dp83
S'debug-info'
p84
I00
ss(S'image'
g27
tp85
(dp86
S'suggests'
p87
S'crda'
p88
sS'configs'
p89
(lp90
S'kernelarch-x86/config'
p91
asS'bootloaders'
p92
(lp93
S'grub-pc'
p94
aS'extlinux'
p95
ass(g19
g27
g20
tp96
(dp97
g23
I01
sg24
(lp98
S'aptosid-686'
p99
ass(S'base'
p100
tp101
(dp102
S'arches'
p103
(lp104
S'amd64'
p105
aS'i386'
p106
asS'featuresets'
p107
(lp108
S'none'
p109
asS'compiler'
p110
S'gcc-4.8'
p111
ss(S'relations'
p112
tp113
(dp114
S'initramfs-fallback'
p115
S'linux-initramfs-tool'
p116
sS'lilo'
p117
S'lilo (>= 22.8-8.2~)'
p118
sS'gcc-4.8'
p119
S'gcc-4.8'
p120
sS'initramfs-tools'
p121
S'initramfs-tools (>= 0.110~)'
p122
sS'elilo'
p123
S'elilo (>= 3.12-3.1~)'
p124
ss(S'description'
g6
NS'aptosid-amd64'
tp125
(dp126
S'hardware'
p127
S'64-bit PCs'
p128
sS'hardware-long'
p129
S'PCs with AMD64 or Intel 64 processors'
p130
sstRp131
.