ccopy_reg
_reconstructor
p0
(cdebian_linux.config
ConfigCore
p1
c__builtin__
dict
p2
(dp3
(Vdescription
p4
tp5
(dp6
Vpart-long-up
p7
VThis kernel is not suitable for SMP (multi-processor,\u000amulti-core or hyper-threaded) systems.
p8
sVpart-long-xen
p9
VThis kernel also runs on a Xen hypervisor.\u000aIt supports both privileged (dom0) and unprivileged (domU) operation.
p10
ss(Vbuild
p11
Vi386
p12
tp13
(dp14
Vimage-file
p15
Varch/x86/boot/bzImage
p16
sVdebug-info
p17
I00
ss(Vimage
p18
tp19
(dp20
Vinitramfs-generators
p21
(lp22
Vinitramfs-tools
p23
aVinitramfs-fallback
p24
ass(Vdescription
p25
g12
NVaptosid-686
p26
tp27
(dp28
Vhardware
p29
Vmodern PCs
p30
sVhardware-long
p31
VPCs with Intel Pentium Pro/II/III/4/4M/D/M, Xeon, Celeron, Core or Atom; AMD Geode LX/NX, Athlon (K7), Duron, Opteron, Sempron, Turion or Phenom; Transmeta Efficeon; VIA C3 "Nehemiah" or C7 processors
p32
ss(Vimage
p33
Vamd64
p34
tp35
(dp36
Vinstall-stem
p37
Vvmlinuz
p38
sVbootloaders
p39
(lp40
Vgrub-pc
p41
aVextlinux
p42
aVgrub-efi-amd64
p43
asVsuggests
p44
Vcrda
p45
sVbreaks
p46
Vxserver-xorg-input-vmmouse (<< 1:13.0.99)
p47
ss(Vbase
p48
tp49
(dp50
Varches
p51
(lp52
Vamd64
p53
aVi386
p54
asVcompiler
p55
Vgcc-6
p56
sVfeaturesets
p57
(lp58
Vnone
p59
ass(Vbase
p60
g12
tp61
(dp62
Vfeaturesets
p63
(lp64
Vnone
p65
aVnone
p66
asVkernel-arch
p67
Vx86
p68
ss(Vdescription
p69
g34
NVaptosid-amd64
p70
tp71
(dp72
Vhardware
p73
V64-bit PCs
p74
sVhardware-long
p75
VPCs with AMD64 or Intel 64 processors
p76
ss(Vbuild
p77
g34
tp78
(dp79
Vimage-file
p80
Varch/x86/boot/bzImage
p81
sVdebug-info
p82
I00
ss(Vbase
p83
g34
Vnone
p84
tp85
(dp86
Vflavours
p87
(lp88
Vaptosid-amd64
p89
asVimplicit-flavour
p90
I01
ss(Vbase
p91
g34
tp92
(dp93
Vfeaturesets
p94
(lp95
g65
ag84
asVkernel-arch
p96
Vx86
p97
ss(Vabi
p98
tp99
(dp100
Vabiname
p101
V0.slh.1
p102
ss(Vdescription
p103
g34
g84
Vaptosid-amd64
p104
tp105
(dp106
Vparts
p107
(lp108
Vxen
p109
ass(Vimage
p110
g12
tp111
(dp112
Vinstall-stem
p113
Vvmlinuz
p114
sVbootloaders
p115
(lp116
Vgrub-pc
p117
aVextlinux
p118
aVgrub-efi-ia32
p119
asVsuggests
p120
Vcrda
p121
sVbreaks
p122
Vxserver-xorg-input-vmmouse (<< 1:13.0.99)
p123
ss(Vrelations
p124
tp125
(dp126
Vgcc-6
p127
Vgcc-6
p128
sVinitramfs-tools
p129
Vinitramfs-tools (>= 0.121~)
p130
sVinitramfs-fallback
p131
Vlinux-initramfs-tool
p132
ss(Vbase
p133
g12
g66
tp134
(dp135
g87
(lp136
Vaptosid-686
p137
asg90
I01
ss(Vversion
p138
tp139
(dp140
Vsource
p141
V4.12-1
p142
sVabiname_base
p143
V4.12.0
p144
sVabiname
p145
V4.12.0-0.slh.1
p146
sVupstream
p147
V4.12
p148
sstp149
Rp150
.