ccopy_reg
_reconstructor
p0
(cdebian_linux.config
ConfigCore
p1
c__builtin__
dict
p2
(dp3
(Vbase
p4
Vamd64
p5
tp6
(dp7
Vfeaturesets
p8
(lp9
Vnone
p10
aVnone
p11
asVkernel-arch
p12
Vx86
p13
ss(Vbase
p14
tp15
(dp16
Varches
p17
(lp18
Vamd64
p19
aVi386
p20
asVcompiler
p21
Vgcc-6
p22
sVfeaturesets
p23
(lp24
Vnone
p25
ass(Vbase
p26
g5
g11
tp27
(dp28
Vflavours
p29
(lp30
Vaptosid-amd64
p31
asVimplicit-flavour
p32
I01
ss(Vdescription
p33
tp34
(dp35
Vpart-long-xen
p36
VThis kernel also runs on a Xen hypervisor.\u000aIt supports both privileged (dom0) and unprivileged (domU) operation.
p37
sVpart-long-up
p38
VThis kernel is not suitable for SMP (multi-processor,\u000amulti-core or hyper-threaded) systems.
p39
ss(Vimage
p40
Vi386
p41
tp42
(dp43
Vsuggests
p44
Vcrda
p45
sVbootloaders
p46
(lp47
Vgrub-pc
p48
aVextlinux
p49
aVgrub-efi-ia32
p50
asVinstall-stem
p51
Vvmlinuz
p52
sVbreaks
p53
Vxserver-xorg-input-vmmouse (<< 1:13.0.99)
p54
ss(Vabi
p55
tp56
(dp57
Vabiname
p58
V1.slh.2
p59
ss(Vbuild
p60
g5
tp61
(dp62
Vdebug-info
p63
I00
sVimage-file
p64
Varch/x86/boot/bzImage
p65
ss(Vrelations
p66
tp67
(dp68
Vinitramfs-fallback
p69
Vlinux-initramfs-tool
p70
sVinitramfs-tools
p71
Vinitramfs-tools (>= 0.121~)
p72
sVgcc-6
p73
Vgcc-6
p74
ss(Vdescription
p75
g41
NVaptosid-686
p76
tp77
(dp78
Vhardware-long
p79
VPCs with Intel Pentium Pro/II/III/4/4M/D/M, Xeon, Celeron, Core or Atom; AMD Geode LX/NX, Athlon (K7), Duron, Opteron, Sempron, Turion or Phenom; Transmeta Efficeon; VIA C3 "Nehemiah" or C7 processors
p80
sVhardware
p81
Vmodern PCs
p82
ss(Vbase
p83
g41
tp84
(dp85
Vfeaturesets
p86
(lp87
g10
aVnone
p88
asVkernel-arch
p89
Vx86
p90
ss(Vimage
p91
tp92
(dp93
Vinitramfs-generators
p94
(lp95
Vinitramfs-tools
p96
aVinitramfs-fallback
p97
ass(Vimage
p98
g5
tp99
(dp100
Vsuggests
p101
Vcrda
p102
sVbootloaders
p103
(lp104
Vgrub-pc
p105
aVextlinux
p106
aVgrub-efi-amd64
p107
asVinstall-stem
p108
Vvmlinuz
p109
sVbreaks
p110
Vxserver-xorg-input-vmmouse (<< 1:13.0.99)
p111
ss(Vversion
p112
tp113
(dp114
Vabiname
p115
V4.11.0-1.slh.2
p116
sVsource
p117
V4.11-6
p118
sVupstream
p119
V4.11
p120
sVabiname_base
p121
V4.11.0
p122
ss(Vdescription
p123
g5
NVaptosid-amd64
p124
tp125
(dp126
Vhardware-long
p127
VPCs with AMD64 or Intel 64 processors
p128
sVhardware
p129
V64-bit PCs
p130
ss(Vbuild
p131
g41
tp132
(dp133
Vdebug-info
p134
I00
sVimage-file
p135
Varch/x86/boot/bzImage
p136
ss(Vbase
p137
g41
g88
tp138
(dp139
g29
(lp140
Vaptosid-686
p141
asg32
I01
ss(Vdescription
p142
g5
g11
Vaptosid-amd64
p143
tp144
(dp145
Vparts
p146
(lp147
Vxen
p148
asstp149
Rp150
.