ccopy_reg
_reconstructor
p0
(cdebian_linux.config
ConfigCore
p1
c__builtin__
dict
p2
(dp3
(Vbase
p4
Vi386
p5
Vnone
p6
tp7
(dp8
Vflavours
p9
(lp10
Vaptosid-686
p11
asVimplicit-flavour
p12
I01
ss(Vbase
p13
Vamd64
p14
tp15
(dp16
Vkernel-arch
p17
Vx86
p18
sVfeaturesets
p19
(lp20
Vnone
p21
aVnone
p22
ass(Vdescription
p23
g14
NVaptosid-amd64
p24
tp25
(dp26
Vhardware-long
p27
VPCs with AMD64 or Intel 64 processors
p28
sVhardware
p29
V64-bit PCs
p30
ss(Vbuild
p31
g5
tp32
(dp33
Vdebug-info
p34
I00
sVimage-file
p35
Varch/x86/boot/bzImage
p36
ss(Vimage
p37
tp38
(dp39
Vinitramfs-generators
p40
(lp41
Vinitramfs-tools
p42
aVinitramfs-fallback
p43
ass(Vimage
p44
g14
tp45
(dp46
Vsuggests
p47
Vcrda
p48
sVbootloaders
p49
(lp50
Vgrub-pc
p51
aVextlinux
p52
aVgrub-efi-amd64
p53
asVbreaks
p54
Vxserver-xorg-input-vmmouse (<< 1:13.0.99)
p55
sVinstall-stem
p56
Vvmlinuz
p57
ss(Vrelations
p58
tp59
(dp60
Vinitramfs-tools
p61
Vinitramfs-tools (>= 0.121~)
p62
sVgcc-6
p63
Vgcc-6
p64
sVinitramfs-fallback
p65
Vlinux-initramfs-tool
p66
ss(Vversion
p67
tp68
(dp69
Vupstream
p70
V4.9
p71
sVabiname
p72
V4.9.0-0.slh.2
p73
sVabiname_base
p74
V4.9.0
p75
sVsource
p76
V4.9-2
p77
ss(Vbase
p78
g14
g22
tp79
(dp80
g9
(lp81
Vaptosid-amd64
p82
asg12
I01
ss(Vbase
p83
tp84
(dp85
Varches
p86
(lp87
Vamd64
p88
aVi386
p89
asVcompiler
p90
Vgcc-6
p91
sVfeaturesets
p92
(lp93
Vnone
p94
ass(Vabi
p95
tp96
(dp97
Vabiname
p98
V0.slh.2
p99
ss(Vdescription
p100
g5
NVaptosid-686
p101
tp102
(dp103
Vhardware-long
p104
VPCs with Intel Pentium Pro/II/III/4/4M/D/M, Xeon, Celeron, Core or Atom; AMD Geode LX/NX, Athlon (K7), Duron, Opteron, Sempron, Turion or Phenom; Transmeta Efficeon; VIA C3 "Nehemiah" or C7 processors
p105
sVhardware
p106
Vmodern PCs
p107
ss(Vbase
p108
g5
tp109
(dp110
Vkernel-arch
p111
Vx86
p112
sVfeaturesets
p113
(lp114
g21
ag6
ass(Vdescription
p115
g14
g22
Vaptosid-amd64
p116
tp117
(dp118
Vparts
p119
(lp120
Vxen
p121
ass(Vbuild
p122
g14
tp123
(dp124
Vdebug-info
p125
I00
sVimage-file
p126
Varch/x86/boot/bzImage
p127
ss(Vimage
p128
g5
tp129
(dp130
Vsuggests
p131
Vcrda
p132
sVbootloaders
p133
(lp134
Vgrub-pc
p135
aVextlinux
p136
aVgrub-efi-ia32
p137
asVbreaks
p138
Vxserver-xorg-input-vmmouse (<< 1:13.0.99)
p139
sVinstall-stem
p140
Vvmlinuz
p141
ss(Vdescription
p142
tp143
(dp144
Vpart-long-up
p145
VThis kernel is not suitable for SMP (multi-processor,\u000amulti-core or hyper-threaded) systems.
p146
sVpart-long-xen
p147
VThis kernel also runs on a Xen hypervisor.\u000aIt supports both privileged (dom0) and unprivileged (domU) operation.
p148
sstp149
Rp150
.