ccopy_reg
_reconstructor
p0
(cdebian_linux.config
ConfigCore
p1
c__builtin__
dict
p2
(dp3
(Vbase
p4
Vi386
p5
tp6
(dp7
Vkernel-arch
p8
Vx86
p9
sVfeaturesets
p10
(lp11
Vnone
p12
aVnone
p13
ass(Vversion
p14
tp15
(dp16
Vupstream
p17
V4.3
p18
sVabiname_base
p19
V4.3.0
p20
sVsource
p21
V4.3-10
p22
sVabiname
p23
V4.3.0-3.slh.1
p24
ss(Vrelations
p25
tp26
(dp27
Vinitramfs-fallback
p28
Vlinux-initramfs-tool
p29
sVinitramfs-tools
p30
Vinitramfs-tools (>= 0.118+c0.aptosid.1~)
p31
sVgcc-5
p32
Vgcc-5
p33
ss(Vxen
p34
Vamd64
p35
Vnone
p36
Vaptosid-amd64
p37
tp38
(dp39
Vflavours
p40
(lp41
Vaptosid-amd64
p42
ass(Vimage
p43
tp44
(dp45
Vtype
p46
Vplain
p47
sVinitramfs-generators
p48
(lp49
Vinitramfs-tools
p50
aVinitramfs-fallback
p51
ass(Vbase
p52
g35
tp53
(dp54
Vkernel-arch
p55
Vx86
p56
sVfeaturesets
p57
(lp58
g12
ag36
ass(Vbuild
p59
g5
tp60
(dp61
Vdebug-info
p62
I00
sVimage-file
p63
Varch/x86/boot/bzImage
p64
ss(Vdescription
p65
tp66
(dp67
Vpart-long-up
p68
VThis kernel is not suitable for SMP (multi-processor,\u000amulti-core or hyper-threaded) systems.
p69
sVpart-long-xen
p70
VThis kernel also runs on a Xen hypervisor.\u000aIt supports both privileged (dom0) and unprivileged (domU) operation.
p71
ss(Vdescription
p72
g5
NVaptosid-686
p73
tp74
(dp75
Vhardware
p76
Vmodern PCs
p77
sVhardware-long
p78
VPCs with Intel Pentium Pro/II/III/4/4M/D/M, Xeon, Celeron, Core or Atom; AMD Geode LX/NX, Athlon (K7), Duron, Opteron, Sempron, Turion or Phenom; Transmeta Efficeon; VIA C3 "Nehemiah" or C7 processors
p79
ss(Vimage
p80
g5
NVaptosid-686
p81
tp82
(dp83
Vrecommends
p84
Vlibc6-i686
p85
sVconfigs
p86
(lp87
Vkernelarch-x86/config-arch-32
p88
ass(Vbase
p89
tp90
(dp91
Vcompiler
p92
Vgcc-5
p93
sVfeaturesets
p94
(lp95
Vnone
p96
asVarches
p97
(lp98
Vamd64
p99
aVi386
p100
ass(Vdescription
p101
g35
NVaptosid-amd64
p102
tp103
(dp104
Vhardware
p105
V64-bit PCs
p106
sVhardware-long
p107
VPCs with AMD64 or Intel 64 processors
p108
ss(Vabi
p109
tp110
(dp111
Vabiname
p112
V3.slh.1
p113
ss(Vimage
p114
g5
tp115
(dp116
Vsuggests
p117
Vcrda
p118
sVbootloaders
p119
(lp120
Vgrub-pc
p121
aVextlinux
p122
aVgrub-efi-ia32
p123
asVinstall-stem
p124
Vvmlinuz
p125
sVconfigs
p126
(lp127
ss(Vbase
p128
g5
g13
tp129
(dp130
Vimplicit-flavour
p131
I01
sVflavours
p132
(lp133
Vaptosid-686
p134
ass(Vdescription
p135
g35
g36
Vaptosid-amd64
p136
tp137
(dp138
Vparts
p139
(lp140
Vxen
p141
ass(Vimage
p142
g35
NVaptosid-amd64
p143
tp144
(dp145
Vconfigs
p146
(lp147
Vkernelarch-x86/config-arch-64
p148
ass(Vimage
p149
g35
tp150
(dp151
Vsuggests
p152
Vcrda
p153
sVbootloaders
p154
(lp155
Vgrub-pc
p156
aVextlinux
p157
aVgrub-efi-amd64
p158
asVinstall-stem
p159
Vvmlinuz
p160
sVconfigs
p161
(lp162
ss(Vbase
p163
g35
g36
tp164
(dp165
g131
I01
sg132
(lp166
Vaptosid-amd64
p167
ass(Vbuild
p168
g35
tp169
(dp170
Vdebug-info
p171
I00
sVimage-file
p172
Varch/x86/boot/bzImage
p173
sstp174
Rp175
.