ccopy_reg
_reconstructor
p0
(cdebian_linux.config
ConfigCore
p1
c__builtin__
dict
p2
(dp3
(Vbuild
p4
Vi386
p5
tp6
(dp7
Vimage-file
p8
Varch/x86/boot/bzImage
p9
sVdebug-info
p10
I00
ss(Vimage
p11
tp12
(dp13
Vinitramfs-generators
p14
(lp15
Vinitramfs-tools
p16
aVinitramfs-fallback
p17
ass(Vbuild
p18
Vamd64
p19
tp20
(dp21
Vimage-file
p22
Varch/x86/boot/bzImage
p23
sVdebug-info
p24
I00
ss(Vdescription
p25
g5
NVaptosid-686
p26
tp27
(dp28
Vhardware-long
p29
VPCs with Intel Pentium Pro/II/III/4/4M/D/M, Xeon, Celeron, Core or Atom; AMD Geode LX/NX, Athlon (K7), Duron, Opteron, Sempron, Turion or Phenom; Transmeta Efficeon; VIA C3 "Nehemiah" or C7 processors
p30
sVhardware
p31
Vmodern PCs
p32
ss(Vbase
p33
g19
tp34
(dp35
Vfeaturesets
p36
(lp37
Vnone
p38
aVnone
p39
asVkernel-arch
p40
Vx86
p41
ss(Vbase
p42
tp43
(dp44
Vcompiler
p45
Vgcc-7
p46
sVarches
p47
(lp48
Vamd64
p49
aVi386
p50
asVfeaturesets
p51
(lp52
Vnone
p53
ass(Vbase
p54
g19
g39
tp55
(dp56
Vimplicit-flavour
p57
I01
sVflavours
p58
(lp59
Vaptosid-amd64
p60
ass(Vabi
p61
tp62
(dp63
Vabiname
p64
V6.slh.1
p65
ss(Vversion
p66
tp67
(dp68
Vabiname
p69
V4.12.0-6.slh.1
p70
sVupstream
p71
V4.12
p72
sVsource
p73
V4.12-13
p74
sVabiname_base
p75
V4.12.0
p76
ss(Vimage
p77
g5
tp78
(dp79
Vinstall-stem
p80
Vvmlinuz
p81
sVbreaks
p82
Vxserver-xorg-input-vmmouse (<< 1:13.0.99)
p83
sVbootloaders
p84
(lp85
Vgrub-pc
p86
aVextlinux
p87
aVgrub-efi-ia32
p88
asVsuggests
p89
Vcrda
p90
ss(Vbase
p91
g5
Vnone
p92
tp93
(dp94
g57
I01
sg58
(lp95
Vaptosid-686
p96
ass(Vdescription
p97
g19
NVaptosid-amd64
p98
tp99
(dp100
Vhardware-long
p101
VPCs with AMD64 or Intel 64 processors
p102
sVhardware
p103
V64-bit PCs
p104
ss(Vimage
p105
g19
tp106
(dp107
Vinstall-stem
p108
Vvmlinuz
p109
sVbreaks
p110
Vxserver-xorg-input-vmmouse (<< 1:13.0.99)
p111
sVbootloaders
p112
(lp113
Vgrub-pc
p114
aVextlinux
p115
aVgrub-efi-amd64
p116
asVsuggests
p117
Vcrda
p118
ss(Vdescription
p119
tp120
(dp121
Vpart-long-xen
p122
VThis kernel also runs on a Xen hypervisor.\u000aIt supports both privileged (dom0) and unprivileged (domU) operation.
p123
sVpart-long-up
p124
VThis kernel is not suitable for SMP (multi-processor,\u000amulti-core or hyper-threaded) systems.
p125
ss(Vbase
p126
g5
tp127
(dp128
Vfeaturesets
p129
(lp130
g38
ag92
asVkernel-arch
p131
Vx86
p132
ss(Vrelations
p133
tp134
(dp135
Vinitramfs-fallback
p136
Vlinux-initramfs-tool
p137
sVinitramfs-tools
p138
Vinitramfs-tools (>= 0.121~)
p139
sVgcc-7
p140
Vgcc-7
p141
ss(Vdescription
p142
g19
g39
Vaptosid-amd64
p143
tp144
(dp145
Vparts
p146
(lp147
Vxen
p148
asstp149
Rp150
.