ccopy_reg
_reconstructor
p0
(cdebian_linux.config
ConfigCore
p1
c__builtin__
dict
p2
(dp3
(Vdescription
p4
Vamd64
p5
NVaptosid-amd64
p6
tp7
(dp8
Vhardware
p9
V64-bit PCs
p10
sVhardware-long
p11
VPCs with AMD64 or Intel 64 processors
p12
ss(Vrelations
p13
tp14
(dp15
Vgcc-5
p16
Vgcc-5
p17
sVinitramfs-tools
p18
Vinitramfs-tools (>= 0.118+c0.aptosid.1~)
p19
sVinitramfs-fallback
p20
Vlinux-initramfs-tool
p21
ss(Vbase
p22
tp23
(dp24
Varches
p25
(lp26
Vamd64
p27
aVi386
p28
asVcompiler
p29
Vgcc-5
p30
sVfeaturesets
p31
(lp32
Vnone
p33
ass(Vdescription
p34
tp35
(dp36
Vpart-long-xen
p37
VThis kernel also runs on a Xen hypervisor.\u000aIt supports both privileged (dom0) and unprivileged (domU) operation.
p38
sVpart-long-up
p39
VThis kernel is not suitable for SMP (multi-processor,\u000amulti-core or hyper-threaded) systems.
p40
ss(Vbase
p41
g5
Vnone
p42
tp43
(dp44
Vflavours
p45
(lp46
Vaptosid-amd64
p47
asVimplicit-flavour
p48
I01
ss(Vimage
p49
Vi386
p50
NVaptosid-686
p51
tp52
(dp53
Vconfigs
p54
(lp55
Vkernelarch-x86/config-arch-32
p56
asVrecommends
p57
Vlibc6-i686
p58
ss(Vimage
p59
g5
tp60
(dp61
Vconfigs
p62
(lp63
sVinstall-stem
p64
Vvmlinuz
p65
sVsuggests
p66
Vcrda
p67
sVbootloaders
p68
(lp69
Vgrub-pc
p70
aVextlinux
p71
aVgrub-efi-amd64
p72
ass(Vimage
p73
g50
tp74
(dp75
Vconfigs
p76
(lp77
sVinstall-stem
p78
Vvmlinuz
p79
sVsuggests
p80
Vcrda
p81
sVbootloaders
p82
(lp83
Vgrub-pc
p84
aVextlinux
p85
aVgrub-efi-ia32
p86
ass(Vdescription
p87
g5
g42
Vaptosid-amd64
p88
tp89
(dp90
Vparts
p91
(lp92
Vxen
p93
ass(Vversion
p94
tp95
(dp96
Vabiname_base
p97
V4.3.0
p98
sVsource
p99
V4.3-3
p100
sVupstream
p101
V4.3
p102
sVabiname
p103
V4.3.0-0.slh.3
p104
ss(Vdescription
p105
g50
NVaptosid-686
p106
tp107
(dp108
Vhardware
p109
Vmodern PCs
p110
sVhardware-long
p111
VPCs with Intel Pentium Pro/II/III/4/4M/D/M, Xeon, Celeron, Core or Atom; AMD Geode LX/NX, Athlon (K7), Duron, Opteron, Sempron, Turion or Phenom; Transmeta Efficeon; VIA C3 "Nehemiah" or C7 processors
p112
ss(Vbase
p113
g5
tp114
(dp115
Vkernel-arch
p116
Vx86
p117
sVfeaturesets
p118
(lp119
Vnone
p120
ag42
ass(Vbase
p121
g50
Vnone
p122
tp123
(dp124
g45
(lp125
Vaptosid-686
p126
asg48
I01
ss(Vbuild
p127
g50
tp128
(dp129
Vdebug-info
p130
I00
sVimage-file
p131
Varch/x86/boot/bzImage
p132
ss(Vxen
p133
g5
g42
Vaptosid-amd64
p134
tp135
(dp136
Vflavours
p137
(lp138
Vaptosid-amd64
p139
ass(Vabi
p140
tp141
(dp142
Vabiname
p143
V0.slh.3
p144
ss(Vimage
p145
g5
NVaptosid-amd64
p146
tp147
(dp148
Vconfigs
p149
(lp150
Vkernelarch-x86/config-arch-64
p151
ass(Vbuild
p152
g5
tp153
(dp154
Vdebug-info
p155
I00
sVimage-file
p156
Varch/x86/boot/bzImage
p157
ss(Vbase
p158
g50
tp159
(dp160
Vkernel-arch
p161
Vx86
p162
sVfeaturesets
p163
(lp164
g120
ag122
ass(Vimage
p165
tp166
(dp167
Vtype
p168
Vplain
p169
sVinitramfs-generators
p170
(lp171
Vinitramfs-tools
p172
aVinitramfs-fallback
p173
asstp174
Rp175
.