ccopy_reg
_reconstructor
p0
(cdebian_linux.config
ConfigCore
p1
c__builtin__
dict
p2
(dp3
(Vdescription
p4
Vi386
p5
NVaptosid-686
p6
tp7
(dp8
Vhardware-long
p9
VPCs with Intel Pentium Pro/II/III/4/4M/D/M, Xeon, Celeron, Core or Atom; AMD Geode LX/NX, Athlon (K7), Duron, Opteron, Sempron, Turion or Phenom; Transmeta Efficeon; VIA C3 "Nehemiah" or C7 processors
p10
sVhardware
p11
Vmodern PCs
p12
ss(Vdescription
p13
Vamd64
p14
NVaptosid-amd64
p15
tp16
(dp17
Vhardware-long
p18
VPCs with AMD64 or Intel 64 processors
p19
sVhardware
p20
V64-bit PCs
p21
ss(Vbase
p22
g5
tp23
(dp24
Vfeaturesets
p25
(lp26
Vnone
p27
aVnone
p28
asVkernel-arch
p29
Vx86
p30
ss(Vbuild
p31
g5
tp32
(dp33
Vdebug-info
p34
I00
sVimage-file
p35
Varch/x86/boot/bzImage
p36
ss(Vbase
p37
g14
Vnone
p38
tp39
(dp40
Vimplicit-flavour
p41
I01
sVflavours
p42
(lp43
Vaptosid-amd64
p44
ass(Vdescription
p45
g14
g38
Vaptosid-amd64
p46
tp47
(dp48
Vparts
p49
(lp50
Vxen
p51
ass(Vabi
p52
tp53
(dp54
Vabiname
p55
V5.slh.1
p56
ss(Vrelations
p57
tp58
(dp59
Vinitramfs-fallback
p60
Vlinux-initramfs-tool
p61
sVinitramfs-tools
p62
Vinitramfs-tools (>= 0.121~)
p63
sVgcc-7
p64
Vgcc-7
p65
ss(Vversion
p66
tp67
(dp68
Vabiname
p69
V4.13.0-5.slh.1
p70
sVabiname_base
p71
V4.13.0
p72
sVsource
p73
V4.13-11
p74
sVupstream
p75
V4.13
p76
ss(Vbase
p77
g5
g28
tp78
(dp79
g41
I01
sg42
(lp80
Vaptosid-686
p81
ass(Vbuild
p82
g14
tp83
(dp84
Vdebug-info
p85
I00
sVimage-file
p86
Varch/x86/boot/bzImage
p87
ss(Vbase
p88
g14
tp89
(dp90
Vfeaturesets
p91
(lp92
g27
ag38
asVkernel-arch
p93
Vx86
p94
ss(Vdescription
p95
tp96
(dp97
Vpart-long-up
p98
VThis kernel is not suitable for SMP (multi-processor,\u000amulti-core or hyper-threaded) systems.
p99
sVpart-long-xen
p100
VThis kernel also runs on a Xen hypervisor.\u000aIt supports both privileged (dom0) and unprivileged (domU) operation.
p101
ss(Vimage
p102
g5
tp103
(dp104
Vsuggests
p105
Vcrda
p106
sVbootloaders
p107
(lp108
Vgrub-pc
p109
aVextlinux
p110
aVgrub-efi-ia32
p111
asVbreaks
p112
Vxserver-xorg-input-vmmouse (<< 1:13.0.99)
p113
sVinstall-stem
p114
Vvmlinuz
p115
ss(Vimage
p116
tp117
(dp118
Vinitramfs-generators
p119
(lp120
Vinitramfs-tools
p121
aVinitramfs-fallback
p122
ass(Vbase
p123
tp124
(dp125
Vfeaturesets
p126
(lp127
Vnone
p128
asVcompiler
p129
Vgcc-7
p130
sVarches
p131
(lp132
Vamd64
p133
aVi386
p134
ass(Vimage
p135
g14
tp136
(dp137
Vsuggests
p138
Vcrda
p139
sVbootloaders
p140
(lp141
Vgrub-pc
p142
aVextlinux
p143
aVgrub-efi-amd64
p144
asVbreaks
p145
Vxserver-xorg-input-vmmouse (<< 1:13.0.99)
p146
sVinstall-stem
p147
Vvmlinuz
p148
sstp149
Rp150
.