ccopy_reg
_reconstructor
p0
(cdebian_linux.config
ConfigCore
p1
c__builtin__
dict
p2
(dp3
(Vbuild
p4
Vi386
p5
tp6
(dp7
Vdebug-info
p8
I00
sVimage-file
p9
Varch/x86/boot/bzImage
p10
ss(Vbuild
p11
Vamd64
p12
tp13
(dp14
Vdebug-info
p15
I00
sVimage-file
p16
Varch/x86/boot/bzImage
p17
ss(Vdescription
p18
g12
NVaptosid-amd64
p19
tp20
(dp21
Vhardware
p22
V64-bit PCs
p23
sVhardware-long
p24
VPCs with AMD64 or Intel 64 processors
p25
ss(Vdescription
p26
tp27
(dp28
Vpart-long-up
p29
VThis kernel is not suitable for SMP (multi-processor,\u000amulti-core or hyper-threaded) systems.
p30
sVpart-long-xen
p31
VThis kernel also runs on a Xen hypervisor.\u000aIt supports both privileged (dom0) and unprivileged (domU) operation.
p32
ss(Vdescription
p33
g5
NVaptosid-686
p34
tp35
(dp36
Vhardware
p37
Vmodern PCs
p38
sVhardware-long
p39
VPCs with Intel Pentium Pro/II/III/4/4M/D/M, Xeon, Celeron, Core or Atom; AMD Geode LX/NX, Athlon (K7), Duron, Opteron, Sempron, Turion or Phenom; Transmeta Efficeon; VIA C3 "Nehemiah" or C7 processors
p40
ss(Vbase
p41
g12
Vnone
p42
tp43
(dp44
Vimplicit-flavour
p45
I01
sVflavours
p46
(lp47
Vaptosid-amd64
p48
ass(Vimage
p49
g12
NVaptosid-amd64
p50
tp51
(dp52
Vconfigs
p53
(lp54
Vkernelarch-x86/config-arch-64
p55
ass(Vdescription
p56
g12
g42
Vaptosid-amd64
p57
tp58
(dp59
Vparts
p60
(lp61
Vxen
p62
ass(Vbase
p63
g12
tp64
(dp65
Vfeaturesets
p66
(lp67
Vnone
p68
ag42
asVkernel-arch
p69
Vx86
p70
ss(Vimage
p71
g12
tp72
(dp73
Vbootloaders
p74
(lp75
Vgrub-pc
p76
aVextlinux
p77
aVgrub-efi-amd64
p78
asVinstall-stem
p79
Vvmlinuz
p80
sVconfigs
p81
(lp82
sVsuggests
p83
Vcrda
p84
ss(Vimage
p85
g5
NVaptosid-686
p86
tp87
(dp88
Vrecommends
p89
Vlibc6-i686
p90
sVconfigs
p91
(lp92
Vkernelarch-x86/config-arch-32
p93
ass(Vimage
p94
tp95
(dp96
Vinitramfs-generators
p97
(lp98
Vinitramfs-tools
p99
aVinitramfs-fallback
p100
asVtype
p101
Vplain
p102
ss(Vbase
p103
g5
Vnone
p104
tp105
(dp106
g45
I01
sg46
(lp107
Vaptosid-686
p108
ass(Vbase
p109
tp110
(dp111
Vcompiler
p112
Vgcc-5
p113
sVfeaturesets
p114
(lp115
Vnone
p116
asVarches
p117
(lp118
Vamd64
p119
aVi386
p120
ass(Vversion
p121
tp122
(dp123
Vupstream
p124
V4.4
p125
sVsource
p126
V4.4-8
p127
sVabiname
p128
V4.4.0-1.slh.4
p129
sVabiname_base
p130
V4.4.0
p131
ss(Vbase
p132
g5
tp133
(dp134
Vfeaturesets
p135
(lp136
g68
ag104
asVkernel-arch
p137
Vx86
p138
ss(Vrelations
p139
tp140
(dp141
Vinitramfs-fallback
p142
Vlinux-initramfs-tool
p143
sVgcc-5
p144
Vgcc-5
p145
sVinitramfs-tools
p146
Vinitramfs-tools (>= 0.118+c0.aptosid.1~)
p147
ss(Vxen
p148
g12
g42
Vaptosid-amd64
p149
tp150
(dp151
Vflavours
p152
(lp153
Vaptosid-amd64
p154
ass(Vimage
p155
g5
tp156
(dp157
Vbootloaders
p158
(lp159
Vgrub-pc
p160
aVextlinux
p161
aVgrub-efi-ia32
p162
asVinstall-stem
p163
Vvmlinuz
p164
sVconfigs
p165
(lp166
sVsuggests
p167
Vcrda
p168
ss(Vabi
p169
tp170
(dp171
Vabiname
p172
V1.slh.4
p173
sstp174
Rp175
.