ccopy_reg
_reconstructor
p0
(cdebian_linux.config
ConfigCore
p1
c__builtin__
dict
p2
(dp3
(Vbase
p4
Vi386
p5
Vnone
p6
tp7
(dp8
Vimplicit-flavour
p9
I01
sVflavours
p10
(lp11
Vaptosid-686
p12
ass(Vimage
p13
Vamd64
p14
tp15
(dp16
Vinstall-stem
p17
Vvmlinuz
p18
sVsuggests
p19
Vcrda
p20
sVconfigs
p21
(lp22
sVbootloaders
p23
(lp24
Vgrub-pc
p25
aVextlinux
p26
aVgrub-efi-amd64
p27
ass(Vbase
p28
g14
Vnone
p29
tp30
(dp31
g9
I01
sg10
(lp32
Vaptosid-amd64
p33
ass(Vdescription
p34
g5
NVaptosid-686
p35
tp36
(dp37
Vhardware-long
p38
VPCs with Intel Pentium Pro/II/III/4/4M/D/M, Xeon, Celeron, Core or Atom; AMD Geode LX/NX, Athlon (K7), Duron, Opteron, Sempron, Turion or Phenom; Transmeta Efficeon; VIA C3 "Nehemiah" or C7 processors
p39
sVhardware
p40
Vmodern PCs
p41
ss(Vabi
p42
tp43
(dp44
Vabiname
p45
V4.slh.2
p46
ss(Vdescription
p47
g14
g29
Vaptosid-amd64
p48
tp49
(dp50
Vparts
p51
(lp52
Vxen
p53
ass(Vrelations
p54
tp55
(dp56
Vgcc-5
p57
Vgcc-5
p58
sVinitramfs-tools
p59
Vinitramfs-tools (>= 0.121~)
p60
sVinitramfs-fallback
p61
Vlinux-initramfs-tool
p62
ss(Vimage
p63
g5
NVaptosid-686
p64
tp65
(dp66
Vrecommends
p67
Vlibc6-i686
p68
sVconfigs
p69
(lp70
Vkernelarch-x86/config-arch-32
p71
ass(Vversion
p72
tp73
(dp74
Vabiname_base
p75
V4.6.0
p76
sVabiname
p77
V4.6.0-4.slh.2
p78
sVupstream
p79
V4.6
p80
sVsource
p81
V4.6-13
p82
ss(Vdescription
p83
tp84
(dp85
Vpart-long-up
p86
VThis kernel is not suitable for SMP (multi-processor,\u000amulti-core or hyper-threaded) systems.
p87
sVpart-long-xen
p88
VThis kernel also runs on a Xen hypervisor.\u000aIt supports both privileged (dom0) and unprivileged (domU) operation.
p89
ss(Vimage
p90
g14
NVaptosid-amd64
p91
tp92
(dp93
Vconfigs
p94
(lp95
Vkernelarch-x86/config-arch-64
p96
ass(Vdescription
p97
g14
NVaptosid-amd64
p98
tp99
(dp100
Vhardware-long
p101
VPCs with AMD64 or Intel 64 processors
p102
sVhardware
p103
V64-bit PCs
p104
ss(Vbase
p105
g14
tp106
(dp107
Vfeaturesets
p108
(lp109
Vnone
p110
ag29
asVkernel-arch
p111
Vx86
p112
ss(Vimage
p113
tp114
(dp115
Vinitramfs-generators
p116
(lp117
Vinitramfs-tools
p118
aVinitramfs-fallback
p119
asVtype
p120
Vplain
p121
ss(Vxen
p122
g14
g29
Vaptosid-amd64
p123
tp124
(dp125
Vflavours
p126
(lp127
Vaptosid-amd64
p128
ass(Vbuild
p129
g14
tp130
(dp131
Vdebug-info
p132
I00
sVimage-file
p133
Varch/x86/boot/bzImage
p134
ss(Vimage
p135
g5
tp136
(dp137
Vinstall-stem
p138
Vvmlinuz
p139
sVsuggests
p140
Vcrda
p141
sVconfigs
p142
(lp143
sVbootloaders
p144
(lp145
Vgrub-pc
p146
aVextlinux
p147
aVgrub-efi-ia32
p148
ass(Vbase
p149
g5
tp150
(dp151
Vfeaturesets
p152
(lp153
g110
ag6
asVkernel-arch
p154
Vx86
p155
ss(Vbuild
p156
g5
tp157
(dp158
Vdebug-info
p159
I00
sVimage-file
p160
Varch/x86/boot/bzImage
p161
ss(Vbase
p162
tp163
(dp164
Varches
p165
(lp166
Vamd64
p167
aVi386
p168
asVfeaturesets
p169
(lp170
Vnone
p171
asVcompiler
p172
Vgcc-5
p173
sstp174
Rp175
.