ccopy_reg
_reconstructor
p0
(cdebian_linux.config
ConfigCore
p1
c__builtin__
dict
p2
(dp3
(Vbase
p4
Vi386
p5
tp6
(dp7
Vkernel-arch
p8
Vx86
p9
sVfeaturesets
p10
(lp11
Vnone
p12
aVnone
p13
ass(Vbuild
p14
Vamd64
p15
tp16
(dp17
Vimage-file
p18
Varch/x86/boot/bzImage
p19
sVdebug-info
p20
I00
ss(Vversion
p21
tp22
(dp23
Vsource
p24
V4.12-9
p25
sVabiname_base
p26
V4.12.0
p27
sVupstream
p28
V4.12
p29
sVabiname
p30
V4.12.0-4.slh.2
p31
ss(Vimage
p32
g5
tp33
(dp34
Vsuggests
p35
Vcrda
p36
sVbootloaders
p37
(lp38
Vgrub-pc
p39
aVextlinux
p40
aVgrub-efi-ia32
p41
asVinstall-stem
p42
Vvmlinuz
p43
sVbreaks
p44
Vxserver-xorg-input-vmmouse (<< 1:13.0.99)
p45
ss(Vimage
p46
g15
tp47
(dp48
Vsuggests
p49
Vcrda
p50
sVbootloaders
p51
(lp52
Vgrub-pc
p53
aVextlinux
p54
aVgrub-efi-amd64
p55
asVinstall-stem
p56
Vvmlinuz
p57
sVbreaks
p58
Vxserver-xorg-input-vmmouse (<< 1:13.0.99)
p59
ss(Vbase
p60
g15
tp61
(dp62
Vkernel-arch
p63
Vx86
p64
sVfeaturesets
p65
(lp66
g12
aVnone
p67
ass(Vbase
p68
g5
g13
tp69
(dp70
Vflavours
p71
(lp72
Vaptosid-686
p73
asVimplicit-flavour
p74
I01
ss(Vdescription
p75
g15
g67
Vaptosid-amd64
p76
tp77
(dp78
Vparts
p79
(lp80
Vxen
p81
ass(Vimage
p82
tp83
(dp84
Vinitramfs-generators
p85
(lp86
Vinitramfs-tools
p87
aVinitramfs-fallback
p88
ass(Vrelations
p89
tp90
(dp91
Vgcc-6
p92
Vgcc-6
p93
sVinitramfs-fallback
p94
Vlinux-initramfs-tool
p95
sVinitramfs-tools
p96
Vinitramfs-tools (>= 0.121~)
p97
ss(Vbase
p98
g15
g67
tp99
(dp100
g71
(lp101
Vaptosid-amd64
p102
asg74
I01
ss(Vbuild
p103
g5
tp104
(dp105
Vimage-file
p106
Varch/x86/boot/bzImage
p107
sVdebug-info
p108
I00
ss(Vdescription
p109
tp110
(dp111
Vpart-long-xen
p112
VThis kernel also runs on a Xen hypervisor.\u000aIt supports both privileged (dom0) and unprivileged (domU) operation.
p113
sVpart-long-up
p114
VThis kernel is not suitable for SMP (multi-processor,\u000amulti-core or hyper-threaded) systems.
p115
ss(Vdescription
p116
g15
NVaptosid-amd64
p117
tp118
(dp119
Vhardware-long
p120
VPCs with AMD64 or Intel 64 processors
p121
sVhardware
p122
V64-bit PCs
p123
ss(Vbase
p124
tp125
(dp126
Vcompiler
p127
Vgcc-6
p128
sVarches
p129
(lp130
Vamd64
p131
aVi386
p132
asVfeaturesets
p133
(lp134
Vnone
p135
ass(Vabi
p136
tp137
(dp138
Vabiname
p139
V4.slh.2
p140
ss(Vdescription
p141
g5
NVaptosid-686
p142
tp143
(dp144
Vhardware-long
p145
VPCs with Intel Pentium Pro/II/III/4/4M/D/M, Xeon, Celeron, Core or Atom; AMD Geode LX/NX, Athlon (K7), Duron, Opteron, Sempron, Turion or Phenom; Transmeta Efficeon; VIA C3 "Nehemiah" or C7 processors
p146
sVhardware
p147
Vmodern PCs
p148
sstp149
Rp150
.