ccopy_reg
_reconstructor
p0
(cdebian_linux.config
ConfigCore
p1
c__builtin__
dict
p2
(dp3
(Vrelations
p4
tp5
(dp6
Vgcc-6
p7
Vgcc-6
p8
sVinitramfs-tools
p9
Vinitramfs-tools (>= 0.121~)
p10
sVinitramfs-fallback
p11
Vlinux-initramfs-tool
p12
ss(Vdescription
p13
tp14
(dp15
Vpart-long-up
p16
VThis kernel is not suitable for SMP (multi-processor,\u000amulti-core or hyper-threaded) systems.
p17
sVpart-long-xen
p18
VThis kernel also runs on a Xen hypervisor.\u000aIt supports both privileged (dom0) and unprivileged (domU) operation.
p19
ss(Vdescription
p20
Vi386
p21
NVaptosid-686
p22
tp23
(dp24
Vhardware
p25
Vmodern PCs
p26
sVhardware-long
p27
VPCs with Intel Pentium Pro/II/III/4/4M/D/M, Xeon, Celeron, Core or Atom; AMD Geode LX/NX, Athlon (K7), Duron, Opteron, Sempron, Turion or Phenom; Transmeta Efficeon; VIA C3 "Nehemiah" or C7 processors
p28
ss(Vimage
p29
g21
tp30
(dp31
Vbootloaders
p32
(lp33
Vgrub-pc
p34
aVextlinux
p35
aVgrub-efi-ia32
p36
asVsuggests
p37
Vcrda
p38
sVbreaks
p39
Vxserver-xorg-input-vmmouse (<< 1:13.0.99)
p40
sVinstall-stem
p41
Vvmlinuz
p42
ss(Vxen
p43
Vamd64
p44
Vnone
p45
Vaptosid-amd64
p46
tp47
(dp48
Vflavours
p49
(lp50
Vaptosid-amd64
p51
ass(Vbase
p52
tp53
(dp54
Vfeaturesets
p55
(lp56
Vnone
p57
asVarches
p58
(lp59
Vamd64
p60
aVi386
p61
asVcompiler
p62
Vgcc-6
p63
ss(Vimage
p64
g44
tp65
(dp66
Vbootloaders
p67
(lp68
Vgrub-pc
p69
aVextlinux
p70
aVgrub-efi-amd64
p71
asVsuggests
p72
Vcrda
p73
sVbreaks
p74
Vxserver-xorg-input-vmmouse (<< 1:13.0.99)
p75
sVinstall-stem
p76
Vvmlinuz
p77
ss(Vbase
p78
g44
g45
tp79
(dp80
Vflavours
p81
(lp82
Vaptosid-amd64
p83
asVimplicit-flavour
p84
I01
ss(Vimage
p85
tp86
(dp87
Vinitramfs-generators
p88
(lp89
Vinitramfs-tools
p90
aVinitramfs-fallback
p91
ass(Vdescription
p92
g44
g45
Vaptosid-amd64
p93
tp94
(dp95
Vparts
p96
(lp97
Vxen
p98
ass(Vbase
p99
g21
Vnone
p100
tp101
(dp102
g81
(lp103
Vaptosid-686
p104
asg84
I01
ss(Vabi
p105
tp106
(dp107
Vabiname
p108
V3.slh.1
p109
ss(Vbase
p110
g44
tp111
(dp112
Vfeaturesets
p113
(lp114
Vnone
p115
ag45
asVkernel-arch
p116
Vx86
p117
ss(Vversion
p118
tp119
(dp120
Vabiname
p121
V4.7.0-3.slh.1
p122
sVsource
p123
V4.7-14
p124
sVabiname_base
p125
V4.7.0
p126
sVupstream
p127
V4.7
p128
ss(Vbase
p129
g21
tp130
(dp131
Vfeaturesets
p132
(lp133
g115
ag100
asVkernel-arch
p134
Vx86
p135
ss(Vdescription
p136
g44
NVaptosid-amd64
p137
tp138
(dp139
Vhardware
p140
V64-bit PCs
p141
sVhardware-long
p142
VPCs with AMD64 or Intel 64 processors
p143
ss(Vbuild
p144
g21
tp145
(dp146
Vdebug-info
p147
I00
sVimage-file
p148
Varch/x86/boot/bzImage
p149
ss(Vbuild
p150
g44
tp151
(dp152
Vdebug-info
p153
I00
sVimage-file
p154
Varch/x86/boot/bzImage
p155
sstp156
Rp157
.