ccopy_reg
_reconstructor
p0
(cdebian_linux.config
ConfigCore
p1
c__builtin__
dict
p2
(dp3
(Vimage
p4
Vamd64
p5
tp6
(dp7
Vbootloaders
p8
(lp9
Vgrub-pc
p10
aVextlinux
p11
aVgrub-efi-amd64
p12
asVconfigs
p13
(lp14
sVsuggests
p15
Vcrda
p16
sVinstall-stem
p17
Vvmlinuz
p18
ss(Vbase
p19
Vi386
p20
tp21
(dp22
Vfeaturesets
p23
(lp24
Vnone
p25
aVnone
p26
asVkernel-arch
p27
Vx86
p28
ss(Vbase
p29
g5
Vnone
p30
tp31
(dp32
Vflavours
p33
(lp34
Vaptosid-amd64
p35
asVimplicit-flavour
p36
I01
ss(Vdescription
p37
g5
NVaptosid-amd64
p38
tp39
(dp40
Vhardware
p41
V64-bit PCs
p42
sVhardware-long
p43
VPCs with AMD64 or Intel 64 processors
p44
ss(Vbase
p45
g20
g26
tp46
(dp47
g33
(lp48
Vaptosid-686
p49
asg36
I01
ss(Vabi
p50
tp51
(dp52
Vabiname
p53
V0.slh.5
p54
ss(Vimage
p55
g5
NVaptosid-amd64
p56
tp57
(dp58
Vconfigs
p59
(lp60
Vkernelarch-x86/config-arch-64
p61
ass(Vdescription
p62
g5
g30
Vaptosid-amd64
p63
tp64
(dp65
Vparts
p66
(lp67
Vxen
p68
ass(Vbuild
p69
g20
tp70
(dp71
Vimage-file
p72
Varch/x86/boot/bzImage
p73
sVdebug-info
p74
I00
ss(Vbuild
p75
g5
tp76
(dp77
Vimage-file
p78
Varch/x86/boot/bzImage
p79
sVdebug-info
p80
I00
ss(Vdescription
p81
tp82
(dp83
Vpart-long-up
p84
VThis kernel is not suitable for SMP (multi-processor,\u000amulti-core or hyper-threaded) systems.
p85
sVpart-long-xen
p86
VThis kernel also runs on a Xen hypervisor.\u000aIt supports both privileged (dom0) and unprivileged (domU) operation.
p87
ss(Vxen
p88
g5
g30
Vaptosid-amd64
p89
tp90
(dp91
Vflavours
p92
(lp93
Vaptosid-amd64
p94
ass(Vimage
p95
g20
tp96
(dp97
Vbootloaders
p98
(lp99
Vgrub-pc
p100
aVextlinux
p101
aVgrub-efi-ia32
p102
asVconfigs
p103
(lp104
sVsuggests
p105
Vcrda
p106
sVinstall-stem
p107
Vvmlinuz
p108
ss(Vdescription
p109
g20
NVaptosid-686
p110
tp111
(dp112
Vhardware
p113
Vmodern PCs
p114
sVhardware-long
p115
VPCs with Intel Pentium Pro/II/III/4/4M/D/M, Xeon, Celeron, Core or Atom; AMD Geode LX/NX, Athlon (K7), Duron, Opteron, Sempron, Turion or Phenom; Transmeta Efficeon; VIA C3 "Nehemiah" or C7 processors
p116
ss(Vrelations
p117
tp118
(dp119
Vinitramfs-tools
p120
Vinitramfs-tools (>= 0.118+c0.aptosid.1~)
p121
sVinitramfs-fallback
p122
Vlinux-initramfs-tool
p123
sVgcc-5
p124
Vgcc-5
p125
ss(Vimage
p126
tp127
(dp128
Vinitramfs-generators
p129
(lp130
Vinitramfs-tools
p131
aVinitramfs-fallback
p132
asVtype
p133
Vplain
p134
ss(Vbase
p135
g5
tp136
(dp137
Vfeaturesets
p138
(lp139
g25
ag30
asVkernel-arch
p140
Vx86
p141
ss(Vimage
p142
g20
NVaptosid-686
p143
tp144
(dp145
Vconfigs
p146
(lp147
Vkernelarch-x86/config-arch-32
p148
asVrecommends
p149
Vlibc6-i686
p150
ss(Vbase
p151
tp152
(dp153
Vcompiler
p154
Vgcc-5
p155
sVfeaturesets
p156
(lp157
Vnone
p158
asVarches
p159
(lp160
Vamd64
p161
aVi386
p162
ass(Vversion
p163
tp164
(dp165
Vabiname
p166
V4.3.0-0.slh.5
p167
sVupstream
p168
V4.3
p169
sVsource
p170
V4.3-5
p171
sVabiname_base
p172
V4.3.0
p173
sstp174
Rp175
.