ccopy_reg
_reconstructor
p0
(cdebian_linux.config
ConfigCore
p1
c__builtin__
dict
p2
(dp3
(Vimage
p4
Vamd64
p5
tp6
(dp7
Vinstall-stem
p8
Vvmlinuz
p9
sVbootloaders
p10
(lp11
Vgrub-pc
p12
aVextlinux
p13
aVgrub-efi-amd64
p14
asVbreaks
p15
Vxserver-xorg-input-vmmouse (<< 1:13.0.99)
p16
sVsuggests
p17
Vcrda
p18
ss(Vbase
p19
g5
Vnone
p20
tp21
(dp22
Vimplicit-flavour
p23
I01
sVflavours
p24
(lp25
Vaptosid-amd64
p26
ass(Vversion
p27
tp28
(dp29
Vabiname_base
p30
V4.7.0
p31
sVabiname
p32
V4.7.0-6.slh.1
p33
sVupstream
p34
V4.7
p35
sVsource
p36
V4.7-17
p37
ss(Vdescription
p38
g5
NVaptosid-amd64
p39
tp40
(dp41
Vhardware
p42
V64-bit PCs
p43
sVhardware-long
p44
VPCs with AMD64 or Intel 64 processors
p45
ss(Vimage
p46
tp47
(dp48
Vinitramfs-generators
p49
(lp50
Vinitramfs-tools
p51
aVinitramfs-fallback
p52
ass(Vdescription
p53
g5
g20
Vaptosid-amd64
p54
tp55
(dp56
Vparts
p57
(lp58
Vxen
p59
ass(Vrelations
p60
tp61
(dp62
Vgcc-6
p63
Vgcc-6
p64
sVinitramfs-tools
p65
Vinitramfs-tools (>= 0.121~)
p66
sVinitramfs-fallback
p67
Vlinux-initramfs-tool
p68
ss(Vbase
p69
g5
tp70
(dp71
Vkernel-arch
p72
Vx86
p73
sVfeaturesets
p74
(lp75
Vnone
p76
ag20
ass(Vxen
p77
g5
g20
Vaptosid-amd64
p78
tp79
(dp80
Vflavours
p81
(lp82
Vaptosid-amd64
p83
ass(Vbase
p84
Vi386
p85
tp86
(dp87
Vkernel-arch
p88
Vx86
p89
sVfeaturesets
p90
(lp91
g76
aVnone
p92
ass(Vdescription
p93
tp94
(dp95
Vpart-long-xen
p96
VThis kernel also runs on a Xen hypervisor.\u000aIt supports both privileged (dom0) and unprivileged (domU) operation.
p97
sVpart-long-up
p98
VThis kernel is not suitable for SMP (multi-processor,\u000amulti-core or hyper-threaded) systems.
p99
ss(Vbase
p100
tp101
(dp102
Vcompiler
p103
Vgcc-6
p104
sVarches
p105
(lp106
Vamd64
p107
aVi386
p108
asVfeaturesets
p109
(lp110
Vnone
p111
ass(Vbase
p112
g85
g92
tp113
(dp114
g23
I01
sg24
(lp115
Vaptosid-686
p116
ass(Vdescription
p117
g85
NVaptosid-686
p118
tp119
(dp120
Vhardware
p121
Vmodern PCs
p122
sVhardware-long
p123
VPCs with Intel Pentium Pro/II/III/4/4M/D/M, Xeon, Celeron, Core or Atom; AMD Geode LX/NX, Athlon (K7), Duron, Opteron, Sempron, Turion or Phenom; Transmeta Efficeon; VIA C3 "Nehemiah" or C7 processors
p124
ss(Vabi
p125
tp126
(dp127
Vabiname
p128
V6.slh.1
p129
ss(Vbuild
p130
g5
tp131
(dp132
Vdebug-info
p133
I00
sVimage-file
p134
Varch/x86/boot/bzImage
p135
ss(Vimage
p136
g85
tp137
(dp138
Vinstall-stem
p139
Vvmlinuz
p140
sVbootloaders
p141
(lp142
Vgrub-pc
p143
aVextlinux
p144
aVgrub-efi-ia32
p145
asVbreaks
p146
Vxserver-xorg-input-vmmouse (<< 1:13.0.99)
p147
sVsuggests
p148
Vcrda
p149
ss(Vbuild
p150
g85
tp151
(dp152
Vdebug-info
p153
I00
sVimage-file
p154
Varch/x86/boot/bzImage
p155
sstp156
Rp157
.