ccopy_reg
_reconstructor
p0
(cdebian_linux.config
ConfigCore
p1
c__builtin__
dict
p2
(dp3
(Vbase
p4
Vamd64
p5
Vnone
p6
tp7
(dp8
Vimplicit-flavour
p9
I01
sVflavours
p10
(lp11
Vaptosid-amd64
p12
ass(Vbase
p13
Vi386
p14
Vnone
p15
tp16
(dp17
g9
I01
sg10
(lp18
Vaptosid-686
p19
ass(Vimage
p20
g14
tp21
(dp22
Vinstall-stem
p23
Vvmlinuz
p24
sVbootloaders
p25
(lp26
Vgrub-pc
p27
aVextlinux
p28
aVgrub-efi-ia32
p29
asVbreaks
p30
Vxserver-xorg-input-vmmouse (<< 1:13.0.99)
p31
sVsuggests
p32
Vcrda
p33
ss(Vdescription
p34
g14
NVaptosid-686
p35
tp36
(dp37
Vhardware
p38
Vmodern PCs
p39
sVhardware-long
p40
VPCs with Intel Pentium Pro/II/III/4/4M/D/M, Xeon, Celeron, Core or Atom; AMD Geode LX/NX, Athlon (K7), Duron, Opteron, Sempron, Turion or Phenom; Transmeta Efficeon; VIA C3 "Nehemiah" or C7 processors
p41
ss(Vrelations
p42
tp43
(dp44
Vinitramfs-fallback
p45
Vlinux-initramfs-tool
p46
sVgcc-6
p47
Vgcc-6
p48
sVinitramfs-tools
p49
Vinitramfs-tools (>= 0.121~)
p50
ss(Vbase
p51
g14
tp52
(dp53
Vkernel-arch
p54
Vx86
p55
sVfeaturesets
p56
(lp57
Vnone
p58
ag15
ass(Vdescription
p59
g5
g6
Vaptosid-amd64
p60
tp61
(dp62
Vparts
p63
(lp64
Vxen
p65
ass(Vabi
p66
tp67
(dp68
Vabiname
p69
V0.slh.3
p70
ss(Vbuild
p71
g14
tp72
(dp73
Vdebug-info
p74
I00
sVimage-file
p75
Varch/x86/boot/bzImage
p76
ss(Vbuild
p77
g5
tp78
(dp79
Vdebug-info
p80
I00
sVimage-file
p81
Varch/x86/boot/bzImage
p82
ss(Vimage
p83
tp84
(dp85
Vinitramfs-generators
p86
(lp87
Vinitramfs-tools
p88
aVinitramfs-fallback
p89
ass(Vdescription
p90
g5
NVaptosid-amd64
p91
tp92
(dp93
Vhardware
p94
V64-bit PCs
p95
sVhardware-long
p96
VPCs with AMD64 or Intel 64 processors
p97
ss(Vbase
p98
g5
tp99
(dp100
Vkernel-arch
p101
Vx86
p102
sVfeaturesets
p103
(lp104
g58
ag6
ass(Vdescription
p105
tp106
(dp107
Vpart-long-xen
p108
VThis kernel also runs on a Xen hypervisor.\u000aIt supports both privileged (dom0) and unprivileged (domU) operation.
p109
sVpart-long-up
p110
VThis kernel is not suitable for SMP (multi-processor,\u000amulti-core or hyper-threaded) systems.
p111
ss(Vversion
p112
tp113
(dp114
Vsource
p115
V4.9-3
p116
sVupstream
p117
V4.9
p118
sVabiname_base
p119
V4.9.0
p120
sVabiname
p121
V4.9.0-0.slh.3
p122
ss(Vimage
p123
g5
tp124
(dp125
Vinstall-stem
p126
Vvmlinuz
p127
sVbootloaders
p128
(lp129
Vgrub-pc
p130
aVextlinux
p131
aVgrub-efi-amd64
p132
asVbreaks
p133
Vxserver-xorg-input-vmmouse (<< 1:13.0.99)
p134
sVsuggests
p135
Vcrda
p136
ss(Vbase
p137
tp138
(dp139
Vfeaturesets
p140
(lp141
Vnone
p142
asVarches
p143
(lp144
Vamd64
p145
aVi386
p146
asVcompiler
p147
Vgcc-6
p148
sstp149
Rp150
.