ccopy_reg
_reconstructor
p0
(cdebian_linux.config
ConfigCore
p1
c__builtin__
dict
p2
(dp3
(Vbase
p4
Vi386
p5
tp6
(dp7
Vfeaturesets
p8
(lp9
Vnone
p10
aVnone
p11
asVkernel-arch
p12
Vx86
p13
ss(Vbuild
p14
Vamd64
p15
tp16
(dp17
Vdebug-info
p18
I00
sVimage-file
p19
Varch/x86/boot/bzImage
p20
ss(Vimage
p21
tp22
(dp23
Vinitramfs-generators
p24
(lp25
Vinitramfs-tools
p26
aVinitramfs-fallback
p27
ass(Vdescription
p28
tp29
(dp30
Vpart-long-up
p31
VThis kernel is not suitable for SMP (multi-processor,\u000amulti-core or hyper-threaded) systems.
p32
sVpart-long-xen
p33
VThis kernel also runs on a Xen hypervisor.\u000aIt supports both privileged (dom0) and unprivileged (domU) operation.
p34
ss(Vbuild
p35
g5
tp36
(dp37
Vdebug-info
p38
I00
sVimage-file
p39
Varch/x86/boot/bzImage
p40
ss(Vbase
p41
tp42
(dp43
Vcompiler
p44
Vgcc-6
p45
sVarches
p46
(lp47
Vamd64
p48
aVi386
p49
asVfeaturesets
p50
(lp51
Vnone
p52
ass(Vbase
p53
g15
tp54
(dp55
Vfeaturesets
p56
(lp57
g10
aVnone
p58
asVkernel-arch
p59
Vx86
p60
ss(Vimage
p61
g5
tp62
(dp63
Vsuggests
p64
Vcrda
p65
sVbreaks
p66
Vxserver-xorg-input-vmmouse (<< 1:13.0.99)
p67
sVbootloaders
p68
(lp69
Vgrub-pc
p70
aVextlinux
p71
aVgrub-efi-ia32
p72
asVinstall-stem
p73
Vvmlinuz
p74
ss(Vdescription
p75
g15
NVaptosid-amd64
p76
tp77
(dp78
Vhardware-long
p79
VPCs with AMD64 or Intel 64 processors
p80
sVhardware
p81
V64-bit PCs
p82
ss(Vversion
p83
tp84
(dp85
Vabiname
p86
V4.9.0-4.slh.1
p87
sVabiname_base
p88
V4.9.0
p89
sVsource
p90
V4.9-8
p91
sVupstream
p92
V4.9
p93
ss(Vdescription
p94
g15
g58
Vaptosid-amd64
p95
tp96
(dp97
Vparts
p98
(lp99
Vxen
p100
ass(Vrelations
p101
tp102
(dp103
Vgcc-6
p104
Vgcc-6
p105
sVinitramfs-tools
p106
Vinitramfs-tools (>= 0.121~)
p107
sVinitramfs-fallback
p108
Vlinux-initramfs-tool
p109
ss(Vbase
p110
g5
g11
tp111
(dp112
Vimplicit-flavour
p113
I01
sVflavours
p114
(lp115
Vaptosid-686
p116
ass(Vdescription
p117
g5
NVaptosid-686
p118
tp119
(dp120
Vhardware-long
p121
VPCs with Intel Pentium Pro/II/III/4/4M/D/M, Xeon, Celeron, Core or Atom; AMD Geode LX/NX, Athlon (K7), Duron, Opteron, Sempron, Turion or Phenom; Transmeta Efficeon; VIA C3 "Nehemiah" or C7 processors
p122
sVhardware
p123
Vmodern PCs
p124
ss(Vabi
p125
tp126
(dp127
Vabiname
p128
V4.slh.1
p129
ss(Vbase
p130
g15
g58
tp131
(dp132
g113
I01
sg114
(lp133
Vaptosid-amd64
p134
ass(Vimage
p135
g15
tp136
(dp137
Vsuggests
p138
Vcrda
p139
sVbreaks
p140
Vxserver-xorg-input-vmmouse (<< 1:13.0.99)
p141
sVbootloaders
p142
(lp143
Vgrub-pc
p144
aVextlinux
p145
aVgrub-efi-amd64
p146
asVinstall-stem
p147
Vvmlinuz
p148
sstp149
Rp150
.