ccopy_reg
_reconstructor
p0
(cdebian_linux.config
ConfigCore
p1
c__builtin__
dict
p2
(dp3
(Vdescription
p4
Vi386
p5
NVaptosid-686
p6
tp7
(dp8
Vhardware-long
p9
VPCs with Intel Pentium Pro/II/III/4/4M/D/M, Xeon, Celeron, Core or Atom; AMD Geode LX/NX, Athlon (K7), Duron, Opteron, Sempron, Turion or Phenom; Transmeta Efficeon; VIA C3 "Nehemiah" or C7 processors
p10
sVhardware
p11
Vmodern PCs
p12
ss(Vrelations
p13
tp14
(dp15
Vinitramfs-tools
p16
Vinitramfs-tools (>= 0.121~)
p17
sVinitramfs-fallback
p18
Vlinux-initramfs-tool
p19
sVgcc-5
p20
Vgcc-5
p21
ss(Vbuild
p22
Vamd64
p23
tp24
(dp25
Vimage-file
p26
Varch/x86/boot/bzImage
p27
sVdebug-info
p28
I00
ss(Vbase
p29
tp30
(dp31
Vfeaturesets
p32
(lp33
Vnone
p34
asVarches
p35
(lp36
Vamd64
p37
aVi386
p38
asVcompiler
p39
Vgcc-5
p40
ss(Vversion
p41
tp42
(dp43
Vsource
p44
V4.5-5
p45
sVabiname_base
p46
V4.5.0
p47
sVabiname
p48
V4.5.0-1.slh.2
p49
sVupstream
p50
V4.5
p51
ss(Vdescription
p52
g23
Vnone
p53
Vaptosid-amd64
p54
tp55
(dp56
Vparts
p57
(lp58
Vxen
p59
ass(Vdescription
p60
g23
NVaptosid-amd64
p61
tp62
(dp63
Vhardware-long
p64
VPCs with AMD64 or Intel 64 processors
p65
sVhardware
p66
V64-bit PCs
p67
ss(Vdescription
p68
tp69
(dp70
Vpart-long-up
p71
VThis kernel is not suitable for SMP (multi-processor,\u000amulti-core or hyper-threaded) systems.
p72
sVpart-long-xen
p73
VThis kernel also runs on a Xen hypervisor.\u000aIt supports both privileged (dom0) and unprivileged (domU) operation.
p74
ss(Vxen
p75
g23
g53
Vaptosid-amd64
p76
tp77
(dp78
Vflavours
p79
(lp80
Vaptosid-amd64
p81
ass(Vbuild
p82
g5
tp83
(dp84
Vimage-file
p85
Varch/x86/boot/bzImage
p86
sVdebug-info
p87
I00
ss(Vimage
p88
g5
tp89
(dp90
Vbootloaders
p91
(lp92
Vgrub-pc
p93
aVextlinux
p94
aVgrub-efi-ia32
p95
asVsuggests
p96
Vcrda
p97
sVconfigs
p98
(lp99
sVinstall-stem
p100
Vvmlinuz
p101
ss(Vimage
p102
tp103
(dp104
Vtype
p105
Vplain
p106
sVinitramfs-generators
p107
(lp108
Vinitramfs-tools
p109
aVinitramfs-fallback
p110
ass(Vimage
p111
g23
tp112
(dp113
Vbootloaders
p114
(lp115
Vgrub-pc
p116
aVextlinux
p117
aVgrub-efi-amd64
p118
asVsuggests
p119
Vcrda
p120
sVconfigs
p121
(lp122
sVinstall-stem
p123
Vvmlinuz
p124
ss(Vbase
p125
g23
tp126
(dp127
Vkernel-arch
p128
Vx86
p129
sVfeaturesets
p130
(lp131
Vnone
p132
ag53
ass(Vbase
p133
g5
tp134
(dp135
Vkernel-arch
p136
Vx86
p137
sVfeaturesets
p138
(lp139
g132
aVnone
p140
ass(Vbase
p141
g5
g140
tp142
(dp143
Vflavours
p144
(lp145
Vaptosid-686
p146
asVimplicit-flavour
p147
I01
ss(Vbase
p148
g23
g53
tp149
(dp150
g144
(lp151
Vaptosid-amd64
p152
asg147
I01
ss(Vabi
p153
tp154
(dp155
Vabiname
p156
V1.slh.2
p157
ss(Vimage
p158
g5
NVaptosid-686
p159
tp160
(dp161
Vrecommends
p162
Vlibc6-i686
p163
sVconfigs
p164
(lp165
Vkernelarch-x86/config-arch-32
p166
ass(Vimage
p167
g23
NVaptosid-amd64
p168
tp169
(dp170
Vconfigs
p171
(lp172
Vkernelarch-x86/config-arch-64
p173
asstp174
Rp175
.