ccopy_reg
_reconstructor
p0
(cdebian_linux.config
ConfigCore
p1
c__builtin__
dict
p2
(dp3
(Vbase
p4
Vi386
p5
tp6
(dp7
Vkernel-arch
p8
Vx86
p9
sVfeaturesets
p10
(lp11
Vnone
p12
aVnone
p13
ass(Vimage
p14
g5
tp15
(dp16
Vinstall-stem
p17
Vvmlinuz
p18
sVbootloaders
p19
(lp20
Vgrub-pc
p21
aVextlinux
p22
aVgrub-efi-ia32
p23
asVsuggests
p24
Vcrda
p25
sVbreaks
p26
Vxserver-xorg-input-vmmouse (<< 1:13.0.99)
p27
ss(Vbase
p28
Vamd64
p29
Vnone
p30
tp31
(dp32
Vimplicit-flavour
p33
I01
sVflavours
p34
(lp35
Vaptosid-amd64
p36
ass(Vdescription
p37
g5
NVaptosid-686
p38
tp39
(dp40
Vhardware
p41
Vmodern PCs
p42
sVhardware-long
p43
VPCs with Intel Pentium Pro/II/III/4/4M/D/M, Xeon, Celeron, Core or Atom; AMD Geode LX/NX, Athlon (K7), Duron, Opteron, Sempron, Turion or Phenom; Transmeta Efficeon; VIA C3 "Nehemiah" or C7 processors
p44
ss(Vbase
p45
g29
tp46
(dp47
Vkernel-arch
p48
Vx86
p49
sVfeaturesets
p50
(lp51
g12
ag30
ass(Vbase
p52
g5
g13
tp53
(dp54
g33
I01
sg34
(lp55
Vaptosid-686
p56
ass(Vbuild
p57
g29
tp58
(dp59
Vimage-file
p60
Varch/x86/boot/bzImage
p61
sVdebug-info
p62
I00
ss(Vabi
p63
tp64
(dp65
Vabiname
p66
V1.slh.2
p67
ss(Vdescription
p68
g29
g30
Vaptosid-amd64
p69
tp70
(dp71
Vparts
p72
(lp73
Vxen
p74
ass(Vbuild
p75
g5
tp76
(dp77
Vimage-file
p78
Varch/x86/boot/bzImage
p79
sVdebug-info
p80
I00
ss(Vimage
p81
tp82
(dp83
Vinitramfs-generators
p84
(lp85
Vinitramfs-tools
p86
aVinitramfs-fallback
p87
ass(Vrelations
p88
tp89
(dp90
Vgcc-6
p91
Vgcc-6
p92
sVinitramfs-tools
p93
Vinitramfs-tools (>= 0.121~)
p94
sVinitramfs-fallback
p95
Vlinux-initramfs-tool
p96
ss(Vdescription
p97
tp98
(dp99
Vpart-long-xen
p100
VThis kernel also runs on a Xen hypervisor.\u000aIt supports both privileged (dom0) and unprivileged (domU) operation.
p101
sVpart-long-up
p102
VThis kernel is not suitable for SMP (multi-processor,\u000amulti-core or hyper-threaded) systems.
p103
ss(Vbase
p104
tp105
(dp106
Varches
p107
(lp108
Vamd64
p109
aVi386
p110
asVcompiler
p111
Vgcc-6
p112
sVfeaturesets
p113
(lp114
Vnone
p115
ass(Vversion
p116
tp117
(dp118
Vsource
p119
V4.9-5
p120
sVabiname_base
p121
V4.9.0
p122
sVupstream
p123
V4.9
p124
sVabiname
p125
V4.9.0-1.slh.2
p126
ss(Vdescription
p127
g29
NVaptosid-amd64
p128
tp129
(dp130
Vhardware
p131
V64-bit PCs
p132
sVhardware-long
p133
VPCs with AMD64 or Intel 64 processors
p134
ss(Vimage
p135
g29
tp136
(dp137
Vinstall-stem
p138
Vvmlinuz
p139
sVbootloaders
p140
(lp141
Vgrub-pc
p142
aVextlinux
p143
aVgrub-efi-amd64
p144
asVsuggests
p145
Vcrda
p146
sVbreaks
p147
Vxserver-xorg-input-vmmouse (<< 1:13.0.99)
p148
sstp149
Rp150
.