ccopy_reg
_reconstructor
p0
(cdebian_linux.config
ConfigCore
p1
c__builtin__
dict
p2
(dp3
(Vxen
p4
Vamd64
p5
Vnone
p6
Vaptosid-amd64
p7
tp8
(dp9
Vflavours
p10
(lp11
Vaptosid-amd64
p12
ass(Vbase
p13
Vi386
p14
tp15
(dp16
Vkernel-arch
p17
Vx86
p18
sVfeaturesets
p19
(lp20
Vnone
p21
aVnone
p22
ass(Vdescription
p23
g5
g6
Vaptosid-amd64
p24
tp25
(dp26
Vparts
p27
(lp28
Vxen
p29
ass(Vimage
p30
tp31
(dp32
Vinitramfs-generators
p33
(lp34
Vinitramfs-tools
p35
aVinitramfs-fallback
p36
ass(Vimage
p37
g14
tp38
(dp39
Vbreaks
p40
Vxserver-xorg-input-vmmouse (<< 1:13.0.99)
p41
sVinstall-stem
p42
Vvmlinuz
p43
sVbootloaders
p44
(lp45
Vgrub-pc
p46
aVextlinux
p47
aVgrub-efi-ia32
p48
asVsuggests
p49
Vcrda
p50
ss(Vrelations
p51
tp52
(dp53
Vinitramfs-fallback
p54
Vlinux-initramfs-tool
p55
sVgcc-6
p56
Vgcc-6
p57
sVinitramfs-tools
p58
Vinitramfs-tools (>= 0.121~)
p59
ss(Vbuild
p60
g5
tp61
(dp62
Vimage-file
p63
Varch/x86/boot/bzImage
p64
sVdebug-info
p65
I00
ss(Vversion
p66
tp67
(dp68
Vupstream
p69
V4.8
p70
sVsource
p71
V4.8-22
p72
sVabiname_base
p73
V4.8.0
p74
sVabiname
p75
V4.8.0-13.slh.1
p76
ss(Vabi
p77
tp78
(dp79
Vabiname
p80
V13.slh.1
p81
ss(Vdescription
p82
tp83
(dp84
Vpart-long-up
p85
VThis kernel is not suitable for SMP (multi-processor,\u000amulti-core or hyper-threaded) systems.
p86
sVpart-long-xen
p87
VThis kernel also runs on a Xen hypervisor.\u000aIt supports both privileged (dom0) and unprivileged (domU) operation.
p88
ss(Vbase
p89
g5
tp90
(dp91
Vkernel-arch
p92
Vx86
p93
sVfeaturesets
p94
(lp95
g21
ag6
ass(Vbuild
p96
g14
tp97
(dp98
Vimage-file
p99
Varch/x86/boot/bzImage
p100
sVdebug-info
p101
I00
ss(Vdescription
p102
g5
NVaptosid-amd64
p103
tp104
(dp105
Vhardware-long
p106
VPCs with AMD64 or Intel 64 processors
p107
sVhardware
p108
V64-bit PCs
p109
ss(Vbase
p110
g5
g6
tp111
(dp112
Vimplicit-flavour
p113
I01
sVflavours
p114
(lp115
Vaptosid-amd64
p116
ass(Vimage
p117
g5
tp118
(dp119
Vbreaks
p120
Vxserver-xorg-input-vmmouse (<< 1:13.0.99)
p121
sVinstall-stem
p122
Vvmlinuz
p123
sVbootloaders
p124
(lp125
Vgrub-pc
p126
aVextlinux
p127
aVgrub-efi-amd64
p128
asVsuggests
p129
Vcrda
p130
ss(Vbase
p131
g14
g22
tp132
(dp133
g113
I01
sg114
(lp134
Vaptosid-686
p135
ass(Vbase
p136
tp137
(dp138
Vcompiler
p139
Vgcc-6
p140
sVarches
p141
(lp142
Vamd64
p143
aVi386
p144
asVfeaturesets
p145
(lp146
Vnone
p147
ass(Vdescription
p148
g14
NVaptosid-686
p149
tp150
(dp151
Vhardware-long
p152
VPCs with Intel Pentium Pro/II/III/4/4M/D/M, Xeon, Celeron, Core or Atom; AMD Geode LX/NX, Athlon (K7), Duron, Opteron, Sempron, Turion or Phenom; Transmeta Efficeon; VIA C3 "Nehemiah" or C7 processors
p153
sVhardware
p154
Vmodern PCs
p155
sstp156
Rp157
.