ccopy_reg
_reconstructor
p1
(cdebian_linux.config
ConfigCore
p2
c__builtin__
dict
p3
(dp4
(S'image'
S'amd64'
p5
tp6
(dp7
S'suggests'
p8
S'crda'
p9
sS'configs'
p10
(lp11
S'kernelarch-x86/config'
p12
asS'bootloaders'
p13
(lp14
S'grub-pc'
p15
aS'extlinux'
p16
aS'grub-efi-amd64'
p17
ass(S'description'
S'i386'
p18
NS'aptosid-686'
tp19
(dp20
S'hardware'
p21
S'modern PCs'
p22
sS'hardware-long'
p23
S'PCs with Intel Pentium Pro/II/III/4/4M/D/M, Xeon, Celeron, Core or Atom; AMD Geode LX/NX, Athlon (K7), Duron, Opteron, Sempron, Turion or Phenom; Transmeta Efficeon; VIA C3 "Nehemiah" or C7 processors'
p24
ss(S'base'
p25
g5
S'none'
p26
tp27
(dp28
S'implicit-flavour'
p29
I01
sS'flavours'
p30
(lp31
S'aptosid-amd64'
p32
ass(S'build'
g5
NS'aptosid-amd64'
tp33
(dp34
S'debug-info'
p35
I00
ss(S'base'
g5
tp36
(dp37
S'kernel-arch'
p38
S'x86'
p39
sS'featuresets'
p40
(lp41
g26
ass(S'image'
p42
tp43
(dp44
S'initramfs-generators'
p45
(lp46
S'initramfs-tools'
p47
aS'initramfs-fallback'
p48
asS'type'
p49
S'plain'
p50
ss(S'build'
g18
NS'aptosid-686'
tp51
(dp52
S'debug-info'
p53
I00
ss(S'description'
g5
NS'aptosid-amd64'
tp54
(dp55
S'hardware'
p56
S'64-bit PCs'
p57
sS'hardware-long'
p58
S'PCs with AMD64 or Intel 64 processors'
p59
ss(S'version'
p60
tp61
(dp62
S'abiname'
p63
S'3.12-5.slh.1'
p64
sS'source'
p65
V3.12-17
p66
ss(S'image'
g5
NS'aptosid-amd64'
tp67
(dp68
S'configs'
p69
(lp70
S'kernelarch-x86/config-arch-64'
p71
ass(S'base'
p72
g18
tp73
(dp74
S'kernel-arch'
p75
S'x86'
p76
sg40
(lp77
g26
ass(S'abi'
p78
tp79
(dp80
S'abiname'
p81
S'5.slh.1'
p82
ss(S'image'
p83
g18
tp84
(dp85
S'suggests'
p86
S'crda'
p87
sS'configs'
p88
(lp89
S'kernelarch-x86/config'
p90
asS'bootloaders'
p91
(lp92
S'grub-pc'
p93
aS'extlinux'
p94
ass(g25
g18
g26
tp95
(dp96
g29
I01
sg30
(lp97
S'aptosid-686'
p98
ass(S'base'
p99
tp100
(dp101
S'arches'
p102
(lp103
S'amd64'
p104
aS'i386'
p105
asS'featuresets'
p106
(lp107
S'none'
p108
asS'compiler'
p109
S'gcc-4.8'
p110
ss(S'relations'
p111
tp112
(dp113
S'initramfs-fallback'
p114
S'linux-initramfs-tool'
p115
sS'lilo'
p116
S'lilo (>= 22.8-8.2~)'
p117
sS'gcc-4.8'
p118
S'gcc-4.8'
p119
sS'initramfs-tools'
p120
S'initramfs-tools (>= 0.110~)'
p121
sS'elilo'
p122
S'elilo (>= 3.12-3.1~)'
p123
ss(S'image'
g18
NS'aptosid-686'
tp124
(dp125
S'configs'
p126
(lp127
S'kernelarch-x86/config-arch-32'
p128
asS'recommends'
p129
S'libc6-i686'
p130
sstRp131
.