ccopy_reg
_reconstructor
p0
(cdebian_linux.config
ConfigCore
p1
c__builtin__
dict
p2
(dp3
(Vbuild
p4
Vamd64
p5
tp6
(dp7
Vdebug-info
p8
I00
sVimage-file
p9
Varch/x86/boot/bzImage
p10
ss(Vimage
p11
tp12
(dp13
Vinitramfs-generators
p14
(lp15
Vinitramfs-tools
p16
aVinitramfs-fallback
p17
ass(Vimage
p18
g5
tp19
(dp20
Vsuggests
p21
Vcrda
p22
sVbootloaders
p23
(lp24
Vgrub-pc
p25
aVextlinux
p26
aVgrub-efi-amd64
p27
asVbreaks
p28
Vxserver-xorg-input-vmmouse (<< 1:13.0.99)
p29
sVinstall-stem
p30
Vvmlinuz
p31
ss(Vbase
p32
Vi386
p33
tp34
(dp35
Vkernel-arch
p36
Vx86
p37
sVfeaturesets
p38
(lp39
Vnone
p40
aVnone
p41
ass(Vbase
p42
g33
g41
tp43
(dp44
Vimplicit-flavour
p45
I01
sVflavours
p46
(lp47
Vaptosid-686
p48
ass(Vversion
p49
tp50
(dp51
Vabiname_base
p52
V4.11.0
p53
sVabiname
p54
V4.11.0-1.slh.1
p55
sVupstream
p56
V4.11
p57
sVsource
p58
V4.11-5
p59
ss(Vabi
p60
tp61
(dp62
Vabiname
p63
V1.slh.1
p64
ss(Vdescription
p65
g33
NVaptosid-686
p66
tp67
(dp68
Vhardware
p69
Vmodern PCs
p70
sVhardware-long
p71
VPCs with Intel Pentium Pro/II/III/4/4M/D/M, Xeon, Celeron, Core or Atom; AMD Geode LX/NX, Athlon (K7), Duron, Opteron, Sempron, Turion or Phenom; Transmeta Efficeon; VIA C3 "Nehemiah" or C7 processors
p72
ss(Vbase
p73
g5
tp74
(dp75
Vkernel-arch
p76
Vx86
p77
sVfeaturesets
p78
(lp79
g40
aVnone
p80
ass(Vbase
p81
tp82
(dp83
Varches
p84
(lp85
Vamd64
p86
aVi386
p87
asVcompiler
p88
Vgcc-6
p89
sVfeaturesets
p90
(lp91
Vnone
p92
ass(Vbase
p93
g5
g80
tp94
(dp95
g45
I01
sg46
(lp96
Vaptosid-amd64
p97
ass(Vdescription
p98
g5
g80
Vaptosid-amd64
p99
tp100
(dp101
Vparts
p102
(lp103
Vxen
p104
ass(Vrelations
p105
tp106
(dp107
Vinitramfs-fallback
p108
Vlinux-initramfs-tool
p109
sVgcc-6
p110
Vgcc-6
p111
sVinitramfs-tools
p112
Vinitramfs-tools (>= 0.121~)
p113
ss(Vbuild
p114
g33
tp115
(dp116
Vdebug-info
p117
I00
sVimage-file
p118
Varch/x86/boot/bzImage
p119
ss(Vimage
p120
g33
tp121
(dp122
Vsuggests
p123
Vcrda
p124
sVbootloaders
p125
(lp126
Vgrub-pc
p127
aVextlinux
p128
aVgrub-efi-ia32
p129
asVbreaks
p130
Vxserver-xorg-input-vmmouse (<< 1:13.0.99)
p131
sVinstall-stem
p132
Vvmlinuz
p133
ss(Vdescription
p134
tp135
(dp136
Vpart-long-xen
p137
VThis kernel also runs on a Xen hypervisor.\u000aIt supports both privileged (dom0) and unprivileged (domU) operation.
p138
sVpart-long-up
p139
VThis kernel is not suitable for SMP (multi-processor,\u000amulti-core or hyper-threaded) systems.
p140
ss(Vdescription
p141
g5
NVaptosid-amd64
p142
tp143
(dp144
Vhardware
p145
V64-bit PCs
p146
sVhardware-long
p147
VPCs with AMD64 or Intel 64 processors
p148
sstp149
Rp150
.