ccopy_reg
_reconstructor
p0
(cdebian_linux.config
ConfigCore
p1
c__builtin__
dict
p2
(dp3
(Vbuild
p4
Vi386
p5
tp6
(dp7
Vimage-file
p8
Varch/x86/boot/bzImage
p9
sVdebug-info
p10
I00
ss(Vbuild
p11
Vamd64
p12
tp13
(dp14
Vimage-file
p15
Varch/x86/boot/bzImage
p16
sVdebug-info
p17
I00
ss(Vbase
p18
g5
Vnone
p19
tp20
(dp21
Vflavours
p22
(lp23
Vaptosid-686
p24
asVimplicit-flavour
p25
I01
ss(Vdescription
p26
tp27
(dp28
Vpart-long-xen
p29
VThis kernel also runs on a Xen hypervisor.\u000aIt supports both privileged (dom0) and unprivileged (domU) operation.
p30
sVpart-long-up
p31
VThis kernel is not suitable for SMP (multi-processor,\u000amulti-core or hyper-threaded) systems.
p32
ss(Vimage
p33
tp34
(dp35
Vinitramfs-generators
p36
(lp37
Vinitramfs-tools
p38
aVinitramfs-fallback
p39
ass(Vbase
p40
tp41
(dp42
Vfeaturesets
p43
(lp44
Vnone
p45
asVarches
p46
(lp47
Vamd64
p48
aVi386
p49
asVcompiler
p50
Vgcc-6
p51
ss(Vversion
p52
tp53
(dp54
Vabiname
p55
V4.11.0-1.slh.2
p56
sVupstream
p57
V4.11
p58
sVsource
p59
V4.11-6
p60
sVabiname_base
p61
V4.11.0
p62
ss(Vdescription
p63
g12
Vnone
p64
Vaptosid-amd64
p65
tp66
(dp67
Vparts
p68
(lp69
Vxen
p70
ass(Vbase
p71
g5
tp72
(dp73
Vkernel-arch
p74
Vx86
p75
sVfeaturesets
p76
(lp77
Vnone
p78
ag19
ass(Vimage
p79
g12
tp80
(dp81
Vsuggests
p82
Vcrda
p83
sVinstall-stem
p84
Vvmlinuz
p85
sVbreaks
p86
Vxserver-xorg-input-vmmouse (<< 1:13.0.99)
p87
sVbootloaders
p88
(lp89
Vgrub-pc
p90
aVextlinux
p91
aVgrub-efi-amd64
p92
ass(Vdescription
p93
g5
NVaptosid-686
p94
tp95
(dp96
Vhardware
p97
Vmodern PCs
p98
sVhardware-long
p99
VPCs with Intel Pentium Pro/II/III/4/4M/D/M, Xeon, Celeron, Core or Atom; AMD Geode LX/NX, Athlon (K7), Duron, Opteron, Sempron, Turion or Phenom; Transmeta Efficeon; VIA C3 "Nehemiah" or C7 processors
p100
ss(Vdescription
p101
g12
NVaptosid-amd64
p102
tp103
(dp104
Vhardware
p105
V64-bit PCs
p106
sVhardware-long
p107
VPCs with AMD64 or Intel 64 processors
p108
ss(Vrelations
p109
tp110
(dp111
Vinitramfs-fallback
p112
Vlinux-initramfs-tool
p113
sVgcc-6
p114
Vgcc-6
p115
sVinitramfs-tools
p116
Vinitramfs-tools (>= 0.121~)
p117
ss(Vimage
p118
g5
tp119
(dp120
Vsuggests
p121
Vcrda
p122
sVinstall-stem
p123
Vvmlinuz
p124
sVbreaks
p125
Vxserver-xorg-input-vmmouse (<< 1:13.0.99)
p126
sVbootloaders
p127
(lp128
Vgrub-pc
p129
aVextlinux
p130
aVgrub-efi-ia32
p131
ass(Vbase
p132
g12
g64
tp133
(dp134
g22
(lp135
Vaptosid-amd64
p136
asg25
I01
ss(Vbase
p137
g12
tp138
(dp139
Vkernel-arch
p140
Vx86
p141
sVfeaturesets
p142
(lp143
g78
ag64
ass(Vabi
p144
tp145
(dp146
Vabiname
p147
V1.slh.2
p148
sstp149
Rp150
.