ccopy_reg
_reconstructor
p0
(cdebian_linux.config
ConfigCore
p1
c__builtin__
dict
p2
(dp3
(Vbase
p4
Vi386
p5
tp6
(dp7
Vkernel-arch
p8
Vx86
p9
sVfeaturesets
p10
(lp11
Vnone
p12
aVnone
p13
ass(Vdescription
p14
Vamd64
p15
NVaptosid-amd64
p16
tp17
(dp18
Vhardware-long
p19
VPCs with AMD64 or Intel 64 processors
p20
sVhardware
p21
V64-bit PCs
p22
ss(Vbase
p23
g5
g13
tp24
(dp25
Vflavours
p26
(lp27
Vaptosid-686
p28
asVimplicit-flavour
p29
I01
ss(Vrelations
p30
tp31
(dp32
Vgcc-7
p33
Vgcc-7
p34
sVinitramfs-fallback
p35
Vlinux-initramfs-tool
p36
sVinitramfs-tools
p37
Vinitramfs-tools (>= 0.121~)
p38
ss(Vdescription
p39
g15
Vnone
p40
Vaptosid-amd64
p41
tp42
(dp43
Vparts
p44
(lp45
Vxen
p46
ass(Vimage
p47
tp48
(dp49
Vinitramfs-generators
p50
(lp51
Vinitramfs-tools
p52
aVinitramfs-fallback
p53
ass(Vversion
p54
tp55
(dp56
Vabiname
p57
V4.12.0-7.slh.1
p58
sVabiname_base
p59
V4.12.0
p60
sVupstream
p61
V4.12
p62
sVsource
p63
V4.12-14
p64
ss(Vbase
p65
tp66
(dp67
Vcompiler
p68
Vgcc-7
p69
sVfeaturesets
p70
(lp71
Vnone
p72
asVarches
p73
(lp74
Vamd64
p75
aVi386
p76
ass(Vbase
p77
g15
tp78
(dp79
Vkernel-arch
p80
Vx86
p81
sVfeaturesets
p82
(lp83
g12
ag40
ass(Vimage
p84
g15
tp85
(dp86
Vbreaks
p87
Vxserver-xorg-input-vmmouse (<< 1:13.0.99)
p88
sVinstall-stem
p89
Vvmlinuz
p90
sVbootloaders
p91
(lp92
Vgrub-pc
p93
aVextlinux
p94
aVgrub-efi-amd64
p95
asVsuggests
p96
Vcrda
p97
ss(Vdescription
p98
tp99
(dp100
Vpart-long-xen
p101
VThis kernel also runs on a Xen hypervisor.\u000aIt supports both privileged (dom0) and unprivileged (domU) operation.
p102
sVpart-long-up
p103
VThis kernel is not suitable for SMP (multi-processor,\u000amulti-core or hyper-threaded) systems.
p104
ss(Vbase
p105
g15
g40
tp106
(dp107
g26
(lp108
Vaptosid-amd64
p109
asg29
I01
ss(Vabi
p110
tp111
(dp112
Vabiname
p113
V7.slh.1
p114
ss(Vbuild
p115
g5
tp116
(dp117
Vimage-file
p118
Varch/x86/boot/bzImage
p119
sVdebug-info
p120
I00
ss(Vimage
p121
g5
tp122
(dp123
Vbreaks
p124
Vxserver-xorg-input-vmmouse (<< 1:13.0.99)
p125
sVinstall-stem
p126
Vvmlinuz
p127
sVbootloaders
p128
(lp129
Vgrub-pc
p130
aVextlinux
p131
aVgrub-efi-ia32
p132
asVsuggests
p133
Vcrda
p134
ss(Vdescription
p135
g5
NVaptosid-686
p136
tp137
(dp138
Vhardware-long
p139
VPCs with Intel Pentium Pro/II/III/4/4M/D/M, Xeon, Celeron, Core or Atom; AMD Geode LX/NX, Athlon (K7), Duron, Opteron, Sempron, Turion or Phenom; Transmeta Efficeon; VIA C3 "Nehemiah" or C7 processors
p140
sVhardware
p141
Vmodern PCs
p142
ss(Vbuild
p143
g15
tp144
(dp145
Vimage-file
p146
Varch/x86/boot/bzImage
p147
sVdebug-info
p148
I00
sstp149
Rp150
.