ccopy_reg
_reconstructor
p0
(cdebian_linux.config
ConfigCore
p1
c__builtin__
dict
p2
(dp3
(Vbase
p4
Vamd64
p5
tp6
(dp7
Vfeaturesets
p8
(lp9
Vnone
p10
aVnone
p11
asVkernel-arch
p12
Vx86
p13
ss(Vimage
p14
Vi386
p15
tp16
(dp17
Vbreaks
p18
Vxserver-xorg-input-vmmouse (<< 1:13.0.99)
p19
sVinstall-stem
p20
Vvmlinuz
p21
sVsuggests
p22
Vcrda
p23
sVbootloaders
p24
(lp25
Vgrub-pc
p26
aVextlinux
p27
aVgrub-efi-ia32
p28
ass(Vbuild
p29
g5
tp30
(dp31
Vdebug-info
p32
I00
sVimage-file
p33
Varch/x86/boot/bzImage
p34
ss(Vrelations
p35
tp36
(dp37
Vgcc-7
p38
Vgcc-7
p39
sVinitramfs-tools
p40
Vinitramfs-tools (>= 0.121~)
p41
sVinitramfs-fallback
p42
Vlinux-initramfs-tool
p43
ss(Vdescription
p44
g5
g11
Vaptosid-amd64
p45
tp46
(dp47
Vparts
p48
(lp49
Vxen
p50
ass(Vdescription
p51
g15
NVaptosid-686
p52
tp53
(dp54
Vhardware
p55
Vmodern PCs
p56
sVhardware-long
p57
VPCs with Intel Pentium Pro/II/III/4/4M/D/M, Xeon, Celeron, Core or Atom; AMD Geode LX/NX, Athlon (K7), Duron, Opteron, Sempron, Turion or Phenom; Transmeta Efficeon; VIA C3 "Nehemiah" or C7 processors
p58
ss(Vimage
p59
tp60
(dp61
Vinitramfs-generators
p62
(lp63
Vinitramfs-tools
p64
aVinitramfs-fallback
p65
ass(Vversion
p66
tp67
(dp68
Vsource
p69
V4.13-7
p70
sVabiname
p71
V4.13.0-3.slh.1
p72
sVupstream
p73
V4.13
p74
sVabiname_base
p75
V4.13.0
p76
ss(Vdescription
p77
g5
NVaptosid-amd64
p78
tp79
(dp80
Vhardware
p81
V64-bit PCs
p82
sVhardware-long
p83
VPCs with AMD64 or Intel 64 processors
p84
ss(Vabi
p85
tp86
(dp87
Vabiname
p88
V3.slh.1
p89
ss(Vbase
p90
g15
tp91
(dp92
Vfeaturesets
p93
(lp94
g10
aVnone
p95
asVkernel-arch
p96
Vx86
p97
ss(Vbuild
p98
g15
tp99
(dp100
Vdebug-info
p101
I00
sVimage-file
p102
Varch/x86/boot/bzImage
p103
ss(Vbase
p104
g5
g11
tp105
(dp106
Vflavours
p107
(lp108
Vaptosid-amd64
p109
asVimplicit-flavour
p110
I01
ss(Vbase
p111
tp112
(dp113
Varches
p114
(lp115
Vamd64
p116
aVi386
p117
asVfeaturesets
p118
(lp119
Vnone
p120
asVcompiler
p121
Vgcc-7
p122
ss(Vbase
p123
g15
g95
tp124
(dp125
g107
(lp126
Vaptosid-686
p127
asg110
I01
ss(Vimage
p128
g5
tp129
(dp130
Vbreaks
p131
Vxserver-xorg-input-vmmouse (<< 1:13.0.99)
p132
sVinstall-stem
p133
Vvmlinuz
p134
sVsuggests
p135
Vcrda
p136
sVbootloaders
p137
(lp138
Vgrub-pc
p139
aVextlinux
p140
aVgrub-efi-amd64
p141
ass(Vdescription
p142
tp143
(dp144
Vpart-long-up
p145
VThis kernel is not suitable for SMP (multi-processor,\u000amulti-core or hyper-threaded) systems.
p146
sVpart-long-xen
p147
VThis kernel also runs on a Xen hypervisor.\u000aIt supports both privileged (dom0) and unprivileged (domU) operation.
p148
sstp149
Rp150
.