ccopy_reg
_reconstructor
p0
(cdebian_linux.config
ConfigCore
p1
c__builtin__
dict
p2
(dp3
(Vbuild
p4
Vi386
p5
tp6
(dp7
Vdebug-info
p8
I00
sVimage-file
p9
Varch/x86/boot/bzImage
p10
ss(Vbase
p11
tp12
(dp13
Vfeaturesets
p14
(lp15
Vnone
p16
asVarches
p17
(lp18
Vamd64
p19
aVi386
p20
asVcompiler
p21
Vgcc-6
p22
ss(Vimage
p23
tp24
(dp25
Vinitramfs-generators
p26
(lp27
Vinitramfs-tools
p28
aVinitramfs-fallback
p29
ass(Vdescription
p30
Vamd64
p31
NVaptosid-amd64
p32
tp33
(dp34
Vhardware
p35
V64-bit PCs
p36
sVhardware-long
p37
VPCs with AMD64 or Intel 64 processors
p38
ss(Vimage
p39
g5
tp40
(dp41
Vsuggests
p42
Vcrda
p43
sVbootloaders
p44
(lp45
Vgrub-pc
p46
aVextlinux
p47
aVgrub-efi-ia32
p48
asVbreaks
p49
Vxserver-xorg-input-vmmouse (<< 1:13.0.99)
p50
sVinstall-stem
p51
Vvmlinuz
p52
ss(Vdescription
p53
g31
Vnone
p54
Vaptosid-amd64
p55
tp56
(dp57
Vparts
p58
(lp59
Vxen
p60
ass(Vbase
p61
g31
tp62
(dp63
Vfeaturesets
p64
(lp65
Vnone
p66
ag54
asVkernel-arch
p67
Vx86
p68
ss(Vdescription
p69
tp70
(dp71
Vpart-long-xen
p72
VThis kernel also runs on a Xen hypervisor.\u000aIt supports both privileged (dom0) and unprivileged (domU) operation.
p73
sVpart-long-up
p74
VThis kernel is not suitable for SMP (multi-processor,\u000amulti-core or hyper-threaded) systems.
p75
ss(Vdescription
p76
g5
NVaptosid-686
p77
tp78
(dp79
Vhardware
p80
Vmodern PCs
p81
sVhardware-long
p82
VPCs with Intel Pentium Pro/II/III/4/4M/D/M, Xeon, Celeron, Core or Atom; AMD Geode LX/NX, Athlon (K7), Duron, Opteron, Sempron, Turion or Phenom; Transmeta Efficeon; VIA C3 "Nehemiah" or C7 processors
p83
ss(Vbase
p84
g31
g54
tp85
(dp86
Vimplicit-flavour
p87
I01
sVflavours
p88
(lp89
Vaptosid-amd64
p90
ass(Vrelations
p91
tp92
(dp93
Vgcc-6
p94
Vgcc-6
p95
sVinitramfs-fallback
p96
Vlinux-initramfs-tool
p97
sVinitramfs-tools
p98
Vinitramfs-tools (>= 0.121~)
p99
ss(Vbase
p100
g5
Vnone
p101
tp102
(dp103
g87
I01
sg88
(lp104
Vaptosid-686
p105
ass(Vbuild
p106
g31
tp107
(dp108
Vdebug-info
p109
I00
sVimage-file
p110
Varch/x86/boot/bzImage
p111
ss(Vabi
p112
tp113
(dp114
Vabiname
p115
V0.slh.2
p116
ss(Vversion
p117
tp118
(dp119
Vabiname_base
p120
V4.12.0
p121
sVabiname
p122
V4.12.0-0.slh.2
p123
sVsource
p124
V4.12-2
p125
sVupstream
p126
V4.12
p127
ss(Vbase
p128
g5
tp129
(dp130
Vfeaturesets
p131
(lp132
g66
ag101
asVkernel-arch
p133
Vx86
p134
ss(Vimage
p135
g31
tp136
(dp137
Vsuggests
p138
Vcrda
p139
sVbootloaders
p140
(lp141
Vgrub-pc
p142
aVextlinux
p143
aVgrub-efi-amd64
p144
asVbreaks
p145
Vxserver-xorg-input-vmmouse (<< 1:13.0.99)
p146
sVinstall-stem
p147
Vvmlinuz
p148
sstp149
Rp150
.