ccopy_reg
_reconstructor
p0
(cdebian_linux.config
ConfigCore
p1
c__builtin__
dict
p2
(dp3
(Vbase
p4
tp5
(dp6
Vfeaturesets
p7
(lp8
Vnone
p9
asVcompiler
p10
Vgcc-7
p11
sVarches
p12
(lp13
Vamd64
p14
aVi386
p15
ass(Vimage
p16
Vi386
p17
tp18
(dp19
Vbreaks
p20
Vxserver-xorg-input-vmmouse (<< 1:13.0.99)
p21
sVinstall-stem
p22
Vvmlinuz
p23
sVbootloaders
p24
(lp25
Vgrub-pc
p26
aVextlinux
p27
aVgrub-efi-ia32
p28
asVsuggests
p29
Vcrda
p30
ss(Vdescription
p31
Vamd64
p32
NVaptosid-amd64
p33
tp34
(dp35
Vhardware-long
p36
VPCs with AMD64 or Intel 64 processors
p37
sVhardware
p38
V64-bit PCs
p39
ss(Vversion
p40
tp41
(dp42
Vabiname
p43
V4.13.0-0.slh.1
p44
sVsource
p45
V4.13-1
p46
sVabiname_base
p47
V4.13.0
p48
sVupstream
p49
V4.13
p50
ss(Vrelations
p51
tp52
(dp53
Vgcc-7
p54
Vgcc-7
p55
sVinitramfs-tools
p56
Vinitramfs-tools (>= 0.121~)
p57
sVinitramfs-fallback
p58
Vlinux-initramfs-tool
p59
ss(Vbase
p60
g17
Vnone
p61
tp62
(dp63
Vflavours
p64
(lp65
Vaptosid-686
p66
asVimplicit-flavour
p67
I01
ss(Vbase
p68
g32
tp69
(dp70
Vfeaturesets
p71
(lp72
Vnone
p73
aVnone
p74
asVkernel-arch
p75
Vx86
p76
ss(Vdescription
p77
g17
NVaptosid-686
p78
tp79
(dp80
Vhardware-long
p81
VPCs with Intel Pentium Pro/II/III/4/4M/D/M, Xeon, Celeron, Core or Atom; AMD Geode LX/NX, Athlon (K7), Duron, Opteron, Sempron, Turion or Phenom; Transmeta Efficeon; VIA C3 "Nehemiah" or C7 processors
p82
sVhardware
p83
Vmodern PCs
p84
ss(Vbuild
p85
g17
tp86
(dp87
Vdebug-info
p88
I00
sVimage-file
p89
Varch/x86/boot/bzImage
p90
ss(Vimage
p91
g32
tp92
(dp93
Vbreaks
p94
Vxserver-xorg-input-vmmouse (<< 1:13.0.99)
p95
sVinstall-stem
p96
Vvmlinuz
p97
sVbootloaders
p98
(lp99
Vgrub-pc
p100
aVextlinux
p101
aVgrub-efi-amd64
p102
asVsuggests
p103
Vcrda
p104
ss(Vdescription
p105
g32
g74
Vaptosid-amd64
p106
tp107
(dp108
Vparts
p109
(lp110
Vxen
p111
ass(Vabi
p112
tp113
(dp114
Vabiname
p115
V0.slh.1
p116
ss(Vbase
p117
g32
g74
tp118
(dp119
g64
(lp120
Vaptosid-amd64
p121
asg67
I01
ss(Vdescription
p122
tp123
(dp124
Vpart-long-up
p125
VThis kernel is not suitable for SMP (multi-processor,\u000amulti-core or hyper-threaded) systems.
p126
sVpart-long-xen
p127
VThis kernel also runs on a Xen hypervisor.\u000aIt supports both privileged (dom0) and unprivileged (domU) operation.
p128
ss(Vbase
p129
g17
tp130
(dp131
Vfeaturesets
p132
(lp133
g73
ag61
asVkernel-arch
p134
Vx86
p135
ss(Vbuild
p136
g32
tp137
(dp138
Vdebug-info
p139
I00
sVimage-file
p140
Varch/x86/boot/bzImage
p141
ss(Vimage
p142
tp143
(dp144
Vinitramfs-generators
p145
(lp146
Vinitramfs-tools
p147
aVinitramfs-fallback
p148
asstp149
Rp150
.