ccopy_reg
_reconstructor
p0
(cdebian_linux.config
ConfigCore
p1
c__builtin__
dict
p2
(dp3
(Vimage
p4
Vi386
p5
tp6
(dp7
Vbootloaders
p8
(lp9
Vgrub-pc
p10
aVextlinux
p11
aVgrub-efi-ia32
p12
asVinstall-stem
p13
Vvmlinuz
p14
sVbreaks
p15
Vxserver-xorg-input-vmmouse (<< 1:13.0.99)
p16
sVsuggests
p17
Vcrda
p18
ss(Vdescription
p19
g5
NVaptosid-686
p20
tp21
(dp22
Vhardware-long
p23
VPCs with Intel Pentium Pro/II/III/4/4M/D/M, Xeon, Celeron, Core or Atom; AMD Geode LX/NX, Athlon (K7), Duron, Opteron, Sempron, Turion or Phenom; Transmeta Efficeon; VIA C3 "Nehemiah" or C7 processors
p24
sVhardware
p25
Vmodern PCs
p26
ss(Vbuild
p27
g5
tp28
(dp29
Vimage-file
p30
Varch/x86/boot/bzImage
p31
sVdebug-info
p32
I00
ss(Vabi
p33
tp34
(dp35
Vabiname
p36
V11.slh.1
p37
ss(Vdescription
p38
Vamd64
p39
NVaptosid-amd64
p40
tp41
(dp42
Vhardware-long
p43
VPCs with AMD64 or Intel 64 processors
p44
sVhardware
p45
V64-bit PCs
p46
ss(Vbase
p47
g5
tp48
(dp49
Vkernel-arch
p50
Vx86
p51
sVfeaturesets
p52
(lp53
Vnone
p54
aVnone
p55
ass(Vbase
p56
g39
Vnone
p57
tp58
(dp59
Vflavours
p60
(lp61
Vaptosid-amd64
p62
asVimplicit-flavour
p63
I01
ss(Vbase
p64
g5
g55
tp65
(dp66
g60
(lp67
Vaptosid-686
p68
asg63
I01
ss(Vimage
p69
tp70
(dp71
Vinitramfs-generators
p72
(lp73
Vinitramfs-tools
p74
aVinitramfs-fallback
p75
ass(Vdescription
p76
tp77
(dp78
Vpart-long-up
p79
VThis kernel is not suitable for SMP (multi-processor,\u000amulti-core or hyper-threaded) systems.
p80
sVpart-long-xen
p81
VThis kernel also runs on a Xen hypervisor.\u000aIt supports both privileged (dom0) and unprivileged (domU) operation.
p82
ss(Vbase
p83
tp84
(dp85
Varches
p86
(lp87
Vamd64
p88
aVi386
p89
asVcompiler
p90
Vgcc-6
p91
sVfeaturesets
p92
(lp93
Vnone
p94
ass(Vrelations
p95
tp96
(dp97
Vgcc-6
p98
Vgcc-6
p99
sVinitramfs-fallback
p100
Vlinux-initramfs-tool
p101
sVinitramfs-tools
p102
Vinitramfs-tools (>= 0.121~)
p103
ss(Vbase
p104
g39
tp105
(dp106
Vkernel-arch
p107
Vx86
p108
sVfeaturesets
p109
(lp110
g54
ag57
ass(Vbuild
p111
g39
tp112
(dp113
Vimage-file
p114
Varch/x86/boot/bzImage
p115
sVdebug-info
p116
I00
ss(Vversion
p117
tp118
(dp119
Vabiname
p120
V4.10.0-11.slh.1
p121
sVupstream
p122
V4.10
p123
sVabiname_base
p124
V4.10.0
p125
sVsource
p126
V4.10-17
p127
ss(Vdescription
p128
g39
g57
Vaptosid-amd64
p129
tp130
(dp131
Vparts
p132
(lp133
Vxen
p134
ass(Vimage
p135
g39
tp136
(dp137
Vbootloaders
p138
(lp139
Vgrub-pc
p140
aVextlinux
p141
aVgrub-efi-amd64
p142
asVinstall-stem
p143
Vvmlinuz
p144
sVbreaks
p145
Vxserver-xorg-input-vmmouse (<< 1:13.0.99)
p146
sVsuggests
p147
Vcrda
p148
sstp149
Rp150
.