ccopy_reg
_reconstructor
p0
(cdebian_linux.config
ConfigCore
p1
c__builtin__
dict
p2
(dp3
(Vdescription
p4
Vamd64
p5
NVaptosid-amd64
p6
tp7
(dp8
Vhardware-long
p9
VPCs with AMD64 or Intel 64 processors
p10
sVhardware
p11
V64-bit PCs
p12
ss(Vbase
p13
g5
tp14
(dp15
Vfeaturesets
p16
(lp17
Vnone
p18
aVnone
p19
asVkernel-arch
p20
Vx86
p21
ss(Vabi
p22
tp23
(dp24
Vabiname
p25
V4.slh.2
p26
ss(Vbase
p27
tp28
(dp29
Vcompiler
p30
Vgcc-5
p31
sVfeaturesets
p32
(lp33
Vnone
p34
asVarches
p35
(lp36
Vamd64
p37
aVi386
p38
ass(Vimage
p39
g5
tp40
(dp41
Vbootloaders
p42
(lp43
Vgrub-pc
p44
aVextlinux
p45
aVgrub-efi-amd64
p46
asVinstall-stem
p47
Vvmlinuz
p48
sVsuggests
p49
Vcrda
p50
sVconfigs
p51
(lp52
ss(Vxen
p53
g5
g19
Vaptosid-amd64
p54
tp55
(dp56
Vflavours
p57
(lp58
Vaptosid-amd64
p59
ass(Vimage
p60
Vi386
p61
tp62
(dp63
Vbootloaders
p64
(lp65
Vgrub-pc
p66
aVextlinux
p67
aVgrub-efi-ia32
p68
asVinstall-stem
p69
Vvmlinuz
p70
sVsuggests
p71
Vcrda
p72
sVconfigs
p73
(lp74
ss(Vversion
p75
tp76
(dp77
Vabiname
p78
V4.4.0-4.slh.2
p79
sVupstream
p80
V4.4
p81
sVsource
p82
V4.4-16
p83
sVabiname_base
p84
V4.4.0
p85
ss(Vrelations
p86
tp87
(dp88
Vgcc-5
p89
Vgcc-5
p90
sVinitramfs-tools
p91
Vinitramfs-tools (>= 0.118+c0.aptosid.1~)
p92
sVinitramfs-fallback
p93
Vlinux-initramfs-tool
p94
ss(Vimage
p95
g5
NVaptosid-amd64
p96
tp97
(dp98
Vconfigs
p99
(lp100
Vkernelarch-x86/config-arch-64
p101
ass(Vdescription
p102
g61
NVaptosid-686
p103
tp104
(dp105
Vhardware-long
p106
VPCs with Intel Pentium Pro/II/III/4/4M/D/M, Xeon, Celeron, Core or Atom; AMD Geode LX/NX, Athlon (K7), Duron, Opteron, Sempron, Turion or Phenom; Transmeta Efficeon; VIA C3 "Nehemiah" or C7 processors
p107
sVhardware
p108
Vmodern PCs
p109
ss(Vimage
p110
g61
NVaptosid-686
p111
tp112
(dp113
Vrecommends
p114
Vlibc6-i686
p115
sVconfigs
p116
(lp117
Vkernelarch-x86/config-arch-32
p118
ass(Vdescription
p119
tp120
(dp121
Vpart-long-xen
p122
VThis kernel also runs on a Xen hypervisor.\u000aIt supports both privileged (dom0) and unprivileged (domU) operation.
p123
sVpart-long-up
p124
VThis kernel is not suitable for SMP (multi-processor,\u000amulti-core or hyper-threaded) systems.
p125
ss(Vbase
p126
g61
tp127
(dp128
Vfeaturesets
p129
(lp130
g18
aVnone
p131
asVkernel-arch
p132
Vx86
p133
ss(Vimage
p134
tp135
(dp136
Vinitramfs-generators
p137
(lp138
Vinitramfs-tools
p139
aVinitramfs-fallback
p140
asVtype
p141
Vplain
p142
ss(Vbuild
p143
g5
tp144
(dp145
Vimage-file
p146
Varch/x86/boot/bzImage
p147
sVdebug-info
p148
I00
ss(Vbuild
p149
g61
tp150
(dp151
Vimage-file
p152
Varch/x86/boot/bzImage
p153
sVdebug-info
p154
I00
ss(Vdescription
p155
g5
g19
Vaptosid-amd64
p156
tp157
(dp158
Vparts
p159
(lp160
Vxen
p161
ass(Vbase
p162
g61
g131
tp163
(dp164
Vflavours
p165
(lp166
Vaptosid-686
p167
asVimplicit-flavour
p168
I01
ss(Vbase
p169
g5
g19
tp170
(dp171
g165
(lp172
Vaptosid-amd64
p173
asg168
I01
sstp174
Rp175
.