ccopy_reg
_reconstructor
p0
(cdebian_linux.config
ConfigCore
p1
c__builtin__
dict
p2
(dp3
(Vversion
p4
tp5
(dp6
Vabiname
p7
V4.3.0-0.slh.1
p8
sVupstream
p9
V4.3
p10
sVabiname_base
p11
V4.3.0
p12
sVsource
p13
V4.3-1
p14
ss(Vdescription
p15
tp16
(dp17
Vpart-long-up
p18
VThis kernel is not suitable for SMP (multi-processor,\u000amulti-core or hyper-threaded) systems.
p19
sVpart-long-xen
p20
VThis kernel also runs on a Xen hypervisor.\u000aIt supports both privileged (dom0) and unprivileged (domU) operation.
p21
ss(Vdescription
p22
Vamd64
p23
NVaptosid-amd64
p24
tp25
(dp26
Vhardware
p27
V64-bit PCs
p28
sVhardware-long
p29
VPCs with AMD64 or Intel 64 processors
p30
ss(Vbuild
p31
g23
tp32
(dp33
Vimage-file
p34
Varch/x86/boot/bzImage
p35
sVdebug-info
p36
I00
ss(Vimage
p37
g23
tp38
(dp39
Vconfigs
p40
(lp41
sVinstall-stem
p42
Vvmlinuz
p43
sVsuggests
p44
Vcrda
p45
sVbootloaders
p46
(lp47
Vgrub-pc
p48
aVextlinux
p49
aVgrub-efi-amd64
p50
ass(Vrelations
p51
tp52
(dp53
Vgcc-5
p54
Vgcc-5
p55
sVinitramfs-tools
p56
Vinitramfs-tools (>= 0.118+c0.aptosid.1~)
p57
sVinitramfs-fallback
p58
Vlinux-initramfs-tool
p59
ss(Vbase
p60
g23
tp61
(dp62
Vkernel-arch
p63
Vx86
p64
sVfeaturesets
p65
(lp66
Vnone
p67
aVnone
p68
ass(Vdescription
p69
Vi386
p70
NVaptosid-686
p71
tp72
(dp73
Vhardware
p74
Vmodern PCs
p75
sVhardware-long
p76
VPCs with Intel Pentium Pro/II/III/4/4M/D/M, Xeon, Celeron, Core or Atom; AMD Geode LX/NX, Athlon (K7), Duron, Opteron, Sempron, Turion or Phenom; Transmeta Efficeon; VIA C3 "Nehemiah" or C7 processors
p77
ss(Vabi
p78
tp79
(dp80
Vabiname
p81
V0.slh.1
p82
ss(Vbase
p83
tp84
(dp85
Varches
p86
(lp87
Vamd64
p88
aVi386
p89
asVcompiler
p90
Vgcc-5
p91
sVfeaturesets
p92
(lp93
Vnone
p94
ass(Vbase
p95
g70
Vnone
p96
tp97
(dp98
Vflavours
p99
(lp100
Vaptosid-686
p101
asVimplicit-flavour
p102
I01
ss(Vimage
p103
tp104
(dp105
Vinitramfs-generators
p106
(lp107
Vinitramfs-tools
p108
aVinitramfs-fallback
p109
asVtype
p110
Vplain
p111
ss(Vbase
p112
g23
g68
tp113
(dp114
g99
(lp115
Vaptosid-amd64
p116
asg102
I01
ss(Vxen
p117
g23
g68
Vaptosid-amd64
p118
tp119
(dp120
Vflavours
p121
(lp122
Vaptosid-amd64
p123
ass(Vdescription
p124
g23
g68
Vaptosid-amd64
p125
tp126
(dp127
Vparts
p128
(lp129
Vxen
p130
ass(Vbuild
p131
g70
tp132
(dp133
Vimage-file
p134
Varch/x86/boot/bzImage
p135
sVdebug-info
p136
I00
ss(Vimage
p137
g23
NVaptosid-amd64
p138
tp139
(dp140
Vconfigs
p141
(lp142
Vkernelarch-x86/config-arch-64
p143
ass(Vimage
p144
g70
NVaptosid-686
p145
tp146
(dp147
Vconfigs
p148
(lp149
Vkernelarch-x86/config-arch-32
p150
asVrecommends
p151
Vlibc6-i686
p152
ss(Vbase
p153
g70
tp154
(dp155
Vkernel-arch
p156
Vx86
p157
sVfeaturesets
p158
(lp159
g67
ag96
ass(Vimage
p160
g70
tp161
(dp162
Vconfigs
p163
(lp164
sVinstall-stem
p165
Vvmlinuz
p166
sVsuggests
p167
Vcrda
p168
sVbootloaders
p169
(lp170
Vgrub-pc
p171
aVextlinux
p172
aVgrub-efi-ia32
p173
asstp174
Rp175
.