ccopy_reg
_reconstructor
p0
(cdebian_linux.config
ConfigCore
p1
c__builtin__
dict
p2
(dp3
(Vbase
p4
tp5
(dp6
Vfeaturesets
p7
(lp8
Vnone
p9
asVarches
p10
(lp11
Vamd64
p12
aVi386
p13
asVcompiler
p14
Vgcc-5
p15
ss(Vimage
p16
tp17
(dp18
Vinitramfs-generators
p19
(lp20
Vinitramfs-tools
p21
aVinitramfs-fallback
p22
ass(Vbuild
p23
Vamd64
p24
tp25
(dp26
Vdebug-info
p27
I00
sVimage-file
p28
Varch/x86/boot/bzImage
p29
ss(Vversion
p30
tp31
(dp32
Vupstream
p33
V4.8
p34
sVabiname_base
p35
V4.8.0
p36
sVsource
p37
V4.8-6
p38
sVabiname
p39
V4.8.0-3.slh.2
p40
ss(Vdescription
p41
Vi386
p42
NVaptosid-686
p43
tp44
(dp45
Vhardware
p46
Vmodern PCs
p47
sVhardware-long
p48
VPCs with Intel Pentium Pro/II/III/4/4M/D/M, Xeon, Celeron, Core or Atom; AMD Geode LX/NX, Athlon (K7), Duron, Opteron, Sempron, Turion or Phenom; Transmeta Efficeon; VIA C3 "Nehemiah" or C7 processors
p49
ss(Vrelations
p50
tp51
(dp52
Vinitramfs-tools
p53
Vinitramfs-tools (>= 0.121~)
p54
sVinitramfs-fallback
p55
Vlinux-initramfs-tool
p56
sVgcc-5
p57
Vgcc-5
p58
ss(Vimage
p59
g42
tp60
(dp61
Vsuggests
p62
Vcrda
p63
sVbootloaders
p64
(lp65
Vgrub-pc
p66
aVextlinux
p67
aVgrub-efi-ia32
p68
asVbreaks
p69
Vxserver-xorg-input-vmmouse (<< 1:13.0.99)
p70
sVinstall-stem
p71
Vvmlinuz
p72
ss(Vbase
p73
g42
Vnone
p74
tp75
(dp76
Vflavours
p77
(lp78
Vaptosid-686
p79
asVimplicit-flavour
p80
I01
ss(Vbase
p81
g24
Vnone
p82
tp83
(dp84
g77
(lp85
Vaptosid-amd64
p86
asg80
I01
ss(Vabi
p87
tp88
(dp89
Vabiname
p90
V3.slh.2
p91
ss(Vdescription
p92
g24
g82
Vaptosid-amd64
p93
tp94
(dp95
Vparts
p96
(lp97
Vxen
p98
ass(Vxen
p99
g24
g82
Vaptosid-amd64
p100
tp101
(dp102
Vflavours
p103
(lp104
Vaptosid-amd64
p105
ass(Vimage
p106
g24
tp107
(dp108
Vsuggests
p109
Vcrda
p110
sVbootloaders
p111
(lp112
Vgrub-pc
p113
aVextlinux
p114
aVgrub-efi-amd64
p115
asVbreaks
p116
Vxserver-xorg-input-vmmouse (<< 1:13.0.99)
p117
sVinstall-stem
p118
Vvmlinuz
p119
ss(Vdescription
p120
g24
NVaptosid-amd64
p121
tp122
(dp123
Vhardware
p124
V64-bit PCs
p125
sVhardware-long
p126
VPCs with AMD64 or Intel 64 processors
p127
ss(Vbase
p128
g42
tp129
(dp130
Vfeaturesets
p131
(lp132
Vnone
p133
ag74
asVkernel-arch
p134
Vx86
p135
ss(Vbase
p136
g24
tp137
(dp138
Vfeaturesets
p139
(lp140
g133
ag82
asVkernel-arch
p141
Vx86
p142
ss(Vbuild
p143
g42
tp144
(dp145
Vdebug-info
p146
I00
sVimage-file
p147
Varch/x86/boot/bzImage
p148
ss(Vdescription
p149
tp150
(dp151
Vpart-long-up
p152
VThis kernel is not suitable for SMP (multi-processor,\u000amulti-core or hyper-threaded) systems.
p153
sVpart-long-xen
p154
VThis kernel also runs on a Xen hypervisor.\u000aIt supports both privileged (dom0) and unprivileged (domU) operation.
p155
sstp156
Rp157
.