ccopy_reg
_reconstructor
p0
(cdebian_linux.config
ConfigCore
p1
c__builtin__
dict
p2
(dp3
(Vdescription
p4
Vamd64
p5
Vnone
p6
Vaptosid-amd64
p7
tp8
(dp9
Vparts
p10
(lp11
Vxen
p12
ass(Vimage
p13
g5
tp14
(dp15
Vinstall-stem
p16
Vvmlinuz
p17
sVbreaks
p18
Vxserver-xorg-input-vmmouse (<< 1:13.0.99)
p19
sVsuggests
p20
Vcrda
p21
sVbootloaders
p22
(lp23
Vgrub-pc
p24
aVextlinux
p25
aVgrub-efi-amd64
p26
ass(Vbuild
p27
g5
tp28
(dp29
Vimage-file
p30
Varch/x86/boot/bzImage
p31
sVdebug-info
p32
I00
ss(Vbase
p33
tp34
(dp35
Vfeaturesets
p36
(lp37
Vnone
p38
asVarches
p39
(lp40
Vamd64
p41
aVi386
p42
asVcompiler
p43
Vgcc-6
p44
ss(Vrelations
p45
tp46
(dp47
Vgcc-6
p48
Vgcc-6
p49
sVinitramfs-fallback
p50
Vlinux-initramfs-tool
p51
sVinitramfs-tools
p52
Vinitramfs-tools (>= 0.121~)
p53
ss(Vabi
p54
tp55
(dp56
Vabiname
p57
V12.slh.1
p58
ss(Vdescription
p59
Vi386
p60
NVaptosid-686
p61
tp62
(dp63
Vhardware-long
p64
VPCs with Intel Pentium Pro/II/III/4/4M/D/M, Xeon, Celeron, Core or Atom; AMD Geode LX/NX, Athlon (K7), Duron, Opteron, Sempron, Turion or Phenom; Transmeta Efficeon; VIA C3 "Nehemiah" or C7 processors
p65
sVhardware
p66
Vmodern PCs
p67
ss(Vimage
p68
g60
tp69
(dp70
Vinstall-stem
p71
Vvmlinuz
p72
sVbreaks
p73
Vxserver-xorg-input-vmmouse (<< 1:13.0.99)
p74
sVsuggests
p75
Vcrda
p76
sVbootloaders
p77
(lp78
Vgrub-pc
p79
aVextlinux
p80
aVgrub-efi-ia32
p81
ass(Vbase
p82
g5
tp83
(dp84
Vfeaturesets
p85
(lp86
Vnone
p87
ag6
asVkernel-arch
p88
Vx86
p89
ss(Vbuild
p90
g60
tp91
(dp92
Vimage-file
p93
Varch/x86/boot/bzImage
p94
sVdebug-info
p95
I00
ss(Vbase
p96
g60
Vnone
p97
tp98
(dp99
Vflavours
p100
(lp101
Vaptosid-686
p102
asVimplicit-flavour
p103
I01
ss(Vimage
p104
tp105
(dp106
Vinitramfs-generators
p107
(lp108
Vinitramfs-tools
p109
aVinitramfs-fallback
p110
ass(Vdescription
p111
g5
NVaptosid-amd64
p112
tp113
(dp114
Vhardware-long
p115
VPCs with AMD64 or Intel 64 processors
p116
sVhardware
p117
V64-bit PCs
p118
ss(Vdescription
p119
tp120
(dp121
Vpart-long-xen
p122
VThis kernel also runs on a Xen hypervisor.\u000aIt supports both privileged (dom0) and unprivileged (domU) operation.
p123
sVpart-long-up
p124
VThis kernel is not suitable for SMP (multi-processor,\u000amulti-core or hyper-threaded) systems.
p125
ss(Vversion
p126
tp127
(dp128
Vabiname
p129
V4.10.0-12.slh.1
p130
sVabiname_base
p131
V4.10.0
p132
sVupstream
p133
V4.10
p134
sVsource
p135
V4.10-18
p136
ss(Vbase
p137
g5
g6
tp138
(dp139
g100
(lp140
Vaptosid-amd64
p141
asg103
I01
ss(Vbase
p142
g60
tp143
(dp144
Vfeaturesets
p145
(lp146
g87
ag97
asVkernel-arch
p147
Vx86
p148
sstp149
Rp150
.