ccopy_reg
_reconstructor
p0
(cdebian_linux.config
ConfigCore
p1
c__builtin__
dict
p2
(dp3
(Vabi
p4
tp5
(dp6
Vabiname
p7
V2.slh.4
p8
ss(Vbase
p9
Vamd64
p10
Vnone
p11
tp12
(dp13
Vimplicit-flavour
p14
I01
sVflavours
p15
(lp16
Vaptosid-amd64
p17
ass(Vimage
p18
tp19
(dp20
Vinitramfs-generators
p21
(lp22
Vinitramfs-tools
p23
aVinitramfs-fallback
p24
asVtype
p25
Vplain
p26
ss(Vbase
p27
g10
tp28
(dp29
Vfeaturesets
p30
(lp31
Vnone
p32
ag11
asVkernel-arch
p33
Vx86
p34
ss(Vimage
p35
g10
NVaptosid-amd64
p36
tp37
(dp38
Vconfigs
p39
(lp40
Vkernelarch-x86/config-arch-64
p41
ass(Vimage
p42
Vi386
p43
tp44
(dp45
Vsuggests
p46
Vcrda
p47
sVinstall-stem
p48
Vvmlinuz
p49
sVconfigs
p50
(lp51
sVbootloaders
p52
(lp53
Vgrub-pc
p54
aVextlinux
p55
aVgrub-efi-ia32
p56
ass(Vimage
p57
g43
NVaptosid-686
p58
tp59
(dp60
Vrecommends
p61
Vlibc6-i686
p62
sVconfigs
p63
(lp64
Vkernelarch-x86/config-arch-32
p65
ass(Vrelations
p66
tp67
(dp68
Vinitramfs-tools
p69
Vinitramfs-tools (>= 0.121~)
p70
sVgcc-5
p71
Vgcc-5
p72
sVinitramfs-fallback
p73
Vlinux-initramfs-tool
p74
ss(Vimage
p75
g10
tp76
(dp77
Vsuggests
p78
Vcrda
p79
sVinstall-stem
p80
Vvmlinuz
p81
sVconfigs
p82
(lp83
sVbootloaders
p84
(lp85
Vgrub-pc
p86
aVextlinux
p87
aVgrub-efi-amd64
p88
ass(Vbuild
p89
g43
tp90
(dp91
Vdebug-info
p92
I00
sVimage-file
p93
Varch/x86/boot/bzImage
p94
ss(Vbase
p95
tp96
(dp97
Vfeaturesets
p98
(lp99
Vnone
p100
asVcompiler
p101
Vgcc-5
p102
sVarches
p103
(lp104
Vamd64
p105
aVi386
p106
ass(Vdescription
p107
g10
NVaptosid-amd64
p108
tp109
(dp110
Vhardware
p111
V64-bit PCs
p112
sVhardware-long
p113
VPCs with AMD64 or Intel 64 processors
p114
ss(Vdescription
p115
g10
g11
Vaptosid-amd64
p116
tp117
(dp118
Vparts
p119
(lp120
Vxen
p121
ass(Vdescription
p122
g43
NVaptosid-686
p123
tp124
(dp125
Vhardware
p126
Vmodern PCs
p127
sVhardware-long
p128
VPCs with Intel Pentium Pro/II/III/4/4M/D/M, Xeon, Celeron, Core or Atom; AMD Geode LX/NX, Athlon (K7), Duron, Opteron, Sempron, Turion or Phenom; Transmeta Efficeon; VIA C3 "Nehemiah" or C7 processors
p129
ss(Vbase
p130
g43
tp131
(dp132
Vfeaturesets
p133
(lp134
g32
aVnone
p135
asVkernel-arch
p136
Vx86
p137
ss(Vdescription
p138
tp139
(dp140
Vpart-long-up
p141
VThis kernel is not suitable for SMP (multi-processor,\u000amulti-core or hyper-threaded) systems.
p142
sVpart-long-xen
p143
VThis kernel also runs on a Xen hypervisor.\u000aIt supports both privileged (dom0) and unprivileged (domU) operation.
p144
ss(Vversion
p145
tp146
(dp147
Vabiname
p148
V4.6.0-2.slh.4
p149
sVsource
p150
V4.6-9
p151
sVabiname_base
p152
V4.6.0
p153
sVupstream
p154
V4.6
p155
ss(Vbuild
p156
g10
tp157
(dp158
Vdebug-info
p159
I00
sVimage-file
p160
Varch/x86/boot/bzImage
p161
ss(Vbase
p162
g43
g135
tp163
(dp164
g14
I01
sg15
(lp165
Vaptosid-686
p166
ass(Vxen
p167
g10
g11
Vaptosid-amd64
p168
tp169
(dp170
Vflavours
p171
(lp172
Vaptosid-amd64
p173
asstp174
Rp175
.