ccopy_reg
_reconstructor
p0
(cdebian_linux.config
ConfigCore
p1
c__builtin__
dict
p2
(dp3
(Vimage
p4
Vamd64
p5
tp6
(dp7
Vbreaks
p8
Vxserver-xorg-input-vmmouse (<< 1:13.0.99)
p9
sVinstall-stem
p10
Vvmlinuz
p11
sVsuggests
p12
Vcrda
p13
sVbootloaders
p14
(lp15
Vgrub-pc
p16
aVextlinux
p17
aVgrub-efi-amd64
p18
ass(Vbase
p19
Vi386
p20
Vnone
p21
tp22
(dp23
Vflavours
p24
(lp25
Vaptosid-686
p26
asVimplicit-flavour
p27
I01
ss(Vimage
p28
g20
tp29
(dp30
Vbreaks
p31
Vxserver-xorg-input-vmmouse (<< 1:13.0.99)
p32
sVinstall-stem
p33
Vvmlinuz
p34
sVsuggests
p35
Vcrda
p36
sVbootloaders
p37
(lp38
Vgrub-pc
p39
aVextlinux
p40
aVgrub-efi-ia32
p41
ass(Vxen
p42
g5
Vnone
p43
Vaptosid-amd64
p44
tp45
(dp46
Vflavours
p47
(lp48
Vaptosid-amd64
p49
ass(Vversion
p50
tp51
(dp52
Vabiname_base
p53
V4.7.0
p54
sVsource
p55
V4.7-18
p56
sVabiname
p57
V4.7.0-6.slh.2
p58
sVupstream
p59
V4.7
p60
ss(Vrelations
p61
tp62
(dp63
Vinitramfs-tools
p64
Vinitramfs-tools (>= 0.121~)
p65
sVinitramfs-fallback
p66
Vlinux-initramfs-tool
p67
sVgcc-6
p68
Vgcc-6
p69
ss(Vabi
p70
tp71
(dp72
Vabiname
p73
V6.slh.2
p74
ss(Vdescription
p75
g5
NVaptosid-amd64
p76
tp77
(dp78
Vhardware
p79
V64-bit PCs
p80
sVhardware-long
p81
VPCs with AMD64 or Intel 64 processors
p82
ss(Vbuild
p83
g5
tp84
(dp85
Vdebug-info
p86
I00
sVimage-file
p87
Varch/x86/boot/bzImage
p88
ss(Vimage
p89
tp90
(dp91
Vinitramfs-generators
p92
(lp93
Vinitramfs-tools
p94
aVinitramfs-fallback
p95
ass(Vbase
p96
g5
g43
tp97
(dp98
g24
(lp99
Vaptosid-amd64
p100
asg27
I01
ss(Vdescription
p101
g5
g43
Vaptosid-amd64
p102
tp103
(dp104
Vparts
p105
(lp106
Vxen
p107
ass(Vbuild
p108
g20
tp109
(dp110
Vdebug-info
p111
I00
sVimage-file
p112
Varch/x86/boot/bzImage
p113
ss(Vbase
p114
tp115
(dp116
Vcompiler
p117
Vgcc-6
p118
sVarches
p119
(lp120
Vamd64
p121
aVi386
p122
asVfeaturesets
p123
(lp124
Vnone
p125
ass(Vbase
p126
g20
tp127
(dp128
Vkernel-arch
p129
Vx86
p130
sVfeaturesets
p131
(lp132
Vnone
p133
ag21
ass(Vbase
p134
g5
tp135
(dp136
Vkernel-arch
p137
Vx86
p138
sVfeaturesets
p139
(lp140
g133
ag43
ass(Vdescription
p141
g20
NVaptosid-686
p142
tp143
(dp144
Vhardware
p145
Vmodern PCs
p146
sVhardware-long
p147
VPCs with Intel Pentium Pro/II/III/4/4M/D/M, Xeon, Celeron, Core or Atom; AMD Geode LX/NX, Athlon (K7), Duron, Opteron, Sempron, Turion or Phenom; Transmeta Efficeon; VIA C3 "Nehemiah" or C7 processors
p148
ss(Vdescription
p149
tp150
(dp151
Vpart-long-xen
p152
VThis kernel also runs on a Xen hypervisor.\u000aIt supports both privileged (dom0) and unprivileged (domU) operation.
p153
sVpart-long-up
p154
VThis kernel is not suitable for SMP (multi-processor,\u000amulti-core or hyper-threaded) systems.
p155
sstp156
Rp157
.