ccopy_reg
_reconstructor
p0
(cdebian_linux.config
ConfigCore
p1
c__builtin__
dict
p2
(dp3
(Vrelations
p4
tp5
(dp6
Vgcc-5
p7
Vgcc-5
p8
sVinitramfs-fallback
p9
Vlinux-initramfs-tool
p10
sVinitramfs-tools
p11
Vinitramfs-tools (>= 0.121~)
p12
ss(Vdescription
p13
Vi386
p14
NVaptosid-686
p15
tp16
(dp17
Vhardware-long
p18
VPCs with Intel Pentium Pro/II/III/4/4M/D/M, Xeon, Celeron, Core or Atom; AMD Geode LX/NX, Athlon (K7), Duron, Opteron, Sempron, Turion or Phenom; Transmeta Efficeon; VIA C3 "Nehemiah" or C7 processors
p19
sVhardware
p20
Vmodern PCs
p21
ss(Vbuild
p22
g14
tp23
(dp24
Vimage-file
p25
Varch/x86/boot/bzImage
p26
sVdebug-info
p27
I00
ss(Vbase
p28
tp29
(dp30
Vcompiler
p31
Vgcc-5
p32
sVarches
p33
(lp34
Vamd64
p35
aVi386
p36
asVfeaturesets
p37
(lp38
Vnone
p39
ass(Vdescription
p40
Vamd64
p41
Vnone
p42
Vaptosid-amd64
p43
tp44
(dp45
Vparts
p46
(lp47
Vxen
p48
ass(Vdescription
p49
g41
NVaptosid-amd64
p50
tp51
(dp52
Vhardware-long
p53
VPCs with AMD64 or Intel 64 processors
p54
sVhardware
p55
V64-bit PCs
p56
ss(Vimage
p57
g41
tp58
(dp59
Vsuggests
p60
Vcrda
p61
sVinstall-stem
p62
Vvmlinuz
p63
sVbootloaders
p64
(lp65
Vgrub-pc
p66
aVextlinux
p67
aVgrub-efi-amd64
p68
asVconfigs
p69
(lp70
ss(Vbase
p71
g14
Vnone
p72
tp73
(dp74
Vflavours
p75
(lp76
Vaptosid-686
p77
asVimplicit-flavour
p78
I01
ss(Vimage
p79
g14
tp80
(dp81
Vsuggests
p82
Vcrda
p83
sVinstall-stem
p84
Vvmlinuz
p85
sVbootloaders
p86
(lp87
Vgrub-pc
p88
aVextlinux
p89
aVgrub-efi-ia32
p90
asVconfigs
p91
(lp92
ss(Vbase
p93
g14
tp94
(dp95
Vkernel-arch
p96
Vx86
p97
sVfeaturesets
p98
(lp99
Vnone
p100
ag72
ass(Vbuild
p101
g41
tp102
(dp103
Vimage-file
p104
Varch/x86/boot/bzImage
p105
sVdebug-info
p106
I00
ss(Vversion
p107
tp108
(dp109
Vupstream
p110
V4.6
p111
sVabiname_base
p112
V4.6.0
p113
sVsource
p114
V4.6-5
p115
sVabiname
p116
V4.6.0-1.slh.1
p117
ss(Vabi
p118
tp119
(dp120
Vabiname
p121
V1.slh.1
p122
ss(Vdescription
p123
tp124
(dp125
Vpart-long-xen
p126
VThis kernel also runs on a Xen hypervisor.\u000aIt supports both privileged (dom0) and unprivileged (domU) operation.
p127
sVpart-long-up
p128
VThis kernel is not suitable for SMP (multi-processor,\u000amulti-core or hyper-threaded) systems.
p129
ss(Vxen
p130
g41
g42
Vaptosid-amd64
p131
tp132
(dp133
Vflavours
p134
(lp135
Vaptosid-amd64
p136
ass(Vimage
p137
g41
NVaptosid-amd64
p138
tp139
(dp140
Vconfigs
p141
(lp142
Vkernelarch-x86/config-arch-64
p143
ass(Vbase
p144
g41
tp145
(dp146
Vkernel-arch
p147
Vx86
p148
sVfeaturesets
p149
(lp150
g100
ag42
ass(Vimage
p151
tp152
(dp153
Vtype
p154
Vplain
p155
sVinitramfs-generators
p156
(lp157
Vinitramfs-tools
p158
aVinitramfs-fallback
p159
ass(Vimage
p160
g14
NVaptosid-686
p161
tp162
(dp163
Vrecommends
p164
Vlibc6-i686
p165
sVconfigs
p166
(lp167
Vkernelarch-x86/config-arch-32
p168
ass(Vbase
p169
g41
g42
tp170
(dp171
g75
(lp172
Vaptosid-amd64
p173
asg78
I01
sstp174
Rp175
.