ccopy_reg
_reconstructor
p0
(cdebian_linux.config
ConfigCore
p1
c__builtin__
dict
p2
(dp3
(Vdescription
p4
Vamd64
p5
Vnone
p6
Vaptosid-amd64
p7
tp8
(dp9
Vparts
p10
(lp11
Vxen
p12
ass(Vimage
p13
Vi386
p14
tp15
(dp16
Vbootloaders
p17
(lp18
Vgrub-pc
p19
aVextlinux
p20
aVgrub-efi-ia32
p21
asVconfigs
p22
(lp23
sVsuggests
p24
Vcrda
p25
sVinstall-stem
p26
Vvmlinuz
p27
ss(Vrelations
p28
tp29
(dp30
Vgcc-5
p31
Vgcc-5
p32
sVinitramfs-fallback
p33
Vlinux-initramfs-tool
p34
sVinitramfs-tools
p35
Vinitramfs-tools (>= 0.121~)
p36
ss(Vbuild
p37
g14
tp38
(dp39
Vdebug-info
p40
I00
sVimage-file
p41
Varch/x86/boot/bzImage
p42
ss(Vxen
p43
g5
g6
Vaptosid-amd64
p44
tp45
(dp46
Vflavours
p47
(lp48
Vaptosid-amd64
p49
ass(Vdescription
p50
tp51
(dp52
Vpart-long-up
p53
VThis kernel is not suitable for SMP (multi-processor,\u000amulti-core or hyper-threaded) systems.
p54
sVpart-long-xen
p55
VThis kernel also runs on a Xen hypervisor.\u000aIt supports both privileged (dom0) and unprivileged (domU) operation.
p56
ss(Vbase
p57
g14
Vnone
p58
tp59
(dp60
Vimplicit-flavour
p61
I01
sVflavours
p62
(lp63
Vaptosid-686
p64
ass(Vdescription
p65
g5
NVaptosid-amd64
p66
tp67
(dp68
Vhardware-long
p69
VPCs with AMD64 or Intel 64 processors
p70
sVhardware
p71
V64-bit PCs
p72
ss(Vimage
p73
g5
NVaptosid-amd64
p74
tp75
(dp76
Vconfigs
p77
(lp78
Vkernelarch-x86/config-arch-64
p79
ass(Vbase
p80
tp81
(dp82
Vcompiler
p83
Vgcc-5
p84
sVfeaturesets
p85
(lp86
Vnone
p87
asVarches
p88
(lp89
Vamd64
p90
aVi386
p91
ass(Vdescription
p92
g14
NVaptosid-686
p93
tp94
(dp95
Vhardware-long
p96
VPCs with Intel Pentium Pro/II/III/4/4M/D/M, Xeon, Celeron, Core or Atom; AMD Geode LX/NX, Athlon (K7), Duron, Opteron, Sempron, Turion or Phenom; Transmeta Efficeon; VIA C3 "Nehemiah" or C7 processors
p97
sVhardware
p98
Vmodern PCs
p99
ss(Vbase
p100
g14
tp101
(dp102
Vkernel-arch
p103
Vx86
p104
sVfeaturesets
p105
(lp106
Vnone
p107
ag58
ass(Vbuild
p108
g5
tp109
(dp110
Vdebug-info
p111
I00
sVimage-file
p112
Varch/x86/boot/bzImage
p113
ss(Vimage
p114
g5
tp115
(dp116
Vbootloaders
p117
(lp118
Vgrub-pc
p119
aVextlinux
p120
aVgrub-efi-amd64
p121
asVconfigs
p122
(lp123
sVsuggests
p124
Vcrda
p125
sVinstall-stem
p126
Vvmlinuz
p127
ss(Vbase
p128
g5
tp129
(dp130
Vkernel-arch
p131
Vx86
p132
sVfeaturesets
p133
(lp134
g107
ag6
ass(Vversion
p135
tp136
(dp137
Vabiname_base
p138
V4.6.0
p139
sVabiname
p140
V4.6.0-2.slh.1
p141
sVsource
p142
V4.6-6
p143
sVupstream
p144
V4.6
p145
ss(Vbase
p146
g5
g6
tp147
(dp148
g61
I01
sg62
(lp149
Vaptosid-amd64
p150
ass(Vimage
p151
tp152
(dp153
Vtype
p154
Vplain
p155
sVinitramfs-generators
p156
(lp157
Vinitramfs-tools
p158
aVinitramfs-fallback
p159
ass(Vimage
p160
g14
NVaptosid-686
p161
tp162
(dp163
Vrecommends
p164
Vlibc6-i686
p165
sVconfigs
p166
(lp167
Vkernelarch-x86/config-arch-32
p168
ass(Vabi
p169
tp170
(dp171
Vabiname
p172
V2.slh.1
p173
sstp174
Rp175
.