ccopy_reg
_reconstructor
p1
(cdebian_linux.config
ConfigCore
p2
c__builtin__
dict
p3
(dp4
(S'image'
S'amd64'
p5
tp6
(dp7
S'suggests'
p8
S'crda'
p9
sS'configs'
p10
(lp11
S'kernelarch-x86/config'
p12
asS'bootloaders'
p13
(lp14
S'grub-pc'
p15
aS'extlinux'
p16
aS'grub-efi-amd64'
p17
ass(S'base'
p18
g5
S'none'
p19
tp20
(dp21
S'implicit-flavour'
p22
I01
sS'flavours'
p23
(lp24
S'aptosid-amd64'
p25
ass(S'image'
g5
NS'aptosid-amd64'
tp26
(dp27
S'configs'
p28
(lp29
S'kernelarch-x86/config-arch-64'
p30
ass(S'base'
g5
tp31
(dp32
S'kernel-arch'
p33
S'x86'
p34
sS'featuresets'
p35
(lp36
g19
ass(S'image'
p37
tp38
(dp39
S'initramfs-generators'
p40
(lp41
S'initramfs-tools'
p42
aS'initramfs-fallback'
p43
asS'type'
p44
S'plain'
p45
ss(S'image'
S'i386'
p46
NS'aptosid-686'
tp47
(dp48
S'configs'
p49
(lp50
S'kernelarch-x86/config-arch-32'
p51
asS'recommends'
p52
S'libc6-i686'
p53
ss(S'description'
g46
NS'aptosid-686'
tp54
(dp55
S'hardware'
p56
S'modern PCs'
p57
sS'hardware-long'
p58
S'PCs with Intel Pentium Pro/II/III/4/4M/D/M, Xeon, Celeron, Core or Atom; AMD Geode LX/NX, Athlon (K7), Duron, Opteron, Sempron, Turion or Phenom; Transmeta Efficeon; VIA C3 "Nehemiah" or C7 processors'
p59
ss(S'version'
p60
tp61
(dp62
S'abiname'
p63
S'3.9-3.slh.1'
p64
sS'source'
p65
V3.9-13
p66
ss(S'base'
p67
g46
tp68
(dp69
S'kernel-arch'
p70
S'x86'
p71
sg35
(lp72
g19
ass(S'build'
g5
NS'aptosid-amd64'
tp73
(dp74
S'debug-info'
p75
I00
ss(S'build'
g46
NS'aptosid-686'
tp76
(dp77
S'debug-info'
p78
I00
ss(S'abi'
p79
tp80
(dp81
S'abiname'
p82
S'3.slh.1'
p83
ss(S'image'
p84
g46
tp85
(dp86
S'suggests'
p87
S'crda'
p88
sS'configs'
p89
(lp90
S'kernelarch-x86/config'
p91
asS'bootloaders'
p92
(lp93
S'grub-pc'
p94
aS'extlinux'
p95
ass(g18
g46
g19
tp96
(dp97
g22
I01
sg23
(lp98
S'aptosid-686'
p99
ass(S'description'
g5
NS'aptosid-amd64'
tp100
(dp101
S'hardware'
p102
S'64-bit PCs'
p103
sS'hardware-long'
p104
S'PCs with AMD64 or Intel 64 processors'
p105
ss(S'base'
p106
tp107
(dp108
S'arches'
p109
(lp110
S'amd64'
p111
aS'i386'
p112
asS'featuresets'
p113
(lp114
S'none'
p115
asS'compiler'
p116
S'gcc-4.7'
p117
ss(S'relations'
p118
tp119
(dp120
S'initramfs-fallback'
p121
S'linux-initramfs-tool'
p122
sS'lilo'
p123
S'lilo (>= 22.8-8.2~)'
p124
sS'gcc-4.7'
p125
S'gcc-4.7'
p126
sS'initramfs-tools'
p127
S'initramfs-tools (>= 0.110~)'
p128
sS'elilo'
p129
S'elilo (>= 3.12-3.1~)'
p130
sstRp131
.