ccopy_reg
_reconstructor
p0
(cdebian_linux.config
ConfigCore
p1
c__builtin__
dict
p2
(dp3
(Vdescription
p4
Vamd64
p5
Vnone
p6
Vaptosid-amd64
p7
tp8
(dp9
Vparts
p10
(lp11
Vxen
p12
ass(Vbuild
p13
g5
tp14
(dp15
Vimage-file
p16
Varch/x86/boot/bzImage
p17
sVdebug-info
p18
I00
ss(Vimage
p19
g5
tp20
(dp21
Vinstall-stem
p22
Vvmlinuz
p23
sVsuggests
p24
Vcrda
p25
sVbootloaders
p26
(lp27
Vgrub-pc
p28
aVextlinux
p29
aVgrub-efi-amd64
p30
asVbreaks
p31
Vxserver-xorg-input-vmmouse (<< 1:13.0.99)
p32
ss(Vbase
p33
Vi386
p34
tp35
(dp36
Vkernel-arch
p37
Vx86
p38
sVfeaturesets
p39
(lp40
Vnone
p41
aVnone
p42
ass(Vimage
p43
g34
tp44
(dp45
Vinstall-stem
p46
Vvmlinuz
p47
sVsuggests
p48
Vcrda
p49
sVbootloaders
p50
(lp51
Vgrub-pc
p52
aVextlinux
p53
aVgrub-efi-ia32
p54
asVbreaks
p55
Vxserver-xorg-input-vmmouse (<< 1:13.0.99)
p56
ss(Vversion
p57
tp58
(dp59
Vabiname_base
p60
V4.7.0
p61
sVabiname
p62
V4.7.0-2.slh.2
p63
sVsource
p64
V4.7-11
p65
sVupstream
p66
V4.7
p67
ss(Vbase
p68
g5
tp69
(dp70
Vkernel-arch
p71
Vx86
p72
sVfeaturesets
p73
(lp74
g41
ag6
ass(Vdescription
p75
g34
NVaptosid-686
p76
tp77
(dp78
Vhardware
p79
Vmodern PCs
p80
sVhardware-long
p81
VPCs with Intel Pentium Pro/II/III/4/4M/D/M, Xeon, Celeron, Core or Atom; AMD Geode LX/NX, Athlon (K7), Duron, Opteron, Sempron, Turion or Phenom; Transmeta Efficeon; VIA C3 "Nehemiah" or C7 processors
p82
ss(Vbase
p83
tp84
(dp85
Vcompiler
p86
Vgcc-6
p87
sVfeaturesets
p88
(lp89
Vnone
p90
asVarches
p91
(lp92
Vamd64
p93
aVi386
p94
ass(Vdescription
p95
tp96
(dp97
Vpart-long-xen
p98
VThis kernel also runs on a Xen hypervisor.\u000aIt supports both privileged (dom0) and unprivileged (domU) operation.
p99
sVpart-long-up
p100
VThis kernel is not suitable for SMP (multi-processor,\u000amulti-core or hyper-threaded) systems.
p101
ss(Vxen
p102
g5
g6
Vaptosid-amd64
p103
tp104
(dp105
Vflavours
p106
(lp107
Vaptosid-amd64
p108
ass(Vabi
p109
tp110
(dp111
Vabiname
p112
V2.slh.2
p113
ss(Vbase
p114
g5
g6
tp115
(dp116
Vflavours
p117
(lp118
Vaptosid-amd64
p119
asVimplicit-flavour
p120
I01
ss(Vimage
p121
tp122
(dp123
Vinitramfs-generators
p124
(lp125
Vinitramfs-tools
p126
aVinitramfs-fallback
p127
ass(Vbuild
p128
g34
tp129
(dp130
Vimage-file
p131
Varch/x86/boot/bzImage
p132
sVdebug-info
p133
I00
ss(Vbase
p134
g34
g42
tp135
(dp136
g117
(lp137
Vaptosid-686
p138
asg120
I01
ss(Vdescription
p139
g5
NVaptosid-amd64
p140
tp141
(dp142
Vhardware
p143
V64-bit PCs
p144
sVhardware-long
p145
VPCs with AMD64 or Intel 64 processors
p146
ss(Vrelations
p147
tp148
(dp149
Vinitramfs-fallback
p150
Vlinux-initramfs-tool
p151
sVinitramfs-tools
p152
Vinitramfs-tools (>= 0.121~)
p153
sVgcc-6
p154
Vgcc-6
p155
sstp156
Rp157
.