ccopy_reg
_reconstructor
p0
(cdebian_linux.config
ConfigCore
p1
c__builtin__
dict
p2
(dp3
(Vdescription
p4
Vamd64
p5
Vnone
p6
Vaptosid-amd64
p7
tp8
(dp9
Vparts
p10
(lp11
Vxen
p12
ass(Vbase
p13
tp14
(dp15
Varches
p16
(lp17
Vamd64
p18
aVi386
p19
asVcompiler
p20
Vgcc-6
p21
sVfeaturesets
p22
(lp23
Vnone
p24
ass(Vimage
p25
Vi386
p26
tp27
(dp28
Vbreaks
p29
Vxserver-xorg-input-vmmouse (<< 1:13.0.99)
p30
sVsuggests
p31
Vcrda
p32
sVbootloaders
p33
(lp34
Vgrub-pc
p35
aVextlinux
p36
aVgrub-efi-ia32
p37
asVinstall-stem
p38
Vvmlinuz
p39
ss(Vimage
p40
g5
tp41
(dp42
Vbreaks
p43
Vxserver-xorg-input-vmmouse (<< 1:13.0.99)
p44
sVsuggests
p45
Vcrda
p46
sVbootloaders
p47
(lp48
Vgrub-pc
p49
aVextlinux
p50
aVgrub-efi-amd64
p51
asVinstall-stem
p52
Vvmlinuz
p53
ss(Vdescription
p54
tp55
(dp56
Vpart-long-xen
p57
VThis kernel also runs on a Xen hypervisor.\u000aIt supports both privileged (dom0) and unprivileged (domU) operation.
p58
sVpart-long-up
p59
VThis kernel is not suitable for SMP (multi-processor,\u000amulti-core or hyper-threaded) systems.
p60
ss(Vbase
p61
g5
g6
tp62
(dp63
Vimplicit-flavour
p64
I01
sVflavours
p65
(lp66
Vaptosid-amd64
p67
ass(Vdescription
p68
g5
NVaptosid-amd64
p69
tp70
(dp71
Vhardware-long
p72
VPCs with AMD64 or Intel 64 processors
p73
sVhardware
p74
V64-bit PCs
p75
ss(Vbase
p76
g5
tp77
(dp78
Vkernel-arch
p79
Vx86
p80
sVfeaturesets
p81
(lp82
Vnone
p83
ag6
ass(Vabi
p84
tp85
(dp86
Vabiname
p87
V8.slh.1
p88
ss(Vrelations
p89
tp90
(dp91
Vgcc-6
p92
Vgcc-6
p93
sVinitramfs-fallback
p94
Vlinux-initramfs-tool
p95
sVinitramfs-tools
p96
Vinitramfs-tools (>= 0.121~)
p97
ss(Vimage
p98
tp99
(dp100
Vinitramfs-generators
p101
(lp102
Vinitramfs-tools
p103
aVinitramfs-fallback
p104
ass(Vbase
p105
g26
tp106
(dp107
Vkernel-arch
p108
Vx86
p109
sVfeaturesets
p110
(lp111
g83
aVnone
p112
ass(Vbase
p113
g26
g112
tp114
(dp115
g64
I01
sg65
(lp116
Vaptosid-686
p117
ass(Vbuild
p118
g5
tp119
(dp120
Vdebug-info
p121
I00
sVimage-file
p122
Varch/x86/boot/bzImage
p123
ss(Vdescription
p124
g26
NVaptosid-686
p125
tp126
(dp127
Vhardware-long
p128
VPCs with Intel Pentium Pro/II/III/4/4M/D/M, Xeon, Celeron, Core or Atom; AMD Geode LX/NX, Athlon (K7), Duron, Opteron, Sempron, Turion or Phenom; Transmeta Efficeon; VIA C3 "Nehemiah" or C7 processors
p129
sVhardware
p130
Vmodern PCs
p131
ss(Vbuild
p132
g26
tp133
(dp134
Vdebug-info
p135
I00
sVimage-file
p136
Varch/x86/boot/bzImage
p137
ss(Vversion
p138
tp139
(dp140
Vupstream
p141
V4.11
p142
sVabiname_base
p143
V4.11.0
p144
sVsource
p145
V4.11-17
p146
sVabiname
p147
V4.11.0-8.slh.1
p148
sstp149
Rp150
.