ccopy_reg
_reconstructor
p0
(cdebian_linux.config
ConfigCore
p1
c__builtin__
dict
p2
(dp3
(Vbuild
p4
Vamd64
p5
tp6
(dp7
Vdebug-info
p8
I00
sVimage-file
p9
Varch/x86/boot/bzImage
p10
ss(Vdescription
p11
tp12
(dp13
Vpart-long-up
p14
VThis kernel is not suitable for SMP (multi-processor,\u000amulti-core or hyper-threaded) systems.
p15
sVpart-long-xen
p16
VThis kernel also runs on a Xen hypervisor.\u000aIt supports both privileged (dom0) and unprivileged (domU) operation.
p17
ss(Vbase
p18
g5
Vnone
p19
tp20
(dp21
Vflavours
p22
(lp23
Vaptosid-amd64
p24
asVimplicit-flavour
p25
I01
ss(Vabi
p26
tp27
(dp28
Vabiname
p29
V0.slh.3
p30
ss(Vimage
p31
Vi386
p32
tp33
(dp34
Vsuggests
p35
Vcrda
p36
sVbreaks
p37
Vxserver-xorg-input-vmmouse (<< 1:13.0.99)
p38
sVbootloaders
p39
(lp40
Vgrub-pc
p41
aVextlinux
p42
aVgrub-efi-ia32
p43
asVinstall-stem
p44
Vvmlinuz
p45
ss(Vdescription
p46
g32
NVaptosid-686
p47
tp48
(dp49
Vhardware-long
p50
VPCs with Intel Pentium Pro/II/III/4/4M/D/M, Xeon, Celeron, Core or Atom; AMD Geode LX/NX, Athlon (K7), Duron, Opteron, Sempron, Turion or Phenom; Transmeta Efficeon; VIA C3 "Nehemiah" or C7 processors
p51
sVhardware
p52
Vmodern PCs
p53
ss(Vbase
p54
g32
tp55
(dp56
Vfeaturesets
p57
(lp58
Vnone
p59
aVnone
p60
asVkernel-arch
p61
Vx86
p62
ss(Vbase
p63
tp64
(dp65
Varches
p66
(lp67
Vamd64
p68
aVi386
p69
asVcompiler
p70
Vgcc-6
p71
sVfeaturesets
p72
(lp73
Vnone
p74
ass(Vdescription
p75
g5
g19
Vaptosid-amd64
p76
tp77
(dp78
Vparts
p79
(lp80
Vxen
p81
ass(Vbuild
p82
g32
tp83
(dp84
Vdebug-info
p85
I00
sVimage-file
p86
Varch/x86/boot/bzImage
p87
ss(Vbase
p88
g32
g60
tp89
(dp90
g22
(lp91
Vaptosid-686
p92
asg25
I01
ss(Vimage
p93
g5
tp94
(dp95
Vsuggests
p96
Vcrda
p97
sVbreaks
p98
Vxserver-xorg-input-vmmouse (<< 1:13.0.99)
p99
sVbootloaders
p100
(lp101
Vgrub-pc
p102
aVextlinux
p103
aVgrub-efi-amd64
p104
asVinstall-stem
p105
Vvmlinuz
p106
ss(Vbase
p107
g5
tp108
(dp109
Vfeaturesets
p110
(lp111
g59
ag19
asVkernel-arch
p112
Vx86
p113
ss(Vxen
p114
g5
g19
Vaptosid-amd64
p115
tp116
(dp117
Vflavours
p118
(lp119
Vaptosid-amd64
p120
ass(Vimage
p121
tp122
(dp123
Vinitramfs-generators
p124
(lp125
Vinitramfs-tools
p126
aVinitramfs-fallback
p127
ass(Vdescription
p128
g5
NVaptosid-amd64
p129
tp130
(dp131
Vhardware-long
p132
VPCs with AMD64 or Intel 64 processors
p133
sVhardware
p134
V64-bit PCs
p135
ss(Vrelations
p136
tp137
(dp138
Vinitramfs-tools
p139
Vinitramfs-tools (>= 0.121~)
p140
sVinitramfs-fallback
p141
Vlinux-initramfs-tool
p142
sVgcc-6
p143
Vgcc-6
p144
ss(Vversion
p145
tp146
(dp147
Vabiname
p148
V4.7.0-0.slh.3
p149
sVupstream
p150
V4.7
p151
sVsource
p152
V4.7-6
p153
sVabiname_base
p154
V4.7.0
p155
sstp156
Rp157
.