ccopy_reg
_reconstructor
p0
(cdebian_linux.config
ConfigCore
p1
c__builtin__
dict
p2
(dp3
(Vimage
p4
Vi386
p5
tp6
(dp7
Vinstall-stem
p8
Vvmlinuz
p9
sVconfigs
p10
(lp11
sVsuggests
p12
Vcrda
p13
sVbootloaders
p14
(lp15
Vgrub-pc
p16
aVextlinux
p17
aVgrub-efi-ia32
p18
ass(Vdescription
p19
g5
NVaptosid-686
p20
tp21
(dp22
Vhardware
p23
Vmodern PCs
p24
sVhardware-long
p25
VPCs with Intel Pentium Pro/II/III/4/4M/D/M, Xeon, Celeron, Core or Atom; AMD Geode LX/NX, Athlon (K7), Duron, Opteron, Sempron, Turion or Phenom; Transmeta Efficeon; VIA C3 "Nehemiah" or C7 processors
p26
ss(Vdescription
p27
tp28
(dp29
Vpart-long-xen
p30
VThis kernel also runs on a Xen hypervisor.\u000aIt supports both privileged (dom0) and unprivileged (domU) operation.
p31
sVpart-long-up
p32
VThis kernel is not suitable for SMP (multi-processor,\u000amulti-core or hyper-threaded) systems.
p33
ss(Vimage
p34
Vamd64
p35
NVaptosid-amd64
p36
tp37
(dp38
Vconfigs
p39
(lp40
Vkernelarch-x86/config-arch-64
p41
ass(Vabi
p42
tp43
(dp44
Vabiname
p45
V3.slh.1
p46
ss(Vxen
p47
g35
Vnone
p48
Vaptosid-amd64
p49
tp50
(dp51
Vflavours
p52
(lp53
Vaptosid-amd64
p54
ass(Vimage
p55
tp56
(dp57
Vinitramfs-generators
p58
(lp59
Vinitramfs-tools
p60
aVinitramfs-fallback
p61
asVtype
p62
Vplain
p63
ss(Vbase
p64
tp65
(dp66
Vcompiler
p67
Vgcc-5
p68
sVarches
p69
(lp70
Vamd64
p71
aVi386
p72
asVfeaturesets
p73
(lp74
Vnone
p75
ass(Vbase
p76
g35
tp77
(dp78
Vfeaturesets
p79
(lp80
Vnone
p81
ag48
asVkernel-arch
p82
Vx86
p83
ss(Vbase
p84
g35
g48
tp85
(dp86
Vimplicit-flavour
p87
I01
sVflavours
p88
(lp89
Vaptosid-amd64
p90
ass(Vrelations
p91
tp92
(dp93
Vgcc-5
p94
Vgcc-5
p95
sVinitramfs-fallback
p96
Vlinux-initramfs-tool
p97
sVinitramfs-tools
p98
Vinitramfs-tools (>= 0.118+c0.aptosid.1~)
p99
ss(Vbuild
p100
g5
tp101
(dp102
Vdebug-info
p103
I00
sVimage-file
p104
Varch/x86/boot/bzImage
p105
ss(Vbuild
p106
g35
tp107
(dp108
Vdebug-info
p109
I00
sVimage-file
p110
Varch/x86/boot/bzImage
p111
ss(Vbase
p112
g5
Vnone
p113
tp114
(dp115
g87
I01
sg88
(lp116
Vaptosid-686
p117
ass(Vbase
p118
g5
tp119
(dp120
Vfeaturesets
p121
(lp122
g81
ag113
asVkernel-arch
p123
Vx86
p124
ss(Vdescription
p125
g35
NVaptosid-amd64
p126
tp127
(dp128
Vhardware
p129
V64-bit PCs
p130
sVhardware-long
p131
VPCs with AMD64 or Intel 64 processors
p132
ss(Vimage
p133
g5
NVaptosid-686
p134
tp135
(dp136
Vconfigs
p137
(lp138
Vkernelarch-x86/config-arch-32
p139
asVrecommends
p140
Vlibc6-i686
p141
ss(Vdescription
p142
g35
g48
Vaptosid-amd64
p143
tp144
(dp145
Vparts
p146
(lp147
Vxen
p148
ass(Vimage
p149
g35
tp150
(dp151
Vinstall-stem
p152
Vvmlinuz
p153
sVconfigs
p154
(lp155
sVsuggests
p156
Vcrda
p157
sVbootloaders
p158
(lp159
Vgrub-pc
p160
aVextlinux
p161
aVgrub-efi-amd64
p162
ass(Vversion
p163
tp164
(dp165
Vabiname_base
p166
V4.4.0
p167
sVsource
p168
V4.4-13
p169
sVupstream
p170
V4.4
p171
sVabiname
p172
V4.4.0-3.slh.1
p173
sstp174
Rp175
.