ccopy_reg
_reconstructor
p0
(cdebian_linux.config
ConfigCore
p1
c__builtin__
dict
p2
(dp3
(Vdescription
p4
Vamd64
p5
NVaptosid-amd64
p6
tp7
(dp8
Vhardware
p9
V64-bit PCs
p10
sVhardware-long
p11
VPCs with AMD64 or Intel 64 processors
p12
ss(Vbase
p13
g5
tp14
(dp15
Vfeaturesets
p16
(lp17
Vnone
p18
aVnone
p19
asVkernel-arch
p20
Vx86
p21
ss(Vimage
p22
g5
tp23
(dp24
Vinstall-stem
p25
Vvmlinuz
p26
sVconfigs
p27
(lp28
sVbootloaders
p29
(lp30
Vgrub-pc
p31
aVextlinux
p32
aVgrub-efi-amd64
p33
asVsuggests
p34
Vcrda
p35
ss(Vbase
p36
g5
g19
tp37
(dp38
Vflavours
p39
(lp40
Vaptosid-amd64
p41
asVimplicit-flavour
p42
I01
ss(Vimage
p43
Vi386
p44
NVaptosid-686
p45
tp46
(dp47
Vrecommends
p48
Vlibc6-i686
p49
sVconfigs
p50
(lp51
Vkernelarch-x86/config-arch-32
p52
ass(Vimage
p53
g44
tp54
(dp55
Vinstall-stem
p56
Vvmlinuz
p57
sVconfigs
p58
(lp59
sVbootloaders
p60
(lp61
Vgrub-pc
p62
aVextlinux
p63
aVgrub-efi-ia32
p64
asVsuggests
p65
Vcrda
p66
ss(Vimage
p67
tp68
(dp69
Vinitramfs-generators
p70
(lp71
Vinitramfs-tools
p72
aVinitramfs-fallback
p73
asVtype
p74
Vplain
p75
ss(Vversion
p76
tp77
(dp78
Vabiname_base
p79
V4.6.0
p80
sVabiname
p81
V4.6.0-2.slh.4
p82
sVupstream
p83
V4.6
p84
sVsource
p85
V4.6-10
p86
ss(Vdescription
p87
g5
g19
Vaptosid-amd64
p88
tp89
(dp90
Vparts
p91
(lp92
Vxen
p93
ass(Vbase
p94
g44
Vnone
p95
tp96
(dp97
g39
(lp98
Vaptosid-686
p99
asg42
I01
ss(Vdescription
p100
tp101
(dp102
Vpart-long-up
p103
VThis kernel is not suitable for SMP (multi-processor,\u000amulti-core or hyper-threaded) systems.
p104
sVpart-long-xen
p105
VThis kernel also runs on a Xen hypervisor.\u000aIt supports both privileged (dom0) and unprivileged (domU) operation.
p106
ss(Vxen
p107
g5
g19
Vaptosid-amd64
p108
tp109
(dp110
Vflavours
p111
(lp112
Vaptosid-amd64
p113
ass(Vdescription
p114
g44
NVaptosid-686
p115
tp116
(dp117
Vhardware
p118
Vmodern PCs
p119
sVhardware-long
p120
VPCs with Intel Pentium Pro/II/III/4/4M/D/M, Xeon, Celeron, Core or Atom; AMD Geode LX/NX, Athlon (K7), Duron, Opteron, Sempron, Turion or Phenom; Transmeta Efficeon; VIA C3 "Nehemiah" or C7 processors
p121
ss(Vbuild
p122
g5
tp123
(dp124
Vdebug-info
p125
I00
sVimage-file
p126
Varch/x86/boot/bzImage
p127
ss(Vbase
p128
tp129
(dp130
Vfeaturesets
p131
(lp132
Vnone
p133
asVcompiler
p134
Vgcc-5
p135
sVarches
p136
(lp137
Vamd64
p138
aVi386
p139
ass(Vabi
p140
tp141
(dp142
Vabiname
p143
V2.slh.4
p144
ss(Vbuild
p145
g44
tp146
(dp147
Vdebug-info
p148
I00
sVimage-file
p149
Varch/x86/boot/bzImage
p150
ss(Vbase
p151
g44
tp152
(dp153
Vfeaturesets
p154
(lp155
g18
ag95
asVkernel-arch
p156
Vx86
p157
ss(Vimage
p158
g5
NVaptosid-amd64
p159
tp160
(dp161
Vconfigs
p162
(lp163
Vkernelarch-x86/config-arch-64
p164
ass(Vrelations
p165
tp166
(dp167
Vinitramfs-fallback
p168
Vlinux-initramfs-tool
p169
sVinitramfs-tools
p170
Vinitramfs-tools (>= 0.121~)
p171
sVgcc-5
p172
Vgcc-5
p173
sstp174
Rp175
.