ccopy_reg
_reconstructor
p0
(cdebian_linux.config
ConfigCore
p1
c__builtin__
dict
p2
(dp3
(Vimage
p4
Vamd64
p5
tp6
(dp7
Vbreaks
p8
Vxserver-xorg-input-vmmouse (<< 1:13.0.99)
p9
sVbootloaders
p10
(lp11
Vgrub-pc
p12
aVextlinux
p13
aVgrub-efi-amd64
p14
asVinstall-stem
p15
Vvmlinuz
p16
sVsuggests
p17
Vcrda
p18
ss(Vdescription
p19
g5
NVaptosid-amd64
p20
tp21
(dp22
Vhardware-long
p23
VPCs with AMD64 or Intel 64 processors
p24
sVhardware
p25
V64-bit PCs
p26
ss(Vbase
p27
Vi386
p28
tp29
(dp30
Vfeaturesets
p31
(lp32
Vnone
p33
aVnone
p34
asVkernel-arch
p35
Vx86
p36
ss(Vabi
p37
tp38
(dp39
Vabiname
p40
V4.slh.2
p41
ss(Vrelations
p42
tp43
(dp44
Vgcc-6
p45
Vgcc-6
p46
sVinitramfs-fallback
p47
Vlinux-initramfs-tool
p48
sVinitramfs-tools
p49
Vinitramfs-tools (>= 0.121~)
p50
ss(Vbase
p51
g5
tp52
(dp53
Vfeaturesets
p54
(lp55
g33
aVnone
p56
asVkernel-arch
p57
Vx86
p58
ss(Vbuild
p59
g5
tp60
(dp61
Vimage-file
p62
Varch/x86/boot/bzImage
p63
sVdebug-info
p64
I00
ss(Vdescription
p65
g5
g56
Vaptosid-amd64
p66
tp67
(dp68
Vparts
p69
(lp70
Vxen
p71
ass(Vversion
p72
tp73
(dp74
Vupstream
p75
V4.9
p76
sVsource
p77
V4.9-9
p78
sVabiname
p79
V4.9.0-4.slh.2
p80
sVabiname_base
p81
V4.9.0
p82
ss(Vimage
p83
tp84
(dp85
Vinitramfs-generators
p86
(lp87
Vinitramfs-tools
p88
aVinitramfs-fallback
p89
ass(Vbuild
p90
g28
tp91
(dp92
Vimage-file
p93
Varch/x86/boot/bzImage
p94
sVdebug-info
p95
I00
ss(Vimage
p96
g28
tp97
(dp98
Vbreaks
p99
Vxserver-xorg-input-vmmouse (<< 1:13.0.99)
p100
sVbootloaders
p101
(lp102
Vgrub-pc
p103
aVextlinux
p104
aVgrub-efi-ia32
p105
asVinstall-stem
p106
Vvmlinuz
p107
sVsuggests
p108
Vcrda
p109
ss(Vdescription
p110
tp111
(dp112
Vpart-long-up
p113
VThis kernel is not suitable for SMP (multi-processor,\u000amulti-core or hyper-threaded) systems.
p114
sVpart-long-xen
p115
VThis kernel also runs on a Xen hypervisor.\u000aIt supports both privileged (dom0) and unprivileged (domU) operation.
p116
ss(Vbase
p117
g28
g34
tp118
(dp119
Vflavours
p120
(lp121
Vaptosid-686
p122
asVimplicit-flavour
p123
I01
ss(Vbase
p124
g5
g56
tp125
(dp126
g120
(lp127
Vaptosid-amd64
p128
asg123
I01
ss(Vbase
p129
tp130
(dp131
Varches
p132
(lp133
Vamd64
p134
aVi386
p135
asVfeaturesets
p136
(lp137
Vnone
p138
asVcompiler
p139
Vgcc-6
p140
ss(Vdescription
p141
g28
NVaptosid-686
p142
tp143
(dp144
Vhardware-long
p145
VPCs with Intel Pentium Pro/II/III/4/4M/D/M, Xeon, Celeron, Core or Atom; AMD Geode LX/NX, Athlon (K7), Duron, Opteron, Sempron, Turion or Phenom; Transmeta Efficeon; VIA C3 "Nehemiah" or C7 processors
p146
sVhardware
p147
Vmodern PCs
p148
sstp149
Rp150
.