ccopy_reg
_reconstructor
p0
(cdebian_linux.config
ConfigCore
p1
c__builtin__
dict
p2
(dp3
(Vbase
p4
Vi386
p5
Vnone
p6
tp7
(dp8
Vimplicit-flavour
p9
I01
sVflavours
p10
(lp11
Vaptosid-686
p12
ass(Vdescription
p13
g5
NVaptosid-686
p14
tp15
(dp16
Vhardware-long
p17
VPCs with Intel Pentium Pro/II/III/4/4M/D/M, Xeon, Celeron, Core or Atom; AMD Geode LX/NX, Athlon (K7), Duron, Opteron, Sempron, Turion or Phenom; Transmeta Efficeon; VIA C3 "Nehemiah" or C7 processors
p18
sVhardware
p19
Vmodern PCs
p20
ss(Vbuild
p21
g5
tp22
(dp23
Vimage-file
p24
Varch/x86/boot/bzImage
p25
sVdebug-info
p26
I00
ss(Vbase
p27
tp28
(dp29
Vcompiler
p30
Vgcc-6
p31
sVarches
p32
(lp33
Vamd64
p34
aVi386
p35
asVfeaturesets
p36
(lp37
Vnone
p38
ass(Vbuild
p39
Vamd64
p40
tp41
(dp42
Vimage-file
p43
Varch/x86/boot/bzImage
p44
sVdebug-info
p45
I00
ss(Vdescription
p46
tp47
(dp48
Vpart-long-up
p49
VThis kernel is not suitable for SMP (multi-processor,\u000amulti-core or hyper-threaded) systems.
p50
sVpart-long-xen
p51
VThis kernel also runs on a Xen hypervisor.\u000aIt supports both privileged (dom0) and unprivileged (domU) operation.
p52
ss(Vbase
p53
g40
tp54
(dp55
Vkernel-arch
p56
Vx86
p57
sVfeaturesets
p58
(lp59
Vnone
p60
aVnone
p61
ass(Vimage
p62
tp63
(dp64
Vinitramfs-generators
p65
(lp66
Vinitramfs-tools
p67
aVinitramfs-fallback
p68
ass(Vversion
p69
tp70
(dp71
Vsource
p72
V4.10-9
p73
sVupstream
p74
V4.10
p75
sVabiname_base
p76
V4.10.0
p77
sVabiname
p78
V4.10.0-4.slh.2
p79
ss(Vdescription
p80
g40
g61
Vaptosid-amd64
p81
tp82
(dp83
Vparts
p84
(lp85
Vxen
p86
ass(Vabi
p87
tp88
(dp89
Vabiname
p90
V4.slh.2
p91
ss(Vbase
p92
g5
tp93
(dp94
Vkernel-arch
p95
Vx86
p96
sVfeaturesets
p97
(lp98
g60
ag6
ass(Vimage
p99
g5
tp100
(dp101
Vinstall-stem
p102
Vvmlinuz
p103
sVbootloaders
p104
(lp105
Vgrub-pc
p106
aVextlinux
p107
aVgrub-efi-ia32
p108
asVbreaks
p109
Vxserver-xorg-input-vmmouse (<< 1:13.0.99)
p110
sVsuggests
p111
Vcrda
p112
ss(Vdescription
p113
g40
NVaptosid-amd64
p114
tp115
(dp116
Vhardware-long
p117
VPCs with AMD64 or Intel 64 processors
p118
sVhardware
p119
V64-bit PCs
p120
ss(Vrelations
p121
tp122
(dp123
Vinitramfs-fallback
p124
Vlinux-initramfs-tool
p125
sVgcc-6
p126
Vgcc-6
p127
sVinitramfs-tools
p128
Vinitramfs-tools (>= 0.121~)
p129
ss(Vimage
p130
g40
tp131
(dp132
Vinstall-stem
p133
Vvmlinuz
p134
sVbootloaders
p135
(lp136
Vgrub-pc
p137
aVextlinux
p138
aVgrub-efi-amd64
p139
asVbreaks
p140
Vxserver-xorg-input-vmmouse (<< 1:13.0.99)
p141
sVsuggests
p142
Vcrda
p143
ss(Vbase
p144
g40
g61
tp145
(dp146
g9
I01
sg10
(lp147
Vaptosid-amd64
p148
asstp149
Rp150
.