ccopy_reg
_reconstructor
p1
(cdebian_linux.config
ConfigCore
p2
c__builtin__
dict
p3
(dp4
(S'image'
S'amd64'
p5
tp6
(dp7
S'suggests'
p8
S'crda'
p9
sS'configs'
p10
(lp11
S'kernelarch-x86/config'
p12
asS'bootloaders'
p13
(lp14
S'grub-pc'
p15
aS'extlinux'
p16
aS'grub-efi-amd64'
p17
ass(S'base'
p18
g5
S'none'
p19
tp20
(dp21
S'implicit-flavour'
p22
I01
sS'flavours'
p23
(lp24
S'aptosid-amd64'
p25
ass(S'base'
g5
tp26
(dp27
S'kernel-arch'
p28
S'x86'
p29
sS'featuresets'
p30
(lp31
g19
ass(S'image'
p32
tp33
(dp34
S'initramfs-generators'
p35
(lp36
S'initramfs-tools'
p37
aS'initramfs-fallback'
p38
asS'type'
p39
S'plain'
p40
ss(S'image'
p41
S'i386'
p42
tp43
(dp44
S'suggests'
p45
S'crda'
p46
sS'configs'
p47
(lp48
S'kernelarch-x86/config'
p49
asS'bootloaders'
p50
(lp51
S'grub-pc'
p52
aS'extlinux'
p53
ass(S'version'
p54
tp55
(dp56
S'abiname'
p57
S'3.6-6.slh.4'
p58
sS'source'
p59
V3.6-21
p60
ss(S'image'
g5
NS'aptosid-amd64'
tp61
(dp62
S'configs'
p63
(lp64
S'kernelarch-x86/config-arch-64'
p65
ass(S'base'
p66
g42
tp67
(dp68
S'kernel-arch'
p69
S'x86'
p70
sg30
(lp71
g19
ass(S'build'
g5
NS'aptosid-amd64'
tp72
(dp73
S'debug-info'
p74
I00
ss(S'description'
g42
NS'aptosid-686'
tp75
(dp76
S'hardware'
p77
S'modern PCs'
p78
sS'hardware-long'
p79
S'PCs with Intel Pentium Pro/II/III/4/4M/D/M, Xeon, Celeron, Core or Atom; AMD Geode LX/NX, Athlon (K7), Duron, Opteron, Sempron, Turion or Phenom; Transmeta Efficeon; VIA C3 "Nehemiah" or C7 processors'
p80
ss(S'abi'
p81
tp82
(dp83
S'abiname'
p84
S'6.slh.4'
p85
ss(S'image'
g42
NS'aptosid-686'
tp86
(dp87
S'configs'
p88
(lp89
S'kernelarch-x86/config-arch-32'
p90
asS'recommends'
p91
S'libc6-i686'
p92
ss(g18
g42
g19
tp93
(dp94
g22
I01
sg23
(lp95
S'aptosid-686'
p96
ass(S'description'
g5
NS'aptosid-amd64'
tp97
(dp98
S'hardware'
p99
S'64-bit PCs'
p100
sS'hardware-long'
p101
S'PCs with AMD64 or Intel 64 processors'
p102
ss(S'build'
g42
NS'aptosid-686'
tp103
(dp104
S'debug-info'
p105
I00
ss(S'base'
p106
tp107
(dp108
S'arches'
p109
(lp110
S'amd64'
p111
aS'i386'
p112
asS'featuresets'
p113
(lp114
S'none'
p115
asS'compiler'
p116
S'gcc-4.7'
p117
ss(S'relations'
p118
tp119
(dp120
S'initramfs-fallback'
p121
S'linux-initramfs-tool'
p122
sS'lilo'
p123
S'lilo (>= 22.8-8.2~)'
p124
sS'gcc-4.7'
p125
S'gcc-4.7'
p126
sS'initramfs-tools'
p127
S'initramfs-tools (>= 0.99~)'
p128
sS'elilo'
p129
S'elilo (>= 3.12-3.1~)'
p130
sstRp131
.