ccopy_reg
_reconstructor
p1
(cdebian_linux.config
ConfigCore
p2
c__builtin__
dict
p3
(dp4
(S'image'
S'amd64'
p5
tp6
(dp7
S'suggests'
p8
S'crda'
p9
sS'configs'
p10
(lp11
S'kernelarch-x86/config'
p12
asS'bootloaders'
p13
(lp14
S'grub-pc'
p15
aS'extlinux'
p16
aS'grub-efi-amd64'
p17
ass(S'build'
g5
NS'aptosid-amd64'
tp18
(dp19
S'debug-info'
p20
I00
ss(S'base'
p21
g5
S'none'
p22
tp23
(dp24
S'implicit-flavour'
p25
I01
sS'flavours'
p26
(lp27
S'aptosid-amd64'
p28
ass(S'image'
S'i386'
p29
NS'aptosid-686'
tp30
(dp31
S'configs'
p32
(lp33
S'kernelarch-x86/config-arch-32'
p34
asS'recommends'
p35
S'libc6-i686'
p36
ss(S'base'
g5
tp37
(dp38
S'kernel-arch'
p39
S'x86'
p40
sS'featuresets'
p41
(lp42
g22
ass(S'image'
p43
tp44
(dp45
S'initramfs-generators'
p46
(lp47
S'initramfs-tools'
p48
aS'initramfs-fallback'
p49
asS'type'
p50
S'plain'
p51
ss(S'image'
g5
NS'aptosid-amd64'
tp52
(dp53
S'configs'
p54
(lp55
S'kernelarch-x86/config-arch-64'
p56
ass(S'description'
g5
NS'aptosid-amd64'
tp57
(dp58
S'hardware'
p59
S'64-bit PCs'
p60
sS'hardware-long'
p61
S'PCs with AMD64 or Intel 64 processors'
p62
ss(S'version'
p63
tp64
(dp65
S'abiname'
p66
S'3.7-9.slh.2'
p67
sS'source'
p68
V3.7-22
p69
ss(S'base'
p70
g29
tp71
(dp72
S'kernel-arch'
p73
S'x86'
p74
sg41
(lp75
g22
ass(S'description'
g29
NS'aptosid-686'
tp76
(dp77
S'hardware'
p78
S'modern PCs'
p79
sS'hardware-long'
p80
S'PCs with Intel Pentium Pro/II/III/4/4M/D/M, Xeon, Celeron, Core or Atom; AMD Geode LX/NX, Athlon (K7), Duron, Opteron, Sempron, Turion or Phenom; Transmeta Efficeon; VIA C3 "Nehemiah" or C7 processors'
p81
ss(S'abi'
p82
tp83
(dp84
S'abiname'
p85
S'9.slh.2'
p86
ss(S'image'
p87
g29
tp88
(dp89
S'suggests'
p90
S'crda'
p91
sS'configs'
p92
(lp93
S'kernelarch-x86/config'
p94
asS'bootloaders'
p95
(lp96
S'grub-pc'
p97
aS'extlinux'
p98
ass(g21
g29
g22
tp99
(dp100
g25
I01
sg26
(lp101
S'aptosid-686'
p102
ass(S'build'
g29
NS'aptosid-686'
tp103
(dp104
S'debug-info'
p105
I00
ss(S'base'
p106
tp107
(dp108
S'arches'
p109
(lp110
S'amd64'
p111
aS'i386'
p112
asS'featuresets'
p113
(lp114
S'none'
p115
asS'compiler'
p116
S'gcc-4.7'
p117
ss(S'relations'
p118
tp119
(dp120
S'initramfs-fallback'
p121
S'linux-initramfs-tool'
p122
sS'lilo'
p123
S'lilo (>= 22.8-8.2~)'
p124
sS'gcc-4.7'
p125
S'gcc-4.7'
p126
sS'initramfs-tools'
p127
S'initramfs-tools (>= 0.99~)'
p128
sS'elilo'
p129
S'elilo (>= 3.12-3.1~)'
p130
sstRp131
.