ccopy_reg
_reconstructor
p0
(cdebian_linux.config
ConfigCore
p1
c__builtin__
dict
p2
(dp3
(Vimage
p4
tp5
(dp6
Vinitramfs-generators
p7
(lp8
Vinitramfs-tools
p9
aVinitramfs-fallback
p10
ass(Vbase
p11
Vamd64
p12
tp13
(dp14
Vkernel-arch
p15
Vx86
p16
sVfeaturesets
p17
(lp18
Vnone
p19
aVnone
p20
ass(Vversion
p21
tp22
(dp23
Vupstream
p24
V4.8
p25
sVabiname
p26
V4.8.0-14.slh.1
p27
sVsource
p28
V4.8-24
p29
sVabiname_base
p30
V4.8.0
p31
ss(Vdescription
p32
g12
NVaptosid-amd64
p33
tp34
(dp35
Vhardware-long
p36
VPCs with AMD64 or Intel 64 processors
p37
sVhardware
p38
V64-bit PCs
p39
ss(Vbase
p40
Vi386
p41
Vnone
p42
tp43
(dp44
Vflavours
p45
(lp46
Vaptosid-686
p47
asVimplicit-flavour
p48
I01
ss(Vbase
p49
tp50
(dp51
Vcompiler
p52
Vgcc-6
p53
sVarches
p54
(lp55
Vamd64
p56
aVi386
p57
asVfeaturesets
p58
(lp59
Vnone
p60
ass(Vbuild
p61
g41
tp62
(dp63
Vimage-file
p64
Varch/x86/boot/bzImage
p65
sVdebug-info
p66
I00
ss(Vxen
p67
g12
g20
Vaptosid-amd64
p68
tp69
(dp70
Vflavours
p71
(lp72
Vaptosid-amd64
p73
ass(Vdescription
p74
g12
g20
Vaptosid-amd64
p75
tp76
(dp77
Vparts
p78
(lp79
Vxen
p80
ass(Vdescription
p81
g41
NVaptosid-686
p82
tp83
(dp84
Vhardware-long
p85
VPCs with Intel Pentium Pro/II/III/4/4M/D/M, Xeon, Celeron, Core or Atom; AMD Geode LX/NX, Athlon (K7), Duron, Opteron, Sempron, Turion or Phenom; Transmeta Efficeon; VIA C3 "Nehemiah" or C7 processors
p86
sVhardware
p87
Vmodern PCs
p88
ss(Vbase
p89
g41
tp90
(dp91
Vkernel-arch
p92
Vx86
p93
sVfeaturesets
p94
(lp95
g19
ag42
ass(Vrelations
p96
tp97
(dp98
Vinitramfs-tools
p99
Vinitramfs-tools (>= 0.121~)
p100
sVinitramfs-fallback
p101
Vlinux-initramfs-tool
p102
sVgcc-6
p103
Vgcc-6
p104
ss(Vbuild
p105
g12
tp106
(dp107
Vimage-file
p108
Varch/x86/boot/bzImage
p109
sVdebug-info
p110
I00
ss(Vabi
p111
tp112
(dp113
Vabiname
p114
V14.slh.1
p115
ss(Vbase
p116
g12
g20
tp117
(dp118
g45
(lp119
Vaptosid-amd64
p120
asg48
I01
ss(Vimage
p121
g41
tp122
(dp123
Vsuggests
p124
Vcrda
p125
sVbootloaders
p126
(lp127
Vgrub-pc
p128
aVextlinux
p129
aVgrub-efi-ia32
p130
asVinstall-stem
p131
Vvmlinuz
p132
sVbreaks
p133
Vxserver-xorg-input-vmmouse (<< 1:13.0.99)
p134
ss(Vdescription
p135
tp136
(dp137
Vpart-long-xen
p138
VThis kernel also runs on a Xen hypervisor.\u000aIt supports both privileged (dom0) and unprivileged (domU) operation.
p139
sVpart-long-up
p140
VThis kernel is not suitable for SMP (multi-processor,\u000amulti-core or hyper-threaded) systems.
p141
ss(Vimage
p142
g12
tp143
(dp144
Vsuggests
p145
Vcrda
p146
sVbootloaders
p147
(lp148
Vgrub-pc
p149
aVextlinux
p150
aVgrub-efi-amd64
p151
asVinstall-stem
p152
Vvmlinuz
p153
sVbreaks
p154
Vxserver-xorg-input-vmmouse (<< 1:13.0.99)
p155
sstp156
Rp157
.