ccopy_reg
_reconstructor
p0
(cdebian_linux.config
ConfigCore
p1
c__builtin__
dict
p2
(dp3
(Vbase
p4
tp5
(dp6
Varches
p7
(lp8
Vamd64
p9
aVi386
p10
asVfeaturesets
p11
(lp12
Vnone
p13
asVcompiler
p14
Vgcc-5
p15
ss(Vimage
p16
Vamd64
p17
NVaptosid-amd64
p18
tp19
(dp20
Vconfigs
p21
(lp22
Vkernelarch-x86/config-arch-64
p23
ass(Vbase
p24
Vi386
p25
tp26
(dp27
Vfeaturesets
p28
(lp29
Vnone
p30
aVnone
p31
asVkernel-arch
p32
Vx86
p33
ss(Vimage
p34
tp35
(dp36
Vinitramfs-generators
p37
(lp38
Vinitramfs-tools
p39
aVinitramfs-fallback
p40
asVtype
p41
Vplain
p42
ss(Vimage
p43
g25
tp44
(dp45
Vconfigs
p46
(lp47
sVinstall-stem
p48
Vvmlinuz
p49
sVsuggests
p50
Vcrda
p51
sVbootloaders
p52
(lp53
Vgrub-pc
p54
aVextlinux
p55
aVgrub-efi-ia32
p56
ass(Vbase
p57
g17
Vnone
p58
tp59
(dp60
Vflavours
p61
(lp62
Vaptosid-amd64
p63
asVimplicit-flavour
p64
I01
ss(Vimage
p65
g25
NVaptosid-686
p66
tp67
(dp68
Vconfigs
p69
(lp70
Vkernelarch-x86/config-arch-32
p71
asVrecommends
p72
Vlibc6-i686
p73
ss(Vbase
p74
g25
g31
tp75
(dp76
g61
(lp77
Vaptosid-686
p78
asg64
I01
ss(Vabi
p79
tp80
(dp81
Vabiname
p82
V1.slh.2
p83
ss(Vdescription
p84
g25
NVaptosid-686
p85
tp86
(dp87
Vhardware
p88
Vmodern PCs
p89
sVhardware-long
p90
VPCs with Intel Pentium Pro/II/III/4/4M/D/M, Xeon, Celeron, Core or Atom; AMD Geode LX/NX, Athlon (K7), Duron, Opteron, Sempron, Turion or Phenom; Transmeta Efficeon; VIA C3 "Nehemiah" or C7 processors
p91
ss(Vbuild
p92
g17
tp93
(dp94
Vimage-file
p95
Varch/x86/boot/bzImage
p96
sVdebug-info
p97
I00
ss(Vimage
p98
g17
tp99
(dp100
Vconfigs
p101
(lp102
sVinstall-stem
p103
Vvmlinuz
p104
sVsuggests
p105
Vcrda
p106
sVbootloaders
p107
(lp108
Vgrub-pc
p109
aVextlinux
p110
aVgrub-efi-amd64
p111
ass(Vbase
p112
g17
tp113
(dp114
Vfeaturesets
p115
(lp116
g30
ag58
asVkernel-arch
p117
Vx86
p118
ss(Vversion
p119
tp120
(dp121
Vabiname
p122
V4.4.0-1.slh.2
p123
sVsource
p124
V4.4-6
p125
sVupstream
p126
V4.4
p127
sVabiname_base
p128
V4.4.0
p129
ss(Vdescription
p130
tp131
(dp132
Vpart-long-up
p133
VThis kernel is not suitable for SMP (multi-processor,\u000amulti-core or hyper-threaded) systems.
p134
sVpart-long-xen
p135
VThis kernel also runs on a Xen hypervisor.\u000aIt supports both privileged (dom0) and unprivileged (domU) operation.
p136
ss(Vxen
p137
g17
g58
Vaptosid-amd64
p138
tp139
(dp140
Vflavours
p141
(lp142
Vaptosid-amd64
p143
ass(Vbuild
p144
g25
tp145
(dp146
Vimage-file
p147
Varch/x86/boot/bzImage
p148
sVdebug-info
p149
I00
ss(Vdescription
p150
g17
NVaptosid-amd64
p151
tp152
(dp153
Vhardware
p154
V64-bit PCs
p155
sVhardware-long
p156
VPCs with AMD64 or Intel 64 processors
p157
ss(Vdescription
p158
g17
g58
Vaptosid-amd64
p159
tp160
(dp161
Vparts
p162
(lp163
Vxen
p164
ass(Vrelations
p165
tp166
(dp167
Vinitramfs-tools
p168
Vinitramfs-tools (>= 0.118+c0.aptosid.1~)
p169
sVgcc-5
p170
Vgcc-5
p171
sVinitramfs-fallback
p172
Vlinux-initramfs-tool
p173
sstp174
Rp175
.