ccopy_reg
_reconstructor
p0
(cdebian_linux.config
ConfigCore
p1
c__builtin__
dict
p2
(dp3
(Vimage
p4
Vi386
p5
NVaptosid-686
p6
tp7
(dp8
Vconfigs
p9
(lp10
Vkernelarch-x86/config-arch-32
p11
asVrecommends
p12
Vlibc6-i686
p13
ss(Vabi
p14
tp15
(dp16
Vabiname
p17
V3.slh.3
p18
ss(Vdescription
p19
Vamd64
p20
NVaptosid-amd64
p21
tp22
(dp23
Vhardware
p24
V64-bit PCs
p25
sVhardware-long
p26
VPCs with AMD64 or Intel 64 processors
p27
ss(Vbase
p28
tp29
(dp30
Vcompiler
p31
Vgcc-5
p32
sVarches
p33
(lp34
Vamd64
p35
aVi386
p36
asVfeaturesets
p37
(lp38
Vnone
p39
ass(Vbase
p40
g20
Vnone
p41
tp42
(dp43
Vflavours
p44
(lp45
Vaptosid-amd64
p46
asVimplicit-flavour
p47
I01
ss(Vdescription
p48
g20
g41
Vaptosid-amd64
p49
tp50
(dp51
Vparts
p52
(lp53
Vxen
p54
ass(Vrelations
p55
tp56
(dp57
Vgcc-5
p58
Vgcc-5
p59
sVinitramfs-tools
p60
Vinitramfs-tools (>= 0.118+c0.aptosid.1~)
p61
sVinitramfs-fallback
p62
Vlinux-initramfs-tool
p63
ss(Vimage
p64
g5
tp65
(dp66
Vbootloaders
p67
(lp68
Vgrub-pc
p69
aVextlinux
p70
aVgrub-efi-ia32
p71
asVinstall-stem
p72
Vvmlinuz
p73
sVconfigs
p74
(lp75
sVsuggests
p76
Vcrda
p77
ss(Vdescription
p78
tp79
(dp80
Vpart-long-up
p81
VThis kernel is not suitable for SMP (multi-processor,\u000amulti-core or hyper-threaded) systems.
p82
sVpart-long-xen
p83
VThis kernel also runs on a Xen hypervisor.\u000aIt supports both privileged (dom0) and unprivileged (domU) operation.
p84
ss(Vbase
p85
g5
tp86
(dp87
Vkernel-arch
p88
Vx86
p89
sVfeaturesets
p90
(lp91
Vnone
p92
aVnone
p93
ass(Vbuild
p94
g20
tp95
(dp96
Vimage-file
p97
Varch/x86/boot/bzImage
p98
sVdebug-info
p99
I00
ss(Vbase
p100
g5
g93
tp101
(dp102
g44
(lp103
Vaptosid-686
p104
asg47
I01
ss(Vversion
p105
tp106
(dp107
Vabiname_base
p108
V4.3.0
p109
sVsource
p110
V4.3-13
p111
sVupstream
p112
V4.3
p113
sVabiname
p114
V4.3.0-3.slh.3
p115
ss(Vxen
p116
g20
g41
Vaptosid-amd64
p117
tp118
(dp119
Vflavours
p120
(lp121
Vaptosid-amd64
p122
ass(Vimage
p123
tp124
(dp125
Vtype
p126
Vplain
p127
sVinitramfs-generators
p128
(lp129
Vinitramfs-tools
p130
aVinitramfs-fallback
p131
ass(Vdescription
p132
g5
NVaptosid-686
p133
tp134
(dp135
Vhardware
p136
Vmodern PCs
p137
sVhardware-long
p138
VPCs with Intel Pentium Pro/II/III/4/4M/D/M, Xeon, Celeron, Core or Atom; AMD Geode LX/NX, Athlon (K7), Duron, Opteron, Sempron, Turion or Phenom; Transmeta Efficeon; VIA C3 "Nehemiah" or C7 processors
p139
ss(Vimage
p140
g20
NVaptosid-amd64
p141
tp142
(dp143
Vconfigs
p144
(lp145
Vkernelarch-x86/config-arch-64
p146
ass(Vbase
p147
g20
tp148
(dp149
Vkernel-arch
p150
Vx86
p151
sVfeaturesets
p152
(lp153
g92
ag41
ass(Vimage
p154
g20
tp155
(dp156
Vbootloaders
p157
(lp158
Vgrub-pc
p159
aVextlinux
p160
aVgrub-efi-amd64
p161
asVinstall-stem
p162
Vvmlinuz
p163
sVconfigs
p164
(lp165
sVsuggests
p166
Vcrda
p167
ss(Vbuild
p168
g5
tp169
(dp170
Vimage-file
p171
Varch/x86/boot/bzImage
p172
sVdebug-info
p173
I00
sstp174
Rp175
.