ccopy_reg
_reconstructor
p0
(cdebian_linux.config
ConfigCore
p1
c__builtin__
dict
p2
(dp3
(Vbase
p4
Vamd64
p5
tp6
(dp7
Vfeaturesets
p8
(lp9
Vnone
p10
aVnone
p11
asVkernel-arch
p12
Vx86
p13
ss(Vimage
p14
tp15
(dp16
Vinitramfs-generators
p17
(lp18
Vinitramfs-tools
p19
aVinitramfs-fallback
p20
asVtype
p21
Vplain
p22
ss(Vdescription
p23
tp24
(dp25
Vpart-long-up
p26
VThis kernel is not suitable for SMP (multi-processor,\u000amulti-core or hyper-threaded) systems.
p27
sVpart-long-xen
p28
VThis kernel also runs on a Xen hypervisor.\u000aIt supports both privileged (dom0) and unprivileged (domU) operation.
p29
ss(Vbase
p30
Vi386
p31
Vnone
p32
tp33
(dp34
Vimplicit-flavour
p35
I01
sVflavours
p36
(lp37
Vaptosid-686
p38
ass(Vimage
p39
g31
NVaptosid-686
p40
tp41
(dp42
Vrecommends
p43
Vlibc6-i686
p44
sVconfigs
p45
(lp46
Vkernelarch-x86/config-arch-32
p47
ass(Vbase
p48
g5
g11
tp49
(dp50
g35
I01
sg36
(lp51
Vaptosid-amd64
p52
ass(Vversion
p53
tp54
(dp55
Vupstream
p56
V4.6
p57
sVabiname
p58
V4.6.0-4.slh.3
p59
sVsource
p60
V4.6-14
p61
sVabiname_base
p62
V4.6.0
p63
ss(Vimage
p64
g5
tp65
(dp66
Vsuggests
p67
Vcrda
p68
sVinstall-stem
p69
Vvmlinuz
p70
sVbootloaders
p71
(lp72
Vgrub-pc
p73
aVextlinux
p74
aVgrub-efi-amd64
p75
asVconfigs
p76
(lp77
ss(Vdescription
p78
g5
g11
Vaptosid-amd64
p79
tp80
(dp81
Vparts
p82
(lp83
Vxen
p84
ass(Vdescription
p85
g5
NVaptosid-amd64
p86
tp87
(dp88
Vhardware-long
p89
VPCs with AMD64 or Intel 64 processors
p90
sVhardware
p91
V64-bit PCs
p92
ss(Vdescription
p93
g31
NVaptosid-686
p94
tp95
(dp96
Vhardware-long
p97
VPCs with Intel Pentium Pro/II/III/4/4M/D/M, Xeon, Celeron, Core or Atom; AMD Geode LX/NX, Athlon (K7), Duron, Opteron, Sempron, Turion or Phenom; Transmeta Efficeon; VIA C3 "Nehemiah" or C7 processors
p98
sVhardware
p99
Vmodern PCs
p100
ss(Vbase
p101
tp102
(dp103
Vfeaturesets
p104
(lp105
Vnone
p106
asVarches
p107
(lp108
Vamd64
p109
aVi386
p110
asVcompiler
p111
Vgcc-5
p112
ss(Vbuild
p113
g31
tp114
(dp115
Vimage-file
p116
Varch/x86/boot/bzImage
p117
sVdebug-info
p118
I00
ss(Vbase
p119
g31
tp120
(dp121
Vfeaturesets
p122
(lp123
g10
ag32
asVkernel-arch
p124
Vx86
p125
ss(Vimage
p126
g5
NVaptosid-amd64
p127
tp128
(dp129
Vconfigs
p130
(lp131
Vkernelarch-x86/config-arch-64
p132
ass(Vbuild
p133
g5
tp134
(dp135
Vimage-file
p136
Varch/x86/boot/bzImage
p137
sVdebug-info
p138
I00
ss(Vimage
p139
g31
tp140
(dp141
Vsuggests
p142
Vcrda
p143
sVinstall-stem
p144
Vvmlinuz
p145
sVbootloaders
p146
(lp147
Vgrub-pc
p148
aVextlinux
p149
aVgrub-efi-ia32
p150
asVconfigs
p151
(lp152
ss(Vrelations
p153
tp154
(dp155
Vinitramfs-fallback
p156
Vlinux-initramfs-tool
p157
sVinitramfs-tools
p158
Vinitramfs-tools (>= 0.121~)
p159
sVgcc-5
p160
Vgcc-5
p161
ss(Vabi
p162
tp163
(dp164
Vabiname
p165
V4.slh.3
p166
ss(Vxen
p167
g5
g11
Vaptosid-amd64
p168
tp169
(dp170
Vflavours
p171
(lp172
Vaptosid-amd64
p173
asstp174
Rp175
.