ccopy_reg
_reconstructor
p0
(cdebian_linux.config
ConfigCore
p1
c__builtin__
dict
p2
(dp3
(Vxen
p4
Vamd64
p5
Vnone
p6
Vaptosid-amd64
p7
tp8
(dp9
Vflavours
p10
(lp11
Vaptosid-amd64
p12
ass(Vbase
p13
Vi386
p14
Vnone
p15
tp16
(dp17
Vimplicit-flavour
p18
I01
sVflavours
p19
(lp20
Vaptosid-686
p21
ass(Vimage
p22
g14
NVaptosid-686
p23
tp24
(dp25
Vconfigs
p26
(lp27
Vkernelarch-x86/config-arch-32
p28
asVrecommends
p29
Vlibc6-i686
p30
ss(Vdescription
p31
g5
NVaptosid-amd64
p32
tp33
(dp34
Vhardware
p35
V64-bit PCs
p36
sVhardware-long
p37
VPCs with AMD64 or Intel 64 processors
p38
ss(Vbase
p39
tp40
(dp41
Varches
p42
(lp43
Vamd64
p44
aVi386
p45
asVfeaturesets
p46
(lp47
Vnone
p48
asVcompiler
p49
Vgcc-5
p50
ss(Vdescription
p51
tp52
(dp53
Vpart-long-up
p54
VThis kernel is not suitable for SMP (multi-processor,\u000amulti-core or hyper-threaded) systems.
p55
sVpart-long-xen
p56
VThis kernel also runs on a Xen hypervisor.\u000aIt supports both privileged (dom0) and unprivileged (domU) operation.
p57
ss(Vrelations
p58
tp59
(dp60
Vgcc-5
p61
Vgcc-5
p62
sVinitramfs-fallback
p63
Vlinux-initramfs-tool
p64
sVinitramfs-tools
p65
Vinitramfs-tools (>= 0.118+c0.aptosid.1~)
p66
ss(Vbuild
p67
g5
tp68
(dp69
Vdebug-info
p70
I00
sVimage-file
p71
Varch/x86/boot/bzImage
p72
ss(Vbuild
p73
g14
tp74
(dp75
Vdebug-info
p76
I00
sVimage-file
p77
Varch/x86/boot/bzImage
p78
ss(Vversion
p79
tp80
(dp81
Vabiname
p82
V4.3.0-1.slh.1
p83
sVsource
p84
V4.3-6
p85
sVabiname_base
p86
V4.3.0
p87
sVupstream
p88
V4.3
p89
ss(Vimage
p90
g5
tp91
(dp92
Vinstall-stem
p93
Vvmlinuz
p94
sVconfigs
p95
(lp96
sVsuggests
p97
Vcrda
p98
sVbootloaders
p99
(lp100
Vgrub-pc
p101
aVextlinux
p102
aVgrub-efi-amd64
p103
ass(Vbase
p104
g5
g6
tp105
(dp106
g18
I01
sg19
(lp107
Vaptosid-amd64
p108
ass(Vabi
p109
tp110
(dp111
Vabiname
p112
V1.slh.1
p113
ss(Vbase
p114
g5
tp115
(dp116
Vkernel-arch
p117
Vx86
p118
sVfeaturesets
p119
(lp120
Vnone
p121
ag6
ass(Vbase
p122
g14
tp123
(dp124
Vkernel-arch
p125
Vx86
p126
sVfeaturesets
p127
(lp128
g121
ag15
ass(Vimage
p129
g5
NVaptosid-amd64
p130
tp131
(dp132
Vconfigs
p133
(lp134
Vkernelarch-x86/config-arch-64
p135
ass(Vimage
p136
g14
tp137
(dp138
Vinstall-stem
p139
Vvmlinuz
p140
sVconfigs
p141
(lp142
sVsuggests
p143
Vcrda
p144
sVbootloaders
p145
(lp146
Vgrub-pc
p147
aVextlinux
p148
aVgrub-efi-ia32
p149
ass(Vimage
p150
tp151
(dp152
Vinitramfs-generators
p153
(lp154
Vinitramfs-tools
p155
aVinitramfs-fallback
p156
asVtype
p157
Vplain
p158
ss(Vdescription
p159
g5
g6
Vaptosid-amd64
p160
tp161
(dp162
Vparts
p163
(lp164
Vxen
p165
ass(Vdescription
p166
g14
NVaptosid-686
p167
tp168
(dp169
Vhardware
p170
Vmodern PCs
p171
sVhardware-long
p172
VPCs with Intel Pentium Pro/II/III/4/4M/D/M, Xeon, Celeron, Core or Atom; AMD Geode LX/NX, Athlon (K7), Duron, Opteron, Sempron, Turion or Phenom; Transmeta Efficeon; VIA C3 "Nehemiah" or C7 processors
p173
sstp174
Rp175
.