ccopy_reg
_reconstructor
p1
(cdebian_linux.config
ConfigCore
p2
c__builtin__
dict
p3
(dp4
(S'image'
S'amd64'
p5
tp6
(dp7
S'suggests'
p8
S'crda'
p9
sS'configs'
p10
(lp11
S'kernelarch-x86/config'
p12
asS'bootloaders'
p13
(lp14
S'grub-pc'
p15
aS'extlinux'
p16
aS'grub-efi-amd64'
p17
ass(S'base'
p18
g5
S'none'
p19
tp20
(dp21
S'implicit-flavour'
p22
I01
sS'flavours'
p23
(lp24
S'aptosid-amd64'
p25
ass(S'base'
g5
tp26
(dp27
S'kernel-arch'
p28
S'x86'
p29
sS'featuresets'
p30
(lp31
g19
ass(S'image'
p32
tp33
(dp34
S'initramfs-generators'
p35
(lp36
S'initramfs-tools'
p37
aS'initramfs-fallback'
p38
asS'type'
p39
S'plain'
p40
ss(S'description'
S'i386'
p41
NS'aptosid-686'
tp42
(dp43
S'hardware'
p44
S'modern PCs'
p45
sS'hardware-long'
p46
S'PCs with Intel Pentium Pro/II/III/4/4M/D/M, Xeon, Celeron, Core or Atom; AMD Geode LX/NX, Athlon (K7), Duron, Opteron, Sempron, Turion or Phenom; Transmeta Efficeon; VIA C3 "Nehemiah" or C7 processors'
p47
ss(S'description'
g5
NS'aptosid-amd64'
tp48
(dp49
S'hardware'
p50
S'64-bit PCs'
p51
sS'hardware-long'
p52
S'PCs with AMD64 or Intel 64 processors'
p53
ss(S'version'
p54
tp55
(dp56
S'abiname'
p57
S'3.3-2.slh.5'
p58
sS'source'
p59
V3.3-17
p60
ss(S'build'
g41
NS'aptosid-686'
tp61
(dp62
S'debug-info'
p63
I00
ss(S'base'
p64
g41
tp65
(dp66
S'kernel-arch'
p67
S'x86'
p68
sg30
(lp69
g19
ass(S'image'
g5
NS'aptosid-amd64'
tp70
(dp71
S'configs'
p72
(lp73
S'kernelarch-x86/config-arch-64'
p74
ass(S'abi'
p75
tp76
(dp77
S'abiname'
p78
S'2.slh.5'
p79
ss(S'image'
p80
g41
tp81
(dp82
S'suggests'
p83
S'crda'
p84
sS'configs'
p85
(lp86
S'kernelarch-x86/config'
p87
asS'bootloaders'
p88
(lp89
S'grub-pc'
p90
aS'extlinux'
p91
ass(g18
g41
g19
tp92
(dp93
g22
I01
sg23
(lp94
S'aptosid-686'
p95
ass(S'image'
g41
NS'aptosid-686'
tp96
(dp97
S'configs'
p98
(lp99
S'kernelarch-x86/config-arch-32'
p100
asS'recommends'
p101
S'libc6-i686'
p102
ss(S'base'
p103
tp104
(dp105
S'arches'
p106
(lp107
S'amd64'
p108
aS'i386'
p109
asS'featuresets'
p110
(lp111
S'none'
p112
asS'compiler'
p113
S'gcc-4.6'
p114
ss(S'relations'
p115
tp116
(dp117
S'initramfs-fallback'
p118
S'linux-initramfs-tool'
p119
sS'lilo'
p120
S'lilo (>= 22.8-8.2~)'
p121
sS'initramfs-tools'
p122
S'initramfs-tools (>= 0.99~)'
p123
sS'gcc-4.6'
p124
S'gcc-4.6'
p125
sS'elilo'
p126
S'elilo (>= 3.12-3.1~)'
p127
ss(S'build'
g5
NS'aptosid-amd64'
tp128
(dp129
S'debug-info'
p130
I00
sstRp131
.