ccopy_reg
_reconstructor
p0
(cdebian_linux.config
ConfigCore
p1
c__builtin__
dict
p2
(dp3
(Vimage
p4
Vi386
p5
tp6
(dp7
Vinstall-stem
p8
Vvmlinuz
p9
sVsuggests
p10
Vcrda
p11
sVbootloaders
p12
(lp13
Vgrub-pc
p14
aVextlinux
p15
aVgrub-efi-ia32
p16
asVbreaks
p17
Vxserver-xorg-input-vmmouse (<< 1:13.0.99)
p18
ss(Vimage
p19
Vamd64
p20
tp21
(dp22
Vinstall-stem
p23
Vvmlinuz
p24
sVsuggests
p25
Vcrda
p26
sVbootloaders
p27
(lp28
Vgrub-pc
p29
aVextlinux
p30
aVgrub-efi-amd64
p31
asVbreaks
p32
Vxserver-xorg-input-vmmouse (<< 1:13.0.99)
p33
ss(Vabi
p34
tp35
(dp36
Vabiname
p37
V1.slh.1
p38
ss(Vversion
p39
tp40
(dp41
Vabiname
p42
V4.10.0-1.slh.1
p43
sVsource
p44
V4.10-4
p45
sVupstream
p46
V4.10
p47
sVabiname_base
p48
V4.10.0
p49
ss(Vdescription
p50
g20
NVaptosid-amd64
p51
tp52
(dp53
Vhardware
p54
V64-bit PCs
p55
sVhardware-long
p56
VPCs with AMD64 or Intel 64 processors
p57
ss(Vbase
p58
g5
Vnone
p59
tp60
(dp61
Vflavours
p62
(lp63
Vaptosid-686
p64
asVimplicit-flavour
p65
I01
ss(Vbase
p66
g5
tp67
(dp68
Vkernel-arch
p69
Vx86
p70
sVfeaturesets
p71
(lp72
Vnone
p73
ag59
ass(Vimage
p74
tp75
(dp76
Vinitramfs-generators
p77
(lp78
Vinitramfs-tools
p79
aVinitramfs-fallback
p80
ass(Vrelations
p81
tp82
(dp83
Vinitramfs-fallback
p84
Vlinux-initramfs-tool
p85
sVgcc-6
p86
Vgcc-6
p87
sVinitramfs-tools
p88
Vinitramfs-tools (>= 0.121~)
p89
ss(Vbuild
p90
g20
tp91
(dp92
Vdebug-info
p93
I00
sVimage-file
p94
Varch/x86/boot/bzImage
p95
ss(Vdescription
p96
g5
NVaptosid-686
p97
tp98
(dp99
Vhardware
p100
Vmodern PCs
p101
sVhardware-long
p102
VPCs with Intel Pentium Pro/II/III/4/4M/D/M, Xeon, Celeron, Core or Atom; AMD Geode LX/NX, Athlon (K7), Duron, Opteron, Sempron, Turion or Phenom; Transmeta Efficeon; VIA C3 "Nehemiah" or C7 processors
p103
ss(Vbase
p104
g20
Vnone
p105
tp106
(dp107
g62
(lp108
Vaptosid-amd64
p109
asg65
I01
ss(Vbuild
p110
g5
tp111
(dp112
Vdebug-info
p113
I00
sVimage-file
p114
Varch/x86/boot/bzImage
p115
ss(Vdescription
p116
tp117
(dp118
Vpart-long-xen
p119
VThis kernel also runs on a Xen hypervisor.\u000aIt supports both privileged (dom0) and unprivileged (domU) operation.
p120
sVpart-long-up
p121
VThis kernel is not suitable for SMP (multi-processor,\u000amulti-core or hyper-threaded) systems.
p122
ss(Vdescription
p123
g20
g105
Vaptosid-amd64
p124
tp125
(dp126
Vparts
p127
(lp128
Vxen
p129
ass(Vbase
p130
tp131
(dp132
Varches
p133
(lp134
Vamd64
p135
aVi386
p136
asVcompiler
p137
Vgcc-6
p138
sVfeaturesets
p139
(lp140
Vnone
p141
ass(Vbase
p142
g20
tp143
(dp144
Vkernel-arch
p145
Vx86
p146
sVfeaturesets
p147
(lp148
g73
ag105
asstp149
Rp150
.