ccopy_reg
_reconstructor
p0
(cdebian_linux.config
ConfigCore
p1
c__builtin__
dict
p2
(dp3
(Vimage
p4
Vamd64
p5
tp6
(dp7
Vinstall-stem
p8
Vvmlinuz
p9
sVsuggests
p10
Vcrda
p11
sVconfigs
p12
(lp13
sVbootloaders
p14
(lp15
Vgrub-pc
p16
aVextlinux
p17
aVgrub-efi-amd64
p18
ass(Vbase
p19
tp20
(dp21
Vcompiler
p22
Vgcc-5
p23
sVarches
p24
(lp25
Vamd64
p26
aVi386
p27
asVfeaturesets
p28
(lp29
Vnone
p30
ass(Vdescription
p31
g5
NVaptosid-amd64
p32
tp33
(dp34
Vhardware
p35
V64-bit PCs
p36
sVhardware-long
p37
VPCs with AMD64 or Intel 64 processors
p38
ss(Vversion
p39
tp40
(dp41
Vabiname_base
p42
V4.4.0
p43
sVsource
p44
V4.4-14
p45
sVupstream
p46
V4.4
p47
sVabiname
p48
V4.4.0-3.slh.2
p49
ss(Vbase
p50
g5
Vnone
p51
tp52
(dp53
Vimplicit-flavour
p54
I01
sVflavours
p55
(lp56
Vaptosid-amd64
p57
ass(Vimage
p58
Vi386
p59
tp60
(dp61
Vinstall-stem
p62
Vvmlinuz
p63
sVsuggests
p64
Vcrda
p65
sVconfigs
p66
(lp67
sVbootloaders
p68
(lp69
Vgrub-pc
p70
aVextlinux
p71
aVgrub-efi-ia32
p72
ass(Vimage
p73
g5
NVaptosid-amd64
p74
tp75
(dp76
Vconfigs
p77
(lp78
Vkernelarch-x86/config-arch-64
p79
ass(Vbuild
p80
g59
tp81
(dp82
Vimage-file
p83
Varch/x86/boot/bzImage
p84
sVdebug-info
p85
I00
ss(Vimage
p86
tp87
(dp88
Vtype
p89
Vplain
p90
sVinitramfs-generators
p91
(lp92
Vinitramfs-tools
p93
aVinitramfs-fallback
p94
ass(Vrelations
p95
tp96
(dp97
Vinitramfs-fallback
p98
Vlinux-initramfs-tool
p99
sVgcc-5
p100
Vgcc-5
p101
sVinitramfs-tools
p102
Vinitramfs-tools (>= 0.118+c0.aptosid.1~)
p103
ss(Vdescription
p104
g5
g51
Vaptosid-amd64
p105
tp106
(dp107
Vparts
p108
(lp109
Vxen
p110
ass(Vxen
p111
g5
g51
Vaptosid-amd64
p112
tp113
(dp114
Vflavours
p115
(lp116
Vaptosid-amd64
p117
ass(Vdescription
p118
tp119
(dp120
Vpart-long-up
p121
VThis kernel is not suitable for SMP (multi-processor,\u000amulti-core or hyper-threaded) systems.
p122
sVpart-long-xen
p123
VThis kernel also runs on a Xen hypervisor.\u000aIt supports both privileged (dom0) and unprivileged (domU) operation.
p124
ss(Vdescription
p125
g59
NVaptosid-686
p126
tp127
(dp128
Vhardware
p129
Vmodern PCs
p130
sVhardware-long
p131
VPCs with Intel Pentium Pro/II/III/4/4M/D/M, Xeon, Celeron, Core or Atom; AMD Geode LX/NX, Athlon (K7), Duron, Opteron, Sempron, Turion or Phenom; Transmeta Efficeon; VIA C3 "Nehemiah" or C7 processors
p132
ss(Vbuild
p133
g5
tp134
(dp135
Vimage-file
p136
Varch/x86/boot/bzImage
p137
sVdebug-info
p138
I00
ss(Vimage
p139
g59
NVaptosid-686
p140
tp141
(dp142
Vconfigs
p143
(lp144
Vkernelarch-x86/config-arch-32
p145
asVrecommends
p146
Vlibc6-i686
p147
ss(Vbase
p148
g59
Vnone
p149
tp150
(dp151
g54
I01
sg55
(lp152
Vaptosid-686
p153
ass(Vbase
p154
g5
tp155
(dp156
Vkernel-arch
p157
Vx86
p158
sVfeaturesets
p159
(lp160
Vnone
p161
ag51
ass(Vbase
p162
g59
tp163
(dp164
Vkernel-arch
p165
Vx86
p166
sVfeaturesets
p167
(lp168
g161
ag149
ass(Vabi
p169
tp170
(dp171
Vabiname
p172
V3.slh.2
p173
sstp174
Rp175
.