ccopy_reg
_reconstructor
p0
(cdebian_linux.config
ConfigCore
p1
c__builtin__
dict
p2
(dp3
(Vabi
p4
tp5
(dp6
Vabiname
p7
V4.slh.2
p8
ss(Vbuild
p9
Vamd64
p10
tp11
(dp12
Vimage-file
p13
Varch/x86/boot/bzImage
p14
sVdebug-info
p15
I00
ss(Vdescription
p16
g10
Vnone
p17
Vaptosid-amd64
p18
tp19
(dp20
Vparts
p21
(lp22
Vxen
p23
ass(Vimage
p24
Vi386
p25
tp26
(dp27
Vinstall-stem
p28
Vvmlinuz
p29
sVbootloaders
p30
(lp31
Vgrub-pc
p32
aVextlinux
p33
aVgrub-efi-ia32
p34
asVsuggests
p35
Vcrda
p36
sVbreaks
p37
Vxserver-xorg-input-vmmouse (<< 1:13.0.99)
p38
ss(Vbuild
p39
g25
tp40
(dp41
Vimage-file
p42
Varch/x86/boot/bzImage
p43
sVdebug-info
p44
I00
ss(Vimage
p45
tp46
(dp47
Vinitramfs-generators
p48
(lp49
Vinitramfs-tools
p50
aVinitramfs-fallback
p51
ass(Vimage
p52
g10
tp53
(dp54
Vinstall-stem
p55
Vvmlinuz
p56
sVbootloaders
p57
(lp58
Vgrub-pc
p59
aVextlinux
p60
aVgrub-efi-amd64
p61
asVsuggests
p62
Vcrda
p63
sVbreaks
p64
Vxserver-xorg-input-vmmouse (<< 1:13.0.99)
p65
ss(Vdescription
p66
g10
NVaptosid-amd64
p67
tp68
(dp69
Vhardware-long
p70
VPCs with AMD64 or Intel 64 processors
p71
sVhardware
p72
V64-bit PCs
p73
ss(Vbase
p74
g10
tp75
(dp76
Vfeaturesets
p77
(lp78
Vnone
p79
ag17
asVkernel-arch
p80
Vx86
p81
ss(Vdescription
p82
g25
NVaptosid-686
p83
tp84
(dp85
Vhardware-long
p86
VPCs with Intel Pentium Pro/II/III/4/4M/D/M, Xeon, Celeron, Core or Atom; AMD Geode LX/NX, Athlon (K7), Duron, Opteron, Sempron, Turion or Phenom; Transmeta Efficeon; VIA C3 "Nehemiah" or C7 processors
p87
sVhardware
p88
Vmodern PCs
p89
ss(Vbase
p90
g25
tp91
(dp92
Vfeaturesets
p93
(lp94
g79
aVnone
p95
asVkernel-arch
p96
Vx86
p97
ss(Vrelations
p98
tp99
(dp100
Vgcc-6
p101
Vgcc-6
p102
sVinitramfs-fallback
p103
Vlinux-initramfs-tool
p104
sVinitramfs-tools
p105
Vinitramfs-tools (>= 0.121~)
p106
ss(Vversion
p107
tp108
(dp109
Vsource
p110
V4.9-9
p111
sVupstream
p112
V4.9
p113
sVabiname_base
p114
V4.9.0
p115
sVabiname
p116
V4.9.0-4.slh.2
p117
ss(Vdescription
p118
tp119
(dp120
Vpart-long-xen
p121
VThis kernel also runs on a Xen hypervisor.\u000aIt supports both privileged (dom0) and unprivileged (domU) operation.
p122
sVpart-long-up
p123
VThis kernel is not suitable for SMP (multi-processor,\u000amulti-core or hyper-threaded) systems.
p124
ss(Vbase
p125
g25
g95
tp126
(dp127
Vimplicit-flavour
p128
I01
sVflavours
p129
(lp130
Vaptosid-686
p131
ass(Vbase
p132
tp133
(dp134
Vcompiler
p135
Vgcc-6
p136
sVarches
p137
(lp138
Vamd64
p139
aVi386
p140
asVfeaturesets
p141
(lp142
Vnone
p143
ass(Vbase
p144
g10
g17
tp145
(dp146
g128
I01
sg129
(lp147
Vaptosid-amd64
p148
asstp149
Rp150
.