ccopy_reg
_reconstructor
p0
(cdebian_linux.config
ConfigCore
p1
c__builtin__
dict
p2
(dp3
(Vbase
p4
Vi386
p5
tp6
(dp7
Vfeaturesets
p8
(lp9
Vnone
p10
aVnone
p11
asVkernel-arch
p12
Vx86
p13
ss(Vabi
p14
tp15
(dp16
Vabiname
p17
V0.slh.2
p18
ss(Vdescription
p19
tp20
(dp21
Vpart-long-up
p22
VThis kernel is not suitable for SMP (multi-processor,\u000amulti-core or hyper-threaded) systems.
p23
sVpart-long-xen
p24
VThis kernel also runs on a Xen hypervisor.\u000aIt supports both privileged (dom0) and unprivileged (domU) operation.
p25
ss(Vbase
p26
g5
g11
tp27
(dp28
Vimplicit-flavour
p29
I01
sVflavours
p30
(lp31
Vaptosid-686
p32
ass(Vdescription
p33
g5
NVaptosid-686
p34
tp35
(dp36
Vhardware-long
p37
VPCs with Intel Pentium Pro/II/III/4/4M/D/M, Xeon, Celeron, Core or Atom; AMD Geode LX/NX, Athlon (K7), Duron, Opteron, Sempron, Turion or Phenom; Transmeta Efficeon; VIA C3 "Nehemiah" or C7 processors
p38
sVhardware
p39
Vmodern PCs
p40
ss(Vversion
p41
tp42
(dp43
Vsource
p44
V4.4-3
p45
sVabiname
p46
V4.4.0-0.slh.2
p47
sVupstream
p48
V4.4
p49
sVabiname_base
p50
V4.4.0
p51
ss(Vimage
p52
Vamd64
p53
NVaptosid-amd64
p54
tp55
(dp56
Vconfigs
p57
(lp58
Vkernelarch-x86/config-arch-64
p59
ass(Vbase
p60
tp61
(dp62
Vfeaturesets
p63
(lp64
Vnone
p65
asVcompiler
p66
Vgcc-5
p67
sVarches
p68
(lp69
Vamd64
p70
aVi386
p71
ass(Vimage
p72
tp73
(dp74
Vtype
p75
Vplain
p76
sVinitramfs-generators
p77
(lp78
Vinitramfs-tools
p79
aVinitramfs-fallback
p80
ass(Vimage
p81
g5
tp82
(dp83
Vsuggests
p84
Vcrda
p85
sVinstall-stem
p86
Vvmlinuz
p87
sVconfigs
p88
(lp89
sVbootloaders
p90
(lp91
Vgrub-pc
p92
aVextlinux
p93
aVgrub-efi-ia32
p94
ass(Vdescription
p95
g53
Vnone
p96
Vaptosid-amd64
p97
tp98
(dp99
Vparts
p100
(lp101
Vxen
p102
ass(Vrelations
p103
tp104
(dp105
Vinitramfs-fallback
p106
Vlinux-initramfs-tool
p107
sVinitramfs-tools
p108
Vinitramfs-tools (>= 0.118+c0.aptosid.1~)
p109
sVgcc-5
p110
Vgcc-5
p111
ss(Vimage
p112
g5
NVaptosid-686
p113
tp114
(dp115
Vrecommends
p116
Vlibc6-i686
p117
sVconfigs
p118
(lp119
Vkernelarch-x86/config-arch-32
p120
ass(Vbuild
p121
g5
tp122
(dp123
Vdebug-info
p124
I00
sVimage-file
p125
Varch/x86/boot/bzImage
p126
ss(Vxen
p127
g53
g96
Vaptosid-amd64
p128
tp129
(dp130
Vflavours
p131
(lp132
Vaptosid-amd64
p133
ass(Vimage
p134
g53
tp135
(dp136
Vsuggests
p137
Vcrda
p138
sVinstall-stem
p139
Vvmlinuz
p140
sVconfigs
p141
(lp142
sVbootloaders
p143
(lp144
Vgrub-pc
p145
aVextlinux
p146
aVgrub-efi-amd64
p147
ass(Vbuild
p148
g53
tp149
(dp150
Vdebug-info
p151
I00
sVimage-file
p152
Varch/x86/boot/bzImage
p153
ss(Vdescription
p154
g53
NVaptosid-amd64
p155
tp156
(dp157
Vhardware-long
p158
VPCs with AMD64 or Intel 64 processors
p159
sVhardware
p160
V64-bit PCs
p161
ss(Vbase
p162
g53
g96
tp163
(dp164
g29
I01
sg30
(lp165
Vaptosid-amd64
p166
ass(Vbase
p167
g53
tp168
(dp169
Vfeaturesets
p170
(lp171
g10
ag96
asVkernel-arch
p172
Vx86
p173
sstp174
Rp175
.