ccopy_reg
_reconstructor
p0
(cdebian_linux.config
ConfigCore
p1
c__builtin__
dict
p2
(dp3
(Vdescription
p4
Vamd64
p5
Vnone
p6
Vaptosid-amd64
p7
tp8
(dp9
Vparts
p10
(lp11
Vxen
p12
ass(Vdescription
p13
tp14
(dp15
Vpart-long-xen
p16
VThis kernel also runs on a Xen hypervisor.\u000aIt supports both privileged (dom0) and unprivileged (domU) operation.
p17
sVpart-long-up
p18
VThis kernel is not suitable for SMP (multi-processor,\u000amulti-core or hyper-threaded) systems.
p19
ss(Vabi
p20
tp21
(dp22
Vabiname
p23
V3.slh.1
p24
ss(Vbase
p25
g5
g6
tp26
(dp27
Vflavours
p28
(lp29
Vaptosid-amd64
p30
asVimplicit-flavour
p31
I01
ss(Vbase
p32
g5
tp33
(dp34
Vkernel-arch
p35
Vx86
p36
sVfeaturesets
p37
(lp38
Vnone
p39
ag6
ass(Vbase
p40
Vi386
p41
tp42
(dp43
Vkernel-arch
p44
Vx86
p45
sVfeaturesets
p46
(lp47
g39
aVnone
p48
ass(Vrelations
p49
tp50
(dp51
Vgcc-6
p52
Vgcc-6
p53
sVinitramfs-fallback
p54
Vlinux-initramfs-tool
p55
sVinitramfs-tools
p56
Vinitramfs-tools (>= 0.121~)
p57
ss(Vbuild
p58
g41
tp59
(dp60
Vdebug-info
p61
I00
sVimage-file
p62
Varch/x86/boot/bzImage
p63
ss(Vdescription
p64
g5
NVaptosid-amd64
p65
tp66
(dp67
Vhardware-long
p68
VPCs with AMD64 or Intel 64 processors
p69
sVhardware
p70
V64-bit PCs
p71
ss(Vimage
p72
g41
tp73
(dp74
Vbootloaders
p75
(lp76
Vgrub-pc
p77
aVextlinux
p78
aVgrub-efi-ia32
p79
asVbreaks
p80
Vxserver-xorg-input-vmmouse (<< 1:13.0.99)
p81
sVsuggests
p82
Vcrda
p83
sVinstall-stem
p84
Vvmlinuz
p85
ss(Vbase
p86
g41
g48
tp87
(dp88
g28
(lp89
Vaptosid-686
p90
asg31
I01
ss(Vbase
p91
tp92
(dp93
Varches
p94
(lp95
Vamd64
p96
aVi386
p97
asVfeaturesets
p98
(lp99
Vnone
p100
asVcompiler
p101
Vgcc-6
p102
ss(Vversion
p103
tp104
(dp105
Vupstream
p106
V4.12
p107
sVabiname
p108
V4.12.0-3.slh.1
p109
sVsource
p110
V4.12-6
p111
sVabiname_base
p112
V4.12.0
p113
ss(Vimage
p114
tp115
(dp116
Vinitramfs-generators
p117
(lp118
Vinitramfs-tools
p119
aVinitramfs-fallback
p120
ass(Vbuild
p121
g5
tp122
(dp123
Vdebug-info
p124
I00
sVimage-file
p125
Varch/x86/boot/bzImage
p126
ss(Vdescription
p127
g41
NVaptosid-686
p128
tp129
(dp130
Vhardware-long
p131
VPCs with Intel Pentium Pro/II/III/4/4M/D/M, Xeon, Celeron, Core or Atom; AMD Geode LX/NX, Athlon (K7), Duron, Opteron, Sempron, Turion or Phenom; Transmeta Efficeon; VIA C3 "Nehemiah" or C7 processors
p132
sVhardware
p133
Vmodern PCs
p134
ss(Vimage
p135
g5
tp136
(dp137
Vbootloaders
p138
(lp139
Vgrub-pc
p140
aVextlinux
p141
aVgrub-efi-amd64
p142
asVbreaks
p143
Vxserver-xorg-input-vmmouse (<< 1:13.0.99)
p144
sVsuggests
p145
Vcrda
p146
sVinstall-stem
p147
Vvmlinuz
p148
sstp149
Rp150
.