ccopy_reg
_reconstructor
p0
(cdebian_linux.config
ConfigCore
p1
c__builtin__
dict
p2
(dp3
(Vdescription
p4
Vi386
p5
NVaptosid-686
p6
tp7
(dp8
Vhardware
p9
Vmodern PCs
p10
sVhardware-long
p11
VPCs with Intel Pentium Pro/II/III/4/4M/D/M, Xeon, Celeron, Core or Atom; AMD Geode LX/NX, Athlon (K7), Duron, Opteron, Sempron, Turion or Phenom; Transmeta Efficeon; VIA C3 "Nehemiah" or C7 processors
p12
ss(Vimage
p13
tp14
(dp15
Vinitramfs-generators
p16
(lp17
Vinitramfs-tools
p18
aVinitramfs-fallback
p19
ass(Vbase
p20
Vamd64
p21
Vnone
p22
tp23
(dp24
Vimplicit-flavour
p25
I01
sVflavours
p26
(lp27
Vaptosid-amd64
p28
ass(Vrelations
p29
tp30
(dp31
Vinitramfs-fallback
p32
Vlinux-initramfs-tool
p33
sVinitramfs-tools
p34
Vinitramfs-tools (>= 0.121~)
p35
sVgcc-6
p36
Vgcc-6
p37
ss(Vbuild
p38
g5
tp39
(dp40
Vimage-file
p41
Varch/x86/boot/bzImage
p42
sVdebug-info
p43
I00
ss(Vabi
p44
tp45
(dp46
Vabiname
p47
V3.slh.2
p48
ss(Vbase
p49
tp50
(dp51
Varches
p52
(lp53
Vamd64
p54
aVi386
p55
asVcompiler
p56
Vgcc-6
p57
sVfeaturesets
p58
(lp59
Vnone
p60
ass(Vdescription
p61
g21
NVaptosid-amd64
p62
tp63
(dp64
Vhardware
p65
V64-bit PCs
p66
sVhardware-long
p67
VPCs with AMD64 or Intel 64 processors
p68
ss(Vimage
p69
g21
tp70
(dp71
Vinstall-stem
p72
Vvmlinuz
p73
sVbreaks
p74
Vxserver-xorg-input-vmmouse (<< 1:13.0.99)
p75
sVsuggests
p76
Vcrda
p77
sVbootloaders
p78
(lp79
Vgrub-pc
p80
aVextlinux
p81
aVgrub-efi-amd64
p82
ass(Vbase
p83
g5
tp84
(dp85
Vkernel-arch
p86
Vx86
p87
sVfeaturesets
p88
(lp89
Vnone
p90
aVnone
p91
ass(Vbuild
p92
g21
tp93
(dp94
Vimage-file
p95
Varch/x86/boot/bzImage
p96
sVdebug-info
p97
I00
ss(Vbase
p98
g21
tp99
(dp100
Vkernel-arch
p101
Vx86
p102
sVfeaturesets
p103
(lp104
g90
ag22
ass(Vdescription
p105
g21
g22
Vaptosid-amd64
p106
tp107
(dp108
Vparts
p109
(lp110
Vxen
p111
ass(Vversion
p112
tp113
(dp114
Vupstream
p115
V4.12
p116
sVabiname
p117
V4.12.0-3.slh.2
p118
sVsource
p119
V4.12-7
p120
sVabiname_base
p121
V4.12.0
p122
ss(Vdescription
p123
tp124
(dp125
Vpart-long-up
p126
VThis kernel is not suitable for SMP (multi-processor,\u000amulti-core or hyper-threaded) systems.
p127
sVpart-long-xen
p128
VThis kernel also runs on a Xen hypervisor.\u000aIt supports both privileged (dom0) and unprivileged (domU) operation.
p129
ss(Vbase
p130
g5
g91
tp131
(dp132
g25
I01
sg26
(lp133
Vaptosid-686
p134
ass(Vimage
p135
g5
tp136
(dp137
Vinstall-stem
p138
Vvmlinuz
p139
sVbreaks
p140
Vxserver-xorg-input-vmmouse (<< 1:13.0.99)
p141
sVsuggests
p142
Vcrda
p143
sVbootloaders
p144
(lp145
Vgrub-pc
p146
aVextlinux
p147
aVgrub-efi-ia32
p148
asstp149
Rp150
.