ccopy_reg
_reconstructor
p0
(cdebian_linux.config
ConfigCore
p1
c__builtin__
dict
p2
(dp3
(Vdescription
p4
Vamd64
p5
NVaptosid-amd64
p6
tp7
(dp8
Vhardware-long
p9
VPCs with AMD64 or Intel 64 processors
p10
sVhardware
p11
V64-bit PCs
p12
ss(Vdescription
p13
Vi386
p14
NVaptosid-686
p15
tp16
(dp17
Vhardware-long
p18
VPCs with Intel Pentium Pro/II/III/4/4M/D/M, Xeon, Celeron, Core or Atom; AMD Geode LX/NX, Athlon (K7), Duron, Opteron, Sempron, Turion or Phenom; Transmeta Efficeon; VIA C3 "Nehemiah" or C7 processors
p19
sVhardware
p20
Vmodern PCs
p21
ss(Vxen
p22
g5
Vnone
p23
Vaptosid-amd64
p24
tp25
(dp26
Vflavours
p27
(lp28
Vaptosid-amd64
p29
ass(Vbase
p30
g5
tp31
(dp32
Vkernel-arch
p33
Vx86
p34
sVfeaturesets
p35
(lp36
Vnone
p37
ag23
ass(Vbase
p38
g14
tp39
(dp40
Vkernel-arch
p41
Vx86
p42
sVfeaturesets
p43
(lp44
g37
aVnone
p45
ass(Vbase
p46
g14
g45
tp47
(dp48
Vimplicit-flavour
p49
I01
sVflavours
p50
(lp51
Vaptosid-686
p52
ass(Vbase
p53
tp54
(dp55
Varches
p56
(lp57
Vamd64
p58
aVi386
p59
asVcompiler
p60
Vgcc-6
p61
sVfeaturesets
p62
(lp63
Vnone
p64
ass(Vdescription
p65
g5
g23
Vaptosid-amd64
p66
tp67
(dp68
Vparts
p69
(lp70
Vxen
p71
ass(Vbuild
p72
g14
tp73
(dp74
Vdebug-info
p75
I00
sVimage-file
p76
Varch/x86/boot/bzImage
p77
ss(Vimage
p78
tp79
(dp80
Vinitramfs-generators
p81
(lp82
Vinitramfs-tools
p83
aVinitramfs-fallback
p84
ass(Vimage
p85
g5
tp86
(dp87
Vbreaks
p88
Vxserver-xorg-input-vmmouse (<< 1:13.0.99)
p89
sVbootloaders
p90
(lp91
Vgrub-pc
p92
aVextlinux
p93
aVgrub-efi-amd64
p94
asVinstall-stem
p95
Vvmlinuz
p96
sVsuggests
p97
Vcrda
p98
ss(Vabi
p99
tp100
(dp101
Vabiname
p102
V1.slh.1
p103
ss(Vimage
p104
g14
tp105
(dp106
Vbreaks
p107
Vxserver-xorg-input-vmmouse (<< 1:13.0.99)
p108
sVbootloaders
p109
(lp110
Vgrub-pc
p111
aVextlinux
p112
aVgrub-efi-ia32
p113
asVinstall-stem
p114
Vvmlinuz
p115
sVsuggests
p116
Vcrda
p117
ss(Vrelations
p118
tp119
(dp120
Vinitramfs-fallback
p121
Vlinux-initramfs-tool
p122
sVgcc-6
p123
Vgcc-6
p124
sVinitramfs-tools
p125
Vinitramfs-tools (>= 0.121~)
p126
ss(Vbase
p127
g5
g23
tp128
(dp129
g49
I01
sg50
(lp130
Vaptosid-amd64
p131
ass(Vversion
p132
tp133
(dp134
Vupstream
p135
V4.8
p136
sVabiname_base
p137
V4.8.0
p138
sVsource
p139
V4.8-3
p140
sVabiname
p141
V4.8.0-1.slh.1
p142
ss(Vdescription
p143
tp144
(dp145
Vpart-long-xen
p146
VThis kernel also runs on a Xen hypervisor.\u000aIt supports both privileged (dom0) and unprivileged (domU) operation.
p147
sVpart-long-up
p148
VThis kernel is not suitable for SMP (multi-processor,\u000amulti-core or hyper-threaded) systems.
p149
ss(Vbuild
p150
g5
tp151
(dp152
Vdebug-info
p153
I00
sVimage-file
p154
Varch/x86/boot/bzImage
p155
sstp156
Rp157
.