ccopy_reg
_reconstructor
p0
(cdebian_linux.config
ConfigCore
p1
c__builtin__
dict
p2
(dp3
(Vxen
p4
Vamd64
p5
Vnone
p6
Vaptosid-amd64
p7
tp8
(dp9
Vflavours
p10
(lp11
Vaptosid-amd64
p12
ass(Vdescription
p13
g5
NVaptosid-amd64
p14
tp15
(dp16
Vhardware
p17
V64-bit PCs
p18
sVhardware-long
p19
VPCs with AMD64 or Intel 64 processors
p20
ss(Vbase
p21
g5
tp22
(dp23
Vfeaturesets
p24
(lp25
Vnone
p26
ag6
asVkernel-arch
p27
Vx86
p28
ss(Vdescription
p29
g5
g6
Vaptosid-amd64
p30
tp31
(dp32
Vparts
p33
(lp34
Vxen
p35
ass(Vbase
p36
tp37
(dp38
Varches
p39
(lp40
Vamd64
p41
aVi386
p42
asVfeaturesets
p43
(lp44
Vnone
p45
asVcompiler
p46
Vgcc-6
p47
ss(Vbase
p48
Vi386
p49
Vnone
p50
tp51
(dp52
Vflavours
p53
(lp54
Vaptosid-686
p55
asVimplicit-flavour
p56
I01
ss(Vbase
p57
g49
tp58
(dp59
Vfeaturesets
p60
(lp61
g26
ag50
asVkernel-arch
p62
Vx86
p63
ss(Vimage
p64
tp65
(dp66
Vinitramfs-generators
p67
(lp68
Vinitramfs-tools
p69
aVinitramfs-fallback
p70
ass(Vbase
p71
g5
g6
tp72
(dp73
g53
(lp74
Vaptosid-amd64
p75
asg56
I01
ss(Vabi
p76
tp77
(dp78
Vabiname
p79
V0.slh.4
p80
ss(Vbuild
p81
g5
tp82
(dp83
Vimage-file
p84
Varch/x86/boot/bzImage
p85
sVdebug-info
p86
I00
ss(Vrelations
p87
tp88
(dp89
Vgcc-6
p90
Vgcc-6
p91
sVinitramfs-fallback
p92
Vlinux-initramfs-tool
p93
sVinitramfs-tools
p94
Vinitramfs-tools (>= 0.121~)
p95
ss(Vimage
p96
g49
tp97
(dp98
Vbreaks
p99
Vxserver-xorg-input-vmmouse (<< 1:13.0.99)
p100
sVbootloaders
p101
(lp102
Vgrub-pc
p103
aVextlinux
p104
aVgrub-efi-ia32
p105
asVsuggests
p106
Vcrda
p107
sVinstall-stem
p108
Vvmlinuz
p109
ss(Vimage
p110
g5
tp111
(dp112
Vbreaks
p113
Vxserver-xorg-input-vmmouse (<< 1:13.0.99)
p114
sVbootloaders
p115
(lp116
Vgrub-pc
p117
aVextlinux
p118
aVgrub-efi-amd64
p119
asVsuggests
p120
Vcrda
p121
sVinstall-stem
p122
Vvmlinuz
p123
ss(Vdescription
p124
g49
NVaptosid-686
p125
tp126
(dp127
Vhardware
p128
Vmodern PCs
p129
sVhardware-long
p130
VPCs with Intel Pentium Pro/II/III/4/4M/D/M, Xeon, Celeron, Core or Atom; AMD Geode LX/NX, Athlon (K7), Duron, Opteron, Sempron, Turion or Phenom; Transmeta Efficeon; VIA C3 "Nehemiah" or C7 processors
p131
ss(Vdescription
p132
tp133
(dp134
Vpart-long-xen
p135
VThis kernel also runs on a Xen hypervisor.\u000aIt supports both privileged (dom0) and unprivileged (domU) operation.
p136
sVpart-long-up
p137
VThis kernel is not suitable for SMP (multi-processor,\u000amulti-core or hyper-threaded) systems.
p138
ss(Vbuild
p139
g49
tp140
(dp141
Vimage-file
p142
Varch/x86/boot/bzImage
p143
sVdebug-info
p144
I00
ss(Vversion
p145
tp146
(dp147
Vupstream
p148
V4.7
p149
sVabiname
p150
V4.7.0-0.slh.4
p151
sVsource
p152
V4.7-7
p153
sVabiname_base
p154
V4.7.0
p155
sstp156
Rp157
.