ccopy_reg
_reconstructor
p0
(cdebian_linux.config
ConfigCore
p1
c__builtin__
dict
p2
(dp3
(Vdescription
p4
tp5
(dp6
Vpart-long-up
p7
VThis kernel is not suitable for SMP (multi-processor,\u000amulti-core or hyper-threaded) systems.
p8
sVpart-long-xen
p9
VThis kernel also runs on a Xen hypervisor.\u000aIt supports both privileged (dom0) and unprivileged (domU) operation.
p10
ss(Vdescription
p11
Vi386
p12
NVaptosid-686
p13
tp14
(dp15
Vhardware-long
p16
VPCs with Intel Pentium Pro/II/III/4/4M/D/M, Xeon, Celeron, Core or Atom; AMD Geode LX/NX, Athlon (K7), Duron, Opteron, Sempron, Turion or Phenom; Transmeta Efficeon; VIA C3 "Nehemiah" or C7 processors
p17
sVhardware
p18
Vmodern PCs
p19
ss(Vimage
p20
Vamd64
p21
tp22
(dp23
Vsuggests
p24
Vcrda
p25
sVbootloaders
p26
(lp27
Vgrub-pc
p28
aVextlinux
p29
aVgrub-efi-amd64
p30
asVbreaks
p31
Vxserver-xorg-input-vmmouse (<< 1:13.0.99)
p32
sVinstall-stem
p33
Vvmlinuz
p34
ss(Vimage
p35
g12
tp36
(dp37
Vsuggests
p38
Vcrda
p39
sVbootloaders
p40
(lp41
Vgrub-pc
p42
aVextlinux
p43
aVgrub-efi-ia32
p44
asVbreaks
p45
Vxserver-xorg-input-vmmouse (<< 1:13.0.99)
p46
sVinstall-stem
p47
Vvmlinuz
p48
ss(Vabi
p49
tp50
(dp51
Vabiname
p52
V6.slh.1
p53
ss(Vimage
p54
tp55
(dp56
Vinitramfs-generators
p57
(lp58
Vinitramfs-tools
p59
aVinitramfs-fallback
p60
ass(Vbase
p61
g21
tp62
(dp63
Vkernel-arch
p64
Vx86
p65
sVfeaturesets
p66
(lp67
Vnone
p68
aVnone
p69
ass(Vdescription
p70
g21
g69
Vaptosid-amd64
p71
tp72
(dp73
Vparts
p74
(lp75
Vxen
p76
ass(Vrelations
p77
tp78
(dp79
Vgcc-7
p80
Vgcc-7
p81
sVinitramfs-fallback
p82
Vlinux-initramfs-tool
p83
sVinitramfs-tools
p84
Vinitramfs-tools (>= 0.121~)
p85
ss(Vversion
p86
tp87
(dp88
Vabiname_base
p89
V4.13.0
p90
sVabiname
p91
V4.13.0-6.slh.1
p92
sVsource
p93
V4.13-12
p94
sVupstream
p95
V4.13
p96
ss(Vbuild
p97
g12
tp98
(dp99
Vimage-file
p100
Varch/x86/boot/bzImage
p101
sVdebug-info
p102
I00
ss(Vbase
p103
tp104
(dp105
Vcompiler
p106
Vgcc-7
p107
sVarches
p108
(lp109
Vamd64
p110
aVi386
p111
asVfeaturesets
p112
(lp113
Vnone
p114
ass(Vdescription
p115
g21
NVaptosid-amd64
p116
tp117
(dp118
Vhardware-long
p119
VPCs with AMD64 or Intel 64 processors
p120
sVhardware
p121
V64-bit PCs
p122
ss(Vbuild
p123
g21
tp124
(dp125
Vimage-file
p126
Varch/x86/boot/bzImage
p127
sVdebug-info
p128
I00
ss(Vbase
p129
g12
tp130
(dp131
Vkernel-arch
p132
Vx86
p133
sVfeaturesets
p134
(lp135
g68
aVnone
p136
ass(Vbase
p137
g21
g69
tp138
(dp139
Vimplicit-flavour
p140
I01
sVflavours
p141
(lp142
Vaptosid-amd64
p143
ass(Vbase
p144
g12
g136
tp145
(dp146
g140
I01
sg141
(lp147
Vaptosid-686
p148
asstp149
Rp150
.