ccopy_reg
_reconstructor
p0
(cdebian_linux.config
ConfigCore
p1
c__builtin__
dict
p2
(dp3
(Vdescription
p4
Vi386
p5
NVaptosid-686
p6
tp7
(dp8
Vhardware-long
p9
VPCs with Intel Pentium Pro/II/III/4/4M/D/M, Xeon, Celeron, Core or Atom; AMD Geode LX/NX, Athlon (K7), Duron, Opteron, Sempron, Turion or Phenom; Transmeta Efficeon; VIA C3 "Nehemiah" or C7 processors
p10
sVhardware
p11
Vmodern PCs
p12
ss(Vimage
p13
Vamd64
p14
tp15
(dp16
Vinstall-stem
p17
Vvmlinuz
p18
sVsuggests
p19
Vcrda
p20
sVbootloaders
p21
(lp22
Vgrub-pc
p23
aVextlinux
p24
aVgrub-efi-amd64
p25
asVbreaks
p26
Vxserver-xorg-input-vmmouse (<< 1:13.0.99)
p27
ss(Vimage
p28
g5
tp29
(dp30
Vinstall-stem
p31
Vvmlinuz
p32
sVsuggests
p33
Vcrda
p34
sVbootloaders
p35
(lp36
Vgrub-pc
p37
aVextlinux
p38
aVgrub-efi-ia32
p39
asVbreaks
p40
Vxserver-xorg-input-vmmouse (<< 1:13.0.99)
p41
ss(Vversion
p42
tp43
(dp44
Vabiname
p45
V4.7.0-0.slh.1
p46
sVabiname_base
p47
V4.7.0
p48
sVsource
p49
V4.7-1
p50
sVupstream
p51
V4.7
p52
ss(Vbase
p53
g14
tp54
(dp55
Vfeaturesets
p56
(lp57
Vnone
p58
aVnone
p59
asVkernel-arch
p60
Vx86
p61
ss(Vimage
p62
tp63
(dp64
Vinitramfs-generators
p65
(lp66
Vinitramfs-tools
p67
aVinitramfs-fallback
p68
ass(Vbase
p69
g5
Vnone
p70
tp71
(dp72
Vflavours
p73
(lp74
Vaptosid-686
p75
asVimplicit-flavour
p76
I01
ss(Vbase
p77
g14
g59
tp78
(dp79
g73
(lp80
Vaptosid-amd64
p81
asg76
I01
ss(Vbuild
p82
g14
tp83
(dp84
Vimage-file
p85
Varch/x86/boot/bzImage
p86
sVdebug-info
p87
I00
ss(Vdescription
p88
g14
g59
Vaptosid-amd64
p89
tp90
(dp91
Vparts
p92
(lp93
Vxen
p94
ass(Vbase
p95
tp96
(dp97
Vfeaturesets
p98
(lp99
Vnone
p100
asVcompiler
p101
Vgcc-5
p102
sVarches
p103
(lp104
Vamd64
p105
aVi386
p106
ass(Vabi
p107
tp108
(dp109
Vabiname
p110
V0.slh.1
p111
ss(Vdescription
p112
tp113
(dp114
Vpart-long-xen
p115
VThis kernel also runs on a Xen hypervisor.\u000aIt supports both privileged (dom0) and unprivileged (domU) operation.
p116
sVpart-long-up
p117
VThis kernel is not suitable for SMP (multi-processor,\u000amulti-core or hyper-threaded) systems.
p118
ss(Vxen
p119
g14
g59
Vaptosid-amd64
p120
tp121
(dp122
Vflavours
p123
(lp124
Vaptosid-amd64
p125
ass(Vdescription
p126
g14
NVaptosid-amd64
p127
tp128
(dp129
Vhardware-long
p130
VPCs with AMD64 or Intel 64 processors
p131
sVhardware
p132
V64-bit PCs
p133
ss(Vrelations
p134
tp135
(dp136
Vinitramfs-fallback
p137
Vlinux-initramfs-tool
p138
sVinitramfs-tools
p139
Vinitramfs-tools (>= 0.121~)
p140
sVgcc-5
p141
Vgcc-5
p142
ss(Vbuild
p143
g5
tp144
(dp145
Vimage-file
p146
Varch/x86/boot/bzImage
p147
sVdebug-info
p148
I00
ss(Vbase
p149
g5
tp150
(dp151
Vfeaturesets
p152
(lp153
g58
ag70
asVkernel-arch
p154
Vx86
p155
sstp156
Rp157
.