ccopy_reg
_reconstructor
p0
(cdebian_linux.config
ConfigCore
p1
c__builtin__
dict
p2
(dp3
(Vimage
p4
tp5
(dp6
Vinitramfs-generators
p7
(lp8
Vinitramfs-tools
p9
aVinitramfs-fallback
p10
asVtype
p11
Vplain
p12
ss(Vbase
p13
Vi386
p14
tp15
(dp16
Vkernel-arch
p17
Vx86
p18
sVfeaturesets
p19
(lp20
Vnone
p21
aVnone
p22
ass(Vimage
p23
g14
NVaptosid-686
p24
tp25
(dp26
Vrecommends
p27
Vlibc6-i686
p28
sVconfigs
p29
(lp30
Vkernelarch-x86/config-arch-32
p31
ass(Vbase
p32
Vamd64
p33
Vnone
p34
tp35
(dp36
Vimplicit-flavour
p37
I01
sVflavours
p38
(lp39
Vaptosid-amd64
p40
ass(Vdescription
p41
g33
NVaptosid-amd64
p42
tp43
(dp44
Vhardware-long
p45
VPCs with AMD64 or Intel 64 processors
p46
sVhardware
p47
V64-bit PCs
p48
ss(Vxen
p49
g33
g34
Vaptosid-amd64
p50
tp51
(dp52
Vflavours
p53
(lp54
Vaptosid-amd64
p55
ass(Vbuild
p56
g33
tp57
(dp58
Vimage-file
p59
Varch/x86/boot/bzImage
p60
sVdebug-info
p61
I00
ss(Vbuild
p62
g14
tp63
(dp64
Vimage-file
p65
Varch/x86/boot/bzImage
p66
sVdebug-info
p67
I00
ss(Vbase
p68
g14
g22
tp69
(dp70
g37
I01
sg38
(lp71
Vaptosid-686
p72
ass(Vbase
p73
g33
tp74
(dp75
Vkernel-arch
p76
Vx86
p77
sVfeaturesets
p78
(lp79
g21
ag34
ass(Vimage
p80
g33
NVaptosid-amd64
p81
tp82
(dp83
Vconfigs
p84
(lp85
Vkernelarch-x86/config-arch-64
p86
ass(Vrelations
p87
tp88
(dp89
Vinitramfs-tools
p90
Vinitramfs-tools (>= 0.121~)
p91
sVgcc-5
p92
Vgcc-5
p93
sVinitramfs-fallback
p94
Vlinux-initramfs-tool
p95
ss(Vabi
p96
tp97
(dp98
Vabiname
p99
V2.slh.1
p100
ss(Vimage
p101
g14
tp102
(dp103
Vsuggests
p104
Vcrda
p105
sVinstall-stem
p106
Vvmlinuz
p107
sVconfigs
p108
(lp109
sVbootloaders
p110
(lp111
Vgrub-pc
p112
aVextlinux
p113
aVgrub-efi-ia32
p114
ass(Vdescription
p115
g33
g34
Vaptosid-amd64
p116
tp117
(dp118
Vparts
p119
(lp120
Vxen
p121
ass(Vbase
p122
tp123
(dp124
Varches
p125
(lp126
Vamd64
p127
aVi386
p128
asVcompiler
p129
Vgcc-5
p130
sVfeaturesets
p131
(lp132
Vnone
p133
ass(Vversion
p134
tp135
(dp136
Vabiname_base
p137
V4.6.0
p138
sVupstream
p139
V4.6
p140
sVsource
p141
V4.6-6
p142
sVabiname
p143
V4.6.0-2.slh.1
p144
ss(Vdescription
p145
tp146
(dp147
Vpart-long-xen
p148
VThis kernel also runs on a Xen hypervisor.\u000aIt supports both privileged (dom0) and unprivileged (domU) operation.
p149
sVpart-long-up
p150
VThis kernel is not suitable for SMP (multi-processor,\u000amulti-core or hyper-threaded) systems.
p151
ss(Vimage
p152
g33
tp153
(dp154
Vsuggests
p155
Vcrda
p156
sVinstall-stem
p157
Vvmlinuz
p158
sVconfigs
p159
(lp160
sVbootloaders
p161
(lp162
Vgrub-pc
p163
aVextlinux
p164
aVgrub-efi-amd64
p165
ass(Vdescription
p166
g14
NVaptosid-686
p167
tp168
(dp169
Vhardware-long
p170
VPCs with Intel Pentium Pro/II/III/4/4M/D/M, Xeon, Celeron, Core or Atom; AMD Geode LX/NX, Athlon (K7), Duron, Opteron, Sempron, Turion or Phenom; Transmeta Efficeon; VIA C3 "Nehemiah" or C7 processors
p171
sVhardware
p172
Vmodern PCs
p173
sstp174
Rp175
.