ccopy_reg
_reconstructor
p0
(cdebian_linux.config
ConfigCore
p1
c__builtin__
dict
p2
(dp3
(Vbase
p4
tp5
(dp6
Varches
p7
(lp8
Vamd64
p9
aVi386
p10
asVcompiler
p11
Vgcc-5
p12
sVfeaturesets
p13
(lp14
Vnone
p15
ass(Vversion
p16
tp17
(dp18
Vupstream
p19
V4.6
p20
sVabiname_base
p21
V4.6.0
p22
sVsource
p23
V4.6-3
p24
sVabiname
p25
V4.6.0-0.slh.2
p26
ss(Vimage
p27
Vi386
p28
NVaptosid-686
p29
tp30
(dp31
Vrecommends
p32
Vlibc6-i686
p33
sVconfigs
p34
(lp35
Vkernelarch-x86/config-arch-32
p36
ass(Vbuild
p37
g28
tp38
(dp39
Vimage-file
p40
Varch/x86/boot/bzImage
p41
sVdebug-info
p42
I00
ss(Vbase
p43
g28
Vnone
p44
tp45
(dp46
Vimplicit-flavour
p47
I01
sVflavours
p48
(lp49
Vaptosid-686
p50
ass(Vxen
p51
Vamd64
p52
Vnone
p53
Vaptosid-amd64
p54
tp55
(dp56
Vflavours
p57
(lp58
Vaptosid-amd64
p59
ass(Vrelations
p60
tp61
(dp62
Vgcc-5
p63
Vgcc-5
p64
sVinitramfs-tools
p65
Vinitramfs-tools (>= 0.121~)
p66
sVinitramfs-fallback
p67
Vlinux-initramfs-tool
p68
ss(Vimage
p69
g28
tp70
(dp71
Vinstall-stem
p72
Vvmlinuz
p73
sVsuggests
p74
Vcrda
p75
sVbootloaders
p76
(lp77
Vgrub-pc
p78
aVextlinux
p79
aVgrub-efi-ia32
p80
asVconfigs
p81
(lp82
ss(Vbase
p83
g52
tp84
(dp85
Vfeaturesets
p86
(lp87
Vnone
p88
ag53
asVkernel-arch
p89
Vx86
p90
ss(Vdescription
p91
tp92
(dp93
Vpart-long-up
p94
VThis kernel is not suitable for SMP (multi-processor,\u000amulti-core or hyper-threaded) systems.
p95
sVpart-long-xen
p96
VThis kernel also runs on a Xen hypervisor.\u000aIt supports both privileged (dom0) and unprivileged (domU) operation.
p97
ss(Vimage
p98
g52
NVaptosid-amd64
p99
tp100
(dp101
Vconfigs
p102
(lp103
Vkernelarch-x86/config-arch-64
p104
ass(Vdescription
p105
g52
NVaptosid-amd64
p106
tp107
(dp108
Vhardware-long
p109
VPCs with AMD64 or Intel 64 processors
p110
sVhardware
p111
V64-bit PCs
p112
ss(Vdescription
p113
g28
NVaptosid-686
p114
tp115
(dp116
Vhardware-long
p117
VPCs with Intel Pentium Pro/II/III/4/4M/D/M, Xeon, Celeron, Core or Atom; AMD Geode LX/NX, Athlon (K7), Duron, Opteron, Sempron, Turion or Phenom; Transmeta Efficeon; VIA C3 "Nehemiah" or C7 processors
p118
sVhardware
p119
Vmodern PCs
p120
ss(Vabi
p121
tp122
(dp123
Vabiname
p124
V0.slh.2
p125
ss(Vimage
p126
g52
tp127
(dp128
Vinstall-stem
p129
Vvmlinuz
p130
sVsuggests
p131
Vcrda
p132
sVbootloaders
p133
(lp134
Vgrub-pc
p135
aVextlinux
p136
aVgrub-efi-amd64
p137
asVconfigs
p138
(lp139
ss(Vdescription
p140
g52
g53
Vaptosid-amd64
p141
tp142
(dp143
Vparts
p144
(lp145
Vxen
p146
ass(Vbuild
p147
g52
tp148
(dp149
Vimage-file
p150
Varch/x86/boot/bzImage
p151
sVdebug-info
p152
I00
ss(Vimage
p153
tp154
(dp155
Vinitramfs-generators
p156
(lp157
Vinitramfs-tools
p158
aVinitramfs-fallback
p159
asVtype
p160
Vplain
p161
ss(Vbase
p162
g52
g53
tp163
(dp164
g47
I01
sg48
(lp165
Vaptosid-amd64
p166
ass(Vbase
p167
g28
tp168
(dp169
Vfeaturesets
p170
(lp171
g88
ag44
asVkernel-arch
p172
Vx86
p173
sstp174
Rp175
.