ccopy_reg
_reconstructor
p0
(cdebian_linux.config
ConfigCore
p1
c__builtin__
dict
p2
(dp3
(Vimage
p4
Vamd64
p5
NVaptosid-amd64
p6
tp7
(dp8
Vconfigs
p9
(lp10
Vkernelarch-x86/config-arch-64
p11
ass(Vdescription
p12
g5
NVaptosid-amd64
p13
tp14
(dp15
Vhardware
p16
V64-bit PCs
p17
sVhardware-long
p18
VPCs with AMD64 or Intel 64 processors
p19
ss(Vxen
p20
g5
Vnone
p21
Vaptosid-amd64
p22
tp23
(dp24
Vflavours
p25
(lp26
Vaptosid-amd64
p27
ass(Vdescription
p28
tp29
(dp30
Vpart-long-xen
p31
VThis kernel also runs on a Xen hypervisor.\u000aIt supports both privileged (dom0) and unprivileged (domU) operation.
p32
sVpart-long-up
p33
VThis kernel is not suitable for SMP (multi-processor,\u000amulti-core or hyper-threaded) systems.
p34
ss(Vbase
p35
Vi386
p36
Vnone
p37
tp38
(dp39
Vflavours
p40
(lp41
Vaptosid-686
p42
asVimplicit-flavour
p43
I01
ss(Vimage
p44
g36
NVaptosid-686
p45
tp46
(dp47
Vrecommends
p48
Vlibc6-i686
p49
sVconfigs
p50
(lp51
Vkernelarch-x86/config-arch-32
p52
ass(Vdescription
p53
g36
NVaptosid-686
p54
tp55
(dp56
Vhardware
p57
Vmodern PCs
p58
sVhardware-long
p59
VPCs with Intel Pentium Pro/II/III/4/4M/D/M, Xeon, Celeron, Core or Atom; AMD Geode LX/NX, Athlon (K7), Duron, Opteron, Sempron, Turion or Phenom; Transmeta Efficeon; VIA C3 "Nehemiah" or C7 processors
p60
ss(Vdescription
p61
g5
g21
Vaptosid-amd64
p62
tp63
(dp64
Vparts
p65
(lp66
Vxen
p67
ass(Vbase
p68
g36
tp69
(dp70
Vfeaturesets
p71
(lp72
Vnone
p73
ag37
asVkernel-arch
p74
Vx86
p75
ss(Vimage
p76
g5
tp77
(dp78
Vbootloaders
p79
(lp80
Vgrub-pc
p81
aVextlinux
p82
aVgrub-efi-amd64
p83
asVconfigs
p84
(lp85
sVsuggests
p86
Vcrda
p87
sVinstall-stem
p88
Vvmlinuz
p89
ss(Vimage
p90
tp91
(dp92
Vtype
p93
Vplain
p94
sVinitramfs-generators
p95
(lp96
Vinitramfs-tools
p97
aVinitramfs-fallback
p98
ass(Vbase
p99
g5
g21
tp100
(dp101
g40
(lp102
Vaptosid-amd64
p103
asg43
I01
ss(Vbase
p104
g5
tp105
(dp106
Vfeaturesets
p107
(lp108
g73
ag21
asVkernel-arch
p109
Vx86
p110
ss(Vimage
p111
g36
tp112
(dp113
Vbootloaders
p114
(lp115
Vgrub-pc
p116
aVextlinux
p117
aVgrub-efi-ia32
p118
asVconfigs
p119
(lp120
sVsuggests
p121
Vcrda
p122
sVinstall-stem
p123
Vvmlinuz
p124
ss(Vrelations
p125
tp126
(dp127
Vinitramfs-tools
p128
Vinitramfs-tools (>= 0.121~)
p129
sVinitramfs-fallback
p130
Vlinux-initramfs-tool
p131
sVgcc-5
p132
Vgcc-5
p133
ss(Vbuild
p134
g36
tp135
(dp136
Vdebug-info
p137
I00
sVimage-file
p138
Varch/x86/boot/bzImage
p139
ss(Vbuild
p140
g5
tp141
(dp142
Vdebug-info
p143
I00
sVimage-file
p144
Varch/x86/boot/bzImage
p145
ss(Vabi
p146
tp147
(dp148
Vabiname
p149
V3.slh.2
p150
ss(Vversion
p151
tp152
(dp153
Vabiname
p154
V4.6.0-3.slh.2
p155
sVabiname_base
p156
V4.6.0
p157
sVsource
p158
V4.6-12
p159
sVupstream
p160
V4.6
p161
ss(Vbase
p162
tp163
(dp164
Vcompiler
p165
Vgcc-5
p166
sVfeaturesets
p167
(lp168
Vnone
p169
asVarches
p170
(lp171
Vamd64
p172
aVi386
p173
asstp174
Rp175
.