ccopy_reg
_reconstructor
p0
(cdebian_linux.config
ConfigCore
p1
c__builtin__
dict
p2
(dp3
(Vbase
p4
Vi386
p5
Vnone
p6
tp7
(dp8
Vflavours
p9
(lp10
Vaptosid-686
p11
asVimplicit-flavour
p12
I01
ss(Vbase
p13
tp14
(dp15
Varches
p16
(lp17
Vamd64
p18
aVi386
p19
asVfeaturesets
p20
(lp21
Vnone
p22
asVcompiler
p23
Vgcc-6
p24
ss(Vbuild
p25
g5
tp26
(dp27
Vdebug-info
p28
I00
sVimage-file
p29
Varch/x86/boot/bzImage
p30
ss(Vdescription
p31
Vamd64
p32
Vnone
p33
Vaptosid-amd64
p34
tp35
(dp36
Vparts
p37
(lp38
Vxen
p39
ass(Vdescription
p40
g5
NVaptosid-686
p41
tp42
(dp43
Vhardware-long
p44
VPCs with Intel Pentium Pro/II/III/4/4M/D/M, Xeon, Celeron, Core or Atom; AMD Geode LX/NX, Athlon (K7), Duron, Opteron, Sempron, Turion or Phenom; Transmeta Efficeon; VIA C3 "Nehemiah" or C7 processors
p45
sVhardware
p46
Vmodern PCs
p47
ss(Vabi
p48
tp49
(dp50
Vabiname
p51
V2.slh.2
p52
ss(Vbase
p53
g5
tp54
(dp55
Vkernel-arch
p56
Vx86
p57
sVfeaturesets
p58
(lp59
Vnone
p60
ag6
ass(Vbuild
p61
g32
tp62
(dp63
Vdebug-info
p64
I00
sVimage-file
p65
Varch/x86/boot/bzImage
p66
ss(Vdescription
p67
tp68
(dp69
Vpart-long-xen
p70
VThis kernel also runs on a Xen hypervisor.\u000aIt supports both privileged (dom0) and unprivileged (domU) operation.
p71
sVpart-long-up
p72
VThis kernel is not suitable for SMP (multi-processor,\u000amulti-core or hyper-threaded) systems.
p73
ss(Vimage
p74
tp75
(dp76
Vinitramfs-generators
p77
(lp78
Vinitramfs-tools
p79
aVinitramfs-fallback
p80
ass(Vbase
p81
g32
g33
tp82
(dp83
g9
(lp84
Vaptosid-amd64
p85
asg12
I01
ss(Vdescription
p86
g32
NVaptosid-amd64
p87
tp88
(dp89
Vhardware-long
p90
VPCs with AMD64 or Intel 64 processors
p91
sVhardware
p92
V64-bit PCs
p93
ss(Vrelations
p94
tp95
(dp96
Vinitramfs-tools
p97
Vinitramfs-tools (>= 0.121~)
p98
sVgcc-6
p99
Vgcc-6
p100
sVinitramfs-fallback
p101
Vlinux-initramfs-tool
p102
ss(Vversion
p103
tp104
(dp105
Vsource
p106
V4.12-5
p107
sVabiname_base
p108
V4.12.0
p109
sVupstream
p110
V4.12
p111
sVabiname
p112
V4.12.0-2.slh.2
p113
ss(Vimage
p114
g32
tp115
(dp116
Vsuggests
p117
Vcrda
p118
sVbreaks
p119
Vxserver-xorg-input-vmmouse (<< 1:13.0.99)
p120
sVinstall-stem
p121
Vvmlinuz
p122
sVbootloaders
p123
(lp124
Vgrub-pc
p125
aVextlinux
p126
aVgrub-efi-amd64
p127
ass(Vbase
p128
g32
tp129
(dp130
Vkernel-arch
p131
Vx86
p132
sVfeaturesets
p133
(lp134
g60
ag33
ass(Vimage
p135
g5
tp136
(dp137
Vsuggests
p138
Vcrda
p139
sVbreaks
p140
Vxserver-xorg-input-vmmouse (<< 1:13.0.99)
p141
sVinstall-stem
p142
Vvmlinuz
p143
sVbootloaders
p144
(lp145
Vgrub-pc
p146
aVextlinux
p147
aVgrub-efi-ia32
p148
asstp149
Rp150
.