ccopy_reg
_reconstructor
p0
(cdebian_linux.config
ConfigCore
p1
c__builtin__
dict
p2
(dp3
(Vdescription
p4
Vamd64
p5
NVaptosid-amd64
p6
tp7
(dp8
Vhardware-long
p9
VPCs with AMD64 or Intel 64 processors
p10
sVhardware
p11
V64-bit PCs
p12
ss(Vbase
p13
g5
Vnone
p14
tp15
(dp16
Vflavours
p17
(lp18
Vaptosid-amd64
p19
asVimplicit-flavour
p20
I01
ss(Vrelations
p21
tp22
(dp23
Vinitramfs-tools
p24
Vinitramfs-tools (>= 0.121~)
p25
sVgcc-6
p26
Vgcc-6
p27
sVinitramfs-fallback
p28
Vlinux-initramfs-tool
p29
ss(Vdescription
p30
Vi386
p31
NVaptosid-686
p32
tp33
(dp34
Vhardware-long
p35
VPCs with Intel Pentium Pro/II/III/4/4M/D/M, Xeon, Celeron, Core or Atom; AMD Geode LX/NX, Athlon (K7), Duron, Opteron, Sempron, Turion or Phenom; Transmeta Efficeon; VIA C3 "Nehemiah" or C7 processors
p36
sVhardware
p37
Vmodern PCs
p38
ss(Vversion
p39
tp40
(dp41
Vabiname
p42
V4.9.0-9.slh.2
p43
sVabiname_base
p44
V4.9.0
p45
sVupstream
p46
V4.9
p47
sVsource
p48
V4.9-16
p49
ss(Vbase
p50
g5
tp51
(dp52
Vkernel-arch
p53
Vx86
p54
sVfeaturesets
p55
(lp56
Vnone
p57
ag14
ass(Vimage
p58
tp59
(dp60
Vinitramfs-generators
p61
(lp62
Vinitramfs-tools
p63
aVinitramfs-fallback
p64
ass(Vimage
p65
g31
tp66
(dp67
Vsuggests
p68
Vcrda
p69
sVbreaks
p70
Vxserver-xorg-input-vmmouse (<< 1:13.0.99)
p71
sVbootloaders
p72
(lp73
Vgrub-pc
p74
aVextlinux
p75
aVgrub-efi-ia32
p76
asVinstall-stem
p77
Vvmlinuz
p78
ss(Vabi
p79
tp80
(dp81
Vabiname
p82
V9.slh.2
p83
ss(Vbuild
p84
g5
tp85
(dp86
Vdebug-info
p87
I00
sVimage-file
p88
Varch/x86/boot/bzImage
p89
ss(Vdescription
p90
tp91
(dp92
Vpart-long-xen
p93
VThis kernel also runs on a Xen hypervisor.\u000aIt supports both privileged (dom0) and unprivileged (domU) operation.
p94
sVpart-long-up
p95
VThis kernel is not suitable for SMP (multi-processor,\u000amulti-core or hyper-threaded) systems.
p96
ss(Vbase
p97
tp98
(dp99
Vcompiler
p100
Vgcc-6
p101
sVarches
p102
(lp103
Vamd64
p104
aVi386
p105
asVfeaturesets
p106
(lp107
Vnone
p108
ass(Vdescription
p109
g5
g14
Vaptosid-amd64
p110
tp111
(dp112
Vparts
p113
(lp114
Vxen
p115
ass(Vbase
p116
g31
Vnone
p117
tp118
(dp119
g17
(lp120
Vaptosid-686
p121
asg20
I01
ss(Vbuild
p122
g31
tp123
(dp124
Vdebug-info
p125
I00
sVimage-file
p126
Varch/x86/boot/bzImage
p127
ss(Vbase
p128
g31
tp129
(dp130
Vkernel-arch
p131
Vx86
p132
sVfeaturesets
p133
(lp134
g57
ag117
ass(Vimage
p135
g5
tp136
(dp137
Vsuggests
p138
Vcrda
p139
sVbreaks
p140
Vxserver-xorg-input-vmmouse (<< 1:13.0.99)
p141
sVbootloaders
p142
(lp143
Vgrub-pc
p144
aVextlinux
p145
aVgrub-efi-amd64
p146
asVinstall-stem
p147
Vvmlinuz
p148
sstp149
Rp150
.