ccopy_reg
_reconstructor
p0
(cdebian_linux.config
ConfigCore
p1
c__builtin__
dict
p2
(dp3
(S'image'
p4
S'amd64'
p5
NS'aptosid-amd64'
p6
tp7
(dp8
S'configs'
p9
(lp10
S'kernelarch-x86/config-arch-64'
p11
ass(S'image'
p12
g5
tp13
(dp14
S'install-stem'
p15
S'vmlinuz'
p16
sS'configs'
p17
(lp18
sS'bootloaders'
p19
(lp20
S'grub-pc'
p21
aS'extlinux'
p22
aS'grub-efi-amd64'
p23
asS'suggests'
p24
S'crda'
p25
ss(S'description'
p26
g5
NS'aptosid-amd64'
p27
tp28
(dp29
S'hardware'
p30
S'64-bit PCs'
p31
sS'hardware-long'
p32
S'PCs with AMD64 or Intel 64 processors'
p33
ss(S'base'
p34
g5
S'none'
p35
tp36
(dp37
S'implicit-flavour'
p38
I01
sS'flavours'
p39
(lp40
S'aptosid-amd64'
p41
ass(S'xen'
p42
g5
g35
S'aptosid-amd64'
p43
tp44
(dp45
S'flavours'
p46
(lp47
S'aptosid-amd64'
p48
ass(S'base'
p49
g5
tp50
(dp51
S'kernel-arch'
p52
S'x86'
p53
sS'featuresets'
p54
(lp55
S'none'
p56
ag35
ass(S'image'
p57
tp58
(dp59
S'initramfs-generators'
p60
(lp61
S'initramfs-tools'
p62
aS'initramfs-fallback'
p63
asS'type'
p64
S'plain'
p65
ss(S'version'
p66
tp67
(dp68
S'abiname'
p69
S'4.0.0-1.slh.2'
p70
sS'source'
p71
V4.0-5
p72
sS'abiname_base'
p73
S'4.0.0'
p74
sS'upstream'
p75
S'4.0'
p76
ss(S'description'
p77
g5
g35
S'aptosid-amd64'
p78
tp79
(dp80
S'parts'
p81
(lp82
S'xen'
p83
ass(S'base'
p84
S'i386'
p85
tp86
(dp87
S'kernel-arch'
p88
S'x86'
p89
sS'featuresets'
p90
(lp91
g56
aS'none'
p92
ass(S'description'
p93
g85
NS'aptosid-686'
p94
tp95
(dp96
S'hardware'
p97
S'modern PCs'
p98
sS'hardware-long'
p99
S'PCs with Intel Pentium Pro/II/III/4/4M/D/M, Xeon, Celeron, Core or Atom; AMD Geode LX/NX, Athlon (K7), Duron, Opteron, Sempron, Turion or Phenom; Transmeta Efficeon; VIA C3 "Nehemiah" or C7 processors'
p100
ss(S'base'
p101
tp102
(dp103
S'arches'
p104
(lp105
S'amd64'
p106
aS'i386'
p107
asS'featuresets'
p108
(lp109
S'none'
p110
asS'compiler'
p111
S'gcc-4.9'
p112
ss(S'base'
p113
g85
g92
tp114
(dp115
g38
I01
sg39
(lp116
S'aptosid-686'
p117
ass(S'abi'
p118
tp119
(dp120
S'abiname'
p121
S'1.slh.2'
p122
ss(S'image'
p123
g85
tp124
(dp125
S'install-stem'
p126
S'vmlinuz'
p127
sS'configs'
p128
(lp129
sS'bootloaders'
p130
(lp131
S'grub-pc'
p132
aS'extlinux'
p133
aS'grub-efi-ia32'
p134
asS'suggests'
p135
S'crda'
p136
ss(S'description'
p137
tp138
(dp139
S'part-long-up'
p140
S'This kernel is not suitable for SMP (multi-processor,\nmulti-core or hyper-threaded) systems.'
p141
sS'part-long-xen'
p142
S'This kernel also runs on a Xen hypervisor.\nIt supports both privileged (dom0) and unprivileged (domU) operation.'
p143
ss(S'build'
p144
g5
tp145
(dp146
S'debug-info'
p147
I00
sS'image-file'
p148
S'arch/x86/boot/bzImage'
p149
ss(S'image'
p150
g85
NS'aptosid-686'
p151
tp152
(dp153
S'configs'
p154
(lp155
S'kernelarch-x86/config-arch-32'
p156
asS'recommends'
p157
S'libc6-i686'
p158
ss(S'build'
p159
g85
tp160
(dp161
S'debug-info'
p162
I00
sS'image-file'
p163
S'arch/x86/boot/bzImage'
p164
ss(S'relations'
p165
tp166
(dp167
S'initramfs-fallback'
p168
S'linux-initramfs-tool'
p169
sS'gcc-4.9'
p170
S'gcc-4.9'
p171
sS'initramfs-tools'
p172
S'initramfs-tools (>= 0.118+c0.aptosid.1~)'
p173
sstp174
Rp175
.