ccopy_reg
_reconstructor
p1
(cdebian_linux.config
ConfigCore
p2
c__builtin__
dict
p3
(dp4
(S'image'
S'amd64'
p5
tp6
(dp7
S'suggests'
p8
S'crda'
p9
sS'configs'
p10
(lp11
S'kernelarch-x86/config'
p12
asS'bootloaders'
p13
(lp14
S'grub-pc'
p15
aS'extlinux'
p16
aS'grub-efi-amd64'
p17
ass(S'build'
S'i386'
p18
NS'aptosid-686'
tp19
(dp20
S'debug-info'
p21
I00
ss(S'base'
p22
g5
S'none'
p23
tp24
(dp25
S'implicit-flavour'
p26
I01
sS'flavours'
p27
(lp28
S'aptosid-amd64'
p29
ass(S'base'
g5
tp30
(dp31
S'kernel-arch'
p32
S'x86'
p33
sS'featuresets'
p34
(lp35
g23
ass(S'image'
g18
NS'aptosid-686'
tp36
(dp37
S'configs'
p38
(lp39
S'kernelarch-x86/config-arch-32'
p40
asS'recommends'
p41
S'libc6-i686'
p42
ss(S'image'
p43
tp44
(dp45
S'initramfs-generators'
p46
(lp47
S'initramfs-tools'
p48
aS'initramfs-fallback'
p49
asS'type'
p50
S'plain'
p51
ss(S'description'
g18
NS'aptosid-686'
tp52
(dp53
S'hardware'
p54
S'modern PCs'
p55
sS'hardware-long'
p56
S'PCs with Intel Pentium Pro/II/III/4/4M/D/M, Xeon, Celeron, Core or Atom; AMD Geode LX/NX, Athlon (K7), Duron, Opteron, Sempron, Turion or Phenom; Transmeta Efficeon; VIA C3 "Nehemiah" or C7 processors'
p57
ss(S'version'
p58
tp59
(dp60
S'abiname'
p61
S'3.12-0.slh.1'
p62
sS'source'
p63
V3.12-1
p64
ss(S'base'
p65
g18
tp66
(dp67
S'kernel-arch'
p68
S'x86'
p69
sg34
(lp70
g23
ass(S'description'
g5
NS'aptosid-amd64'
tp71
(dp72
S'hardware'
p73
S'64-bit PCs'
p74
sS'hardware-long'
p75
S'PCs with AMD64 or Intel 64 processors'
p76
ss(S'abi'
p77
tp78
(dp79
S'abiname'
p80
S'0.slh.1'
p81
ss(S'image'
p82
g18
tp83
(dp84
S'suggests'
p85
S'crda'
p86
sS'configs'
p87
(lp88
S'kernelarch-x86/config'
p89
asS'bootloaders'
p90
(lp91
S'grub-pc'
p92
aS'extlinux'
p93
ass(g22
g18
g23
tp94
(dp95
g26
I01
sg27
(lp96
S'aptosid-686'
p97
ass(S'build'
g5
NS'aptosid-amd64'
tp98
(dp99
S'debug-info'
p100
I00
ss(S'image'
g5
NS'aptosid-amd64'
tp101
(dp102
S'configs'
p103
(lp104
S'kernelarch-x86/config-arch-64'
p105
ass(S'base'
p106
tp107
(dp108
S'arches'
p109
(lp110
S'amd64'
p111
aS'i386'
p112
asS'featuresets'
p113
(lp114
S'none'
p115
asS'compiler'
p116
S'gcc-4.8'
p117
ss(S'relations'
p118
tp119
(dp120
S'initramfs-fallback'
p121
S'linux-initramfs-tool'
p122
sS'lilo'
p123
S'lilo (>= 22.8-8.2~)'
p124
sS'gcc-4.8'
p125
S'gcc-4.8'
p126
sS'initramfs-tools'
p127
S'initramfs-tools (>= 0.110~)'
p128
sS'elilo'
p129
S'elilo (>= 3.12-3.1~)'
p130
sstRp131
.