ccopy_reg
_reconstructor
p0
(cdebian_linux.config
ConfigCore
p1
c__builtin__
dict
p2
(dp3
(Vimage
p4
Vamd64
p5
tp6
(dp7
Vsuggests
p8
Vcrda
p9
sVbootloaders
p10
(lp11
Vgrub-pc
p12
aVextlinux
p13
aVgrub-efi-amd64
p14
asVinstall-stem
p15
Vvmlinuz
p16
sVbreaks
p17
Vxserver-xorg-input-vmmouse (<< 1:13.0.99)
p18
ss(Vdescription
p19
Vi386
p20
NVaptosid-686
p21
tp22
(dp23
Vhardware
p24
Vmodern PCs
p25
sVhardware-long
p26
VPCs with Intel Pentium Pro/II/III/4/4M/D/M, Xeon, Celeron, Core or Atom; AMD Geode LX/NX, Athlon (K7), Duron, Opteron, Sempron, Turion or Phenom; Transmeta Efficeon; VIA C3 "Nehemiah" or C7 processors
p27
ss(Vbase
p28
tp29
(dp30
Vfeaturesets
p31
(lp32
Vnone
p33
asVarches
p34
(lp35
Vamd64
p36
aVi386
p37
asVcompiler
p38
Vgcc-6
p39
ss(Vxen
p40
g5
Vnone
p41
Vaptosid-amd64
p42
tp43
(dp44
Vflavours
p45
(lp46
Vaptosid-amd64
p47
ass(Vimage
p48
tp49
(dp50
Vinitramfs-generators
p51
(lp52
Vinitramfs-tools
p53
aVinitramfs-fallback
p54
ass(Vdescription
p55
g5
g41
Vaptosid-amd64
p56
tp57
(dp58
Vparts
p59
(lp60
Vxen
p61
ass(Vdescription
p62
g5
NVaptosid-amd64
p63
tp64
(dp65
Vhardware
p66
V64-bit PCs
p67
sVhardware-long
p68
VPCs with AMD64 or Intel 64 processors
p69
ss(Vrelations
p70
tp71
(dp72
Vinitramfs-tools
p73
Vinitramfs-tools (>= 0.121~)
p74
sVinitramfs-fallback
p75
Vlinux-initramfs-tool
p76
sVgcc-6
p77
Vgcc-6
p78
ss(Vbuild
p79
g20
tp80
(dp81
Vdebug-info
p82
I00
sVimage-file
p83
Varch/x86/boot/bzImage
p84
ss(Vbuild
p85
g5
tp86
(dp87
Vdebug-info
p88
I00
sVimage-file
p89
Varch/x86/boot/bzImage
p90
ss(Vbase
p91
g20
Vnone
p92
tp93
(dp94
Vimplicit-flavour
p95
I01
sVflavours
p96
(lp97
Vaptosid-686
p98
ass(Vversion
p99
tp100
(dp101
Vabiname
p102
V4.8.0-14.slh.1
p103
sVupstream
p104
V4.8
p105
sVabiname_base
p106
V4.8.0
p107
sVsource
p108
V4.8-24
p109
ss(Vabi
p110
tp111
(dp112
Vabiname
p113
V14.slh.1
p114
ss(Vdescription
p115
tp116
(dp117
Vpart-long-up
p118
VThis kernel is not suitable for SMP (multi-processor,\u000amulti-core or hyper-threaded) systems.
p119
sVpart-long-xen
p120
VThis kernel also runs on a Xen hypervisor.\u000aIt supports both privileged (dom0) and unprivileged (domU) operation.
p121
ss(Vbase
p122
g5
tp123
(dp124
Vfeaturesets
p125
(lp126
Vnone
p127
ag41
asVkernel-arch
p128
Vx86
p129
ss(Vbase
p130
g5
g41
tp131
(dp132
g95
I01
sg96
(lp133
Vaptosid-amd64
p134
ass(Vbase
p135
g20
tp136
(dp137
Vfeaturesets
p138
(lp139
g127
ag92
asVkernel-arch
p140
Vx86
p141
ss(Vimage
p142
g20
tp143
(dp144
Vsuggests
p145
Vcrda
p146
sVbootloaders
p147
(lp148
Vgrub-pc
p149
aVextlinux
p150
aVgrub-efi-ia32
p151
asVinstall-stem
p152
Vvmlinuz
p153
sVbreaks
p154
Vxserver-xorg-input-vmmouse (<< 1:13.0.99)
p155
sstp156
Rp157
.