ccopy_reg
_reconstructor
p0
(cdebian_linux.config
ConfigCore
p1
c__builtin__
dict
p2
(dp3
(Vimage
p4
tp5
(dp6
Vinitramfs-generators
p7
(lp8
Vinitramfs-tools
p9
aVinitramfs-fallback
p10
ass(Vbase
p11
Vamd64
p12
Vnone
p13
tp14
(dp15
Vflavours
p16
(lp17
Vaptosid-amd64
p18
asVimplicit-flavour
p19
I01
ss(Vbase
p20
Vi386
p21
tp22
(dp23
Vfeaturesets
p24
(lp25
Vnone
p26
aVnone
p27
asVkernel-arch
p28
Vx86
p29
ss(Vbase
p30
g21
g27
tp31
(dp32
g16
(lp33
Vaptosid-686
p34
asg19
I01
ss(Vdescription
p35
tp36
(dp37
Vpart-long-up
p38
VThis kernel is not suitable for SMP (multi-processor,\u000amulti-core or hyper-threaded) systems.
p39
sVpart-long-xen
p40
VThis kernel also runs on a Xen hypervisor.\u000aIt supports both privileged (dom0) and unprivileged (domU) operation.
p41
ss(Vrelations
p42
tp43
(dp44
Vgcc-6
p45
Vgcc-6
p46
sVinitramfs-fallback
p47
Vlinux-initramfs-tool
p48
sVinitramfs-tools
p49
Vinitramfs-tools (>= 0.121~)
p50
ss(Vbuild
p51
g12
tp52
(dp53
Vdebug-info
p54
I00
sVimage-file
p55
Varch/x86/boot/bzImage
p56
ss(Vdescription
p57
g12
g13
Vaptosid-amd64
p58
tp59
(dp60
Vparts
p61
(lp62
Vxen
p63
ass(Vdescription
p64
g21
NVaptosid-686
p65
tp66
(dp67
Vhardware-long
p68
VPCs with Intel Pentium Pro/II/III/4/4M/D/M, Xeon, Celeron, Core or Atom; AMD Geode LX/NX, Athlon (K7), Duron, Opteron, Sempron, Turion or Phenom; Transmeta Efficeon; VIA C3 "Nehemiah" or C7 processors
p69
sVhardware
p70
Vmodern PCs
p71
ss(Vimage
p72
g12
tp73
(dp74
Vinstall-stem
p75
Vvmlinuz
p76
sVsuggests
p77
Vcrda
p78
sVbootloaders
p79
(lp80
Vgrub-pc
p81
aVextlinux
p82
aVgrub-efi-amd64
p83
asVbreaks
p84
Vxserver-xorg-input-vmmouse (<< 1:13.0.99)
p85
ss(Vbase
p86
tp87
(dp88
Vfeaturesets
p89
(lp90
Vnone
p91
asVarches
p92
(lp93
Vamd64
p94
aVi386
p95
asVcompiler
p96
Vgcc-6
p97
ss(Vbase
p98
g12
tp99
(dp100
Vfeaturesets
p101
(lp102
g26
ag13
asVkernel-arch
p103
Vx86
p104
ss(Vdescription
p105
g12
NVaptosid-amd64
p106
tp107
(dp108
Vhardware-long
p109
VPCs with AMD64 or Intel 64 processors
p110
sVhardware
p111
V64-bit PCs
p112
ss(Vabi
p113
tp114
(dp115
Vabiname
p116
V5.slh.1
p117
ss(Vimage
p118
g21
tp119
(dp120
Vinstall-stem
p121
Vvmlinuz
p122
sVsuggests
p123
Vcrda
p124
sVbootloaders
p125
(lp126
Vgrub-pc
p127
aVextlinux
p128
aVgrub-efi-ia32
p129
asVbreaks
p130
Vxserver-xorg-input-vmmouse (<< 1:13.0.99)
p131
ss(Vbuild
p132
g21
tp133
(dp134
Vdebug-info
p135
I00
sVimage-file
p136
Varch/x86/boot/bzImage
p137
ss(Vversion
p138
tp139
(dp140
Vabiname
p141
V4.9.0-5.slh.1
p142
sVabiname_base
p143
V4.9.0
p144
sVsource
p145
V4.9-10
p146
sVupstream
p147
V4.9
p148
sstp149
Rp150
.