ccopy_reg
_reconstructor
p0
(cdebian_linux.config
ConfigCore
p1
c__builtin__
dict
p2
(dp3
(Vdescription
p4
Vamd64
p5
NVaptosid-amd64
p6
tp7
(dp8
Vhardware
p9
V64-bit PCs
p10
sVhardware-long
p11
VPCs with AMD64 or Intel 64 processors
p12
ss(Vimage
p13
tp14
(dp15
Vinitramfs-generators
p16
(lp17
Vinitramfs-tools
p18
aVinitramfs-fallback
p19
asVtype
p20
Vplain
p21
ss(Vdescription
p22
g5
Vnone
p23
Vaptosid-amd64
p24
tp25
(dp26
Vparts
p27
(lp28
Vxen
p29
ass(Vbase
p30
g5
tp31
(dp32
Vkernel-arch
p33
Vx86
p34
sVfeaturesets
p35
(lp36
Vnone
p37
ag23
ass(Vbuild
p38
Vi386
p39
tp40
(dp41
Vimage-file
p42
Varch/x86/boot/bzImage
p43
sVdebug-info
p44
I00
ss(Vdescription
p45
tp46
(dp47
Vpart-long-xen
p48
VThis kernel also runs on a Xen hypervisor.\u000aIt supports both privileged (dom0) and unprivileged (domU) operation.
p49
sVpart-long-up
p50
VThis kernel is not suitable for SMP (multi-processor,\u000amulti-core or hyper-threaded) systems.
p51
ss(Vbase
p52
tp53
(dp54
Vcompiler
p55
Vgcc-5
p56
sVarches
p57
(lp58
Vamd64
p59
aVi386
p60
asVfeaturesets
p61
(lp62
Vnone
p63
ass(Vxen
p64
g5
g23
Vaptosid-amd64
p65
tp66
(dp67
Vflavours
p68
(lp69
Vaptosid-amd64
p70
ass(Vdescription
p71
g39
NVaptosid-686
p72
tp73
(dp74
Vhardware
p75
Vmodern PCs
p76
sVhardware-long
p77
VPCs with Intel Pentium Pro/II/III/4/4M/D/M, Xeon, Celeron, Core or Atom; AMD Geode LX/NX, Athlon (K7), Duron, Opteron, Sempron, Turion or Phenom; Transmeta Efficeon; VIA C3 "Nehemiah" or C7 processors
p78
ss(Vbase
p79
g39
tp80
(dp81
Vkernel-arch
p82
Vx86
p83
sVfeaturesets
p84
(lp85
g37
aVnone
p86
ass(Vimage
p87
g39
NVaptosid-686
p88
tp89
(dp90
Vconfigs
p91
(lp92
Vkernelarch-x86/config-arch-32
p93
asVrecommends
p94
Vlibc6-i686
p95
ss(Vimage
p96
g39
tp97
(dp98
Vinstall-stem
p99
Vvmlinuz
p100
sVsuggests
p101
Vcrda
p102
sVconfigs
p103
(lp104
sVbootloaders
p105
(lp106
Vgrub-pc
p107
aVextlinux
p108
aVgrub-efi-ia32
p109
ass(Vbase
p110
g5
g23
tp111
(dp112
Vimplicit-flavour
p113
I01
sVflavours
p114
(lp115
Vaptosid-amd64
p116
ass(Vbuild
p117
g5
tp118
(dp119
Vimage-file
p120
Varch/x86/boot/bzImage
p121
sVdebug-info
p122
I00
ss(Vimage
p123
g5
NVaptosid-amd64
p124
tp125
(dp126
Vconfigs
p127
(lp128
Vkernelarch-x86/config-arch-64
p129
ass(Vabi
p130
tp131
(dp132
Vabiname
p133
V0.slh.2
p134
ss(Vversion
p135
tp136
(dp137
Vupstream
p138
V4.5
p139
sVabiname_base
p140
V4.5.0
p141
sVsource
p142
V4.5-2
p143
sVabiname
p144
V4.5.0-0.slh.2
p145
ss(Vrelations
p146
tp147
(dp148
Vinitramfs-tools
p149
Vinitramfs-tools (>= 0.118+c0.aptosid.1~)
p150
sVgcc-5
p151
Vgcc-5
p152
sVinitramfs-fallback
p153
Vlinux-initramfs-tool
p154
ss(Vimage
p155
g5
tp156
(dp157
Vinstall-stem
p158
Vvmlinuz
p159
sVsuggests
p160
Vcrda
p161
sVconfigs
p162
(lp163
sVbootloaders
p164
(lp165
Vgrub-pc
p166
aVextlinux
p167
aVgrub-efi-amd64
p168
ass(Vbase
p169
g39
g86
tp170
(dp171
g113
I01
sg114
(lp172
Vaptosid-686
p173
asstp174
Rp175
.