ccopy_reg
_reconstructor
p0
(cdebian_linux.config
ConfigCore
p1
c__builtin__
dict
p2
(dp3
(Vbuild
p4
Vi386
p5
tp6
(dp7
Vimage-file
p8
Varch/x86/boot/bzImage
p9
sVdebug-info
p10
I00
ss(Vbase
p11
tp12
(dp13
Vcompiler
p14
Vgcc-6
p15
sVarches
p16
(lp17
Vamd64
p18
aVi386
p19
asVfeaturesets
p20
(lp21
Vnone
p22
ass(Vdescription
p23
Vamd64
p24
Vnone
p25
Vaptosid-amd64
p26
tp27
(dp28
Vparts
p29
(lp30
Vxen
p31
ass(Vimage
p32
tp33
(dp34
Vinitramfs-generators
p35
(lp36
Vinitramfs-tools
p37
aVinitramfs-fallback
p38
ass(Vimage
p39
g24
tp40
(dp41
Vsuggests
p42
Vcrda
p43
sVbootloaders
p44
(lp45
Vgrub-pc
p46
aVextlinux
p47
aVgrub-efi-amd64
p48
asVinstall-stem
p49
Vvmlinuz
p50
sVbreaks
p51
Vxserver-xorg-input-vmmouse (<< 1:13.0.99)
p52
ss(Vrelations
p53
tp54
(dp55
Vinitramfs-tools
p56
Vinitramfs-tools (>= 0.121~)
p57
sVinitramfs-fallback
p58
Vlinux-initramfs-tool
p59
sVgcc-6
p60
Vgcc-6
p61
ss(Vbase
p62
g5
Vnone
p63
tp64
(dp65
Vimplicit-flavour
p66
I01
sVflavours
p67
(lp68
Vaptosid-686
p69
ass(Vbase
p70
g24
tp71
(dp72
Vkernel-arch
p73
Vx86
p74
sVfeaturesets
p75
(lp76
Vnone
p77
ag25
ass(Vversion
p78
tp79
(dp80
Vabiname
p81
V4.8.0-11.slh.1
p82
sVabiname_base
p83
V4.8.0
p84
sVupstream
p85
V4.8
p86
sVsource
p87
V4.8-16
p88
ss(Vdescription
p89
g24
NVaptosid-amd64
p90
tp91
(dp92
Vhardware-long
p93
VPCs with AMD64 or Intel 64 processors
p94
sVhardware
p95
V64-bit PCs
p96
ss(Vabi
p97
tp98
(dp99
Vabiname
p100
V11.slh.1
p101
ss(Vxen
p102
g24
g25
Vaptosid-amd64
p103
tp104
(dp105
Vflavours
p106
(lp107
Vaptosid-amd64
p108
ass(Vbase
p109
g24
g25
tp110
(dp111
g66
I01
sg67
(lp112
Vaptosid-amd64
p113
ass(Vdescription
p114
g5
NVaptosid-686
p115
tp116
(dp117
Vhardware-long
p118
VPCs with Intel Pentium Pro/II/III/4/4M/D/M, Xeon, Celeron, Core or Atom; AMD Geode LX/NX, Athlon (K7), Duron, Opteron, Sempron, Turion or Phenom; Transmeta Efficeon; VIA C3 "Nehemiah" or C7 processors
p119
sVhardware
p120
Vmodern PCs
p121
ss(Vimage
p122
g5
tp123
(dp124
Vsuggests
p125
Vcrda
p126
sVbootloaders
p127
(lp128
Vgrub-pc
p129
aVextlinux
p130
aVgrub-efi-ia32
p131
asVinstall-stem
p132
Vvmlinuz
p133
sVbreaks
p134
Vxserver-xorg-input-vmmouse (<< 1:13.0.99)
p135
ss(Vdescription
p136
tp137
(dp138
Vpart-long-xen
p139
VThis kernel also runs on a Xen hypervisor.\u000aIt supports both privileged (dom0) and unprivileged (domU) operation.
p140
sVpart-long-up
p141
VThis kernel is not suitable for SMP (multi-processor,\u000amulti-core or hyper-threaded) systems.
p142
ss(Vbuild
p143
g24
tp144
(dp145
Vimage-file
p146
Varch/x86/boot/bzImage
p147
sVdebug-info
p148
I00
ss(Vbase
p149
g5
tp150
(dp151
Vkernel-arch
p152
Vx86
p153
sVfeaturesets
p154
(lp155
g77
ag63
asstp156
Rp157
.