ccopy_reg
_reconstructor
p0
(cdebian_linux.config
ConfigCore
p1
c__builtin__
dict
p2
(dp3
(Vdescription
p4
Vamd64
p5
Vnone
p6
Vaptosid-amd64
p7
tp8
(dp9
Vparts
p10
(lp11
Vxen
p12
ass(Vversion
p13
tp14
(dp15
Vupstream
p16
V4.5
p17
sVsource
p18
V4.5-11
p19
sVabiname_base
p20
V4.5.0
p21
sVabiname
p22
V4.5.0-3.slh.2
p23
ss(Vimage
p24
tp25
(dp26
Vtype
p27
Vplain
p28
sVinitramfs-generators
p29
(lp30
Vinitramfs-tools
p31
aVinitramfs-fallback
p32
ass(Vbase
p33
g5
g6
tp34
(dp35
Vimplicit-flavour
p36
I01
sVflavours
p37
(lp38
Vaptosid-amd64
p39
ass(Vrelations
p40
tp41
(dp42
Vgcc-5
p43
Vgcc-5
p44
sVinitramfs-fallback
p45
Vlinux-initramfs-tool
p46
sVinitramfs-tools
p47
Vinitramfs-tools (>= 0.121~)
p48
ss(Vbuild
p49
g5
tp50
(dp51
Vimage-file
p52
Varch/x86/boot/bzImage
p53
sVdebug-info
p54
I00
ss(Vbase
p55
Vi386
p56
Vnone
p57
tp58
(dp59
g36
I01
sg37
(lp60
Vaptosid-686
p61
ass(Vdescription
p62
g5
NVaptosid-amd64
p63
tp64
(dp65
Vhardware
p66
V64-bit PCs
p67
sVhardware-long
p68
VPCs with AMD64 or Intel 64 processors
p69
ss(Vxen
p70
g5
g6
Vaptosid-amd64
p71
tp72
(dp73
Vflavours
p74
(lp75
Vaptosid-amd64
p76
ass(Vimage
p77
g5
NVaptosid-amd64
p78
tp79
(dp80
Vconfigs
p81
(lp82
Vkernelarch-x86/config-arch-64
p83
ass(Vbase
p84
g5
tp85
(dp86
Vfeaturesets
p87
(lp88
Vnone
p89
ag6
asVkernel-arch
p90
Vx86
p91
ss(Vdescription
p92
tp93
(dp94
Vpart-long-up
p95
VThis kernel is not suitable for SMP (multi-processor,\u000amulti-core or hyper-threaded) systems.
p96
sVpart-long-xen
p97
VThis kernel also runs on a Xen hypervisor.\u000aIt supports both privileged (dom0) and unprivileged (domU) operation.
p98
ss(Vabi
p99
tp100
(dp101
Vabiname
p102
V3.slh.2
p103
ss(Vdescription
p104
g56
NVaptosid-686
p105
tp106
(dp107
Vhardware
p108
Vmodern PCs
p109
sVhardware-long
p110
VPCs with Intel Pentium Pro/II/III/4/4M/D/M, Xeon, Celeron, Core or Atom; AMD Geode LX/NX, Athlon (K7), Duron, Opteron, Sempron, Turion or Phenom; Transmeta Efficeon; VIA C3 "Nehemiah" or C7 processors
p111
ss(Vimage
p112
g5
tp113
(dp114
Vinstall-stem
p115
Vvmlinuz
p116
sVconfigs
p117
(lp118
sVbootloaders
p119
(lp120
Vgrub-pc
p121
aVextlinux
p122
aVgrub-efi-amd64
p123
asVsuggests
p124
Vcrda
p125
ss(Vbase
p126
g56
tp127
(dp128
Vfeaturesets
p129
(lp130
g89
ag57
asVkernel-arch
p131
Vx86
p132
ss(Vimage
p133
g56
tp134
(dp135
Vinstall-stem
p136
Vvmlinuz
p137
sVconfigs
p138
(lp139
sVbootloaders
p140
(lp141
Vgrub-pc
p142
aVextlinux
p143
aVgrub-efi-ia32
p144
asVsuggests
p145
Vcrda
p146
ss(Vbase
p147
tp148
(dp149
Vfeaturesets
p150
(lp151
Vnone
p152
asVarches
p153
(lp154
Vamd64
p155
aVi386
p156
asVcompiler
p157
Vgcc-5
p158
ss(Vbuild
p159
g56
tp160
(dp161
Vimage-file
p162
Varch/x86/boot/bzImage
p163
sVdebug-info
p164
I00
ss(Vimage
p165
g56
NVaptosid-686
p166
tp167
(dp168
Vrecommends
p169
Vlibc6-i686
p170
sVconfigs
p171
(lp172
Vkernelarch-x86/config-arch-32
p173
asstp174
Rp175
.