ccopy_reg
_reconstructor
p0
(cdebian_linux.config
ConfigCore
p1
c__builtin__
dict
p2
(dp3
(Vabi
p4
tp5
(dp6
Vabiname
p7
V9.slh.2
p8
ss(Vimage
p9
Vi386
p10
tp11
(dp12
Vsuggests
p13
Vcrda
p14
sVbreaks
p15
Vxserver-xorg-input-vmmouse (<< 1:13.0.99)
p16
sVinstall-stem
p17
Vvmlinuz
p18
sVbootloaders
p19
(lp20
Vgrub-pc
p21
aVextlinux
p22
aVgrub-efi-ia32
p23
ass(Vdescription
p24
Vamd64
p25
Vnone
p26
Vaptosid-amd64
p27
tp28
(dp29
Vparts
p30
(lp31
Vxen
p32
ass(Vdescription
p33
tp34
(dp35
Vpart-long-xen
p36
VThis kernel also runs on a Xen hypervisor.\u000aIt supports both privileged (dom0) and unprivileged (domU) operation.
p37
sVpart-long-up
p38
VThis kernel is not suitable for SMP (multi-processor,\u000amulti-core or hyper-threaded) systems.
p39
ss(Vbuild
p40
g25
tp41
(dp42
Vdebug-info
p43
I00
sVimage-file
p44
Varch/x86/boot/bzImage
p45
ss(Vbase
p46
g10
tp47
(dp48
Vfeaturesets
p49
(lp50
Vnone
p51
aVnone
p52
asVkernel-arch
p53
Vx86
p54
ss(Vbase
p55
tp56
(dp57
Vcompiler
p58
Vgcc-6
p59
sVfeaturesets
p60
(lp61
Vnone
p62
asVarches
p63
(lp64
Vamd64
p65
aVi386
p66
ass(Vversion
p67
tp68
(dp69
Vabiname
p70
V4.10.0-9.slh.2
p71
sVabiname_base
p72
V4.10.0
p73
sVupstream
p74
V4.10
p75
sVsource
p76
V4.10-15
p77
ss(Vimage
p78
g25
tp79
(dp80
Vsuggests
p81
Vcrda
p82
sVbreaks
p83
Vxserver-xorg-input-vmmouse (<< 1:13.0.99)
p84
sVinstall-stem
p85
Vvmlinuz
p86
sVbootloaders
p87
(lp88
Vgrub-pc
p89
aVextlinux
p90
aVgrub-efi-amd64
p91
ass(Vrelations
p92
tp93
(dp94
Vinitramfs-fallback
p95
Vlinux-initramfs-tool
p96
sVgcc-6
p97
Vgcc-6
p98
sVinitramfs-tools
p99
Vinitramfs-tools (>= 0.121~)
p100
ss(Vimage
p101
tp102
(dp103
Vinitramfs-generators
p104
(lp105
Vinitramfs-tools
p106
aVinitramfs-fallback
p107
ass(Vbase
p108
g25
tp109
(dp110
Vfeaturesets
p111
(lp112
g51
ag26
asVkernel-arch
p113
Vx86
p114
ss(Vbase
p115
g10
g52
tp116
(dp117
Vimplicit-flavour
p118
I01
sVflavours
p119
(lp120
Vaptosid-686
p121
ass(Vdescription
p122
g10
NVaptosid-686
p123
tp124
(dp125
Vhardware
p126
Vmodern PCs
p127
sVhardware-long
p128
VPCs with Intel Pentium Pro/II/III/4/4M/D/M, Xeon, Celeron, Core or Atom; AMD Geode LX/NX, Athlon (K7), Duron, Opteron, Sempron, Turion or Phenom; Transmeta Efficeon; VIA C3 "Nehemiah" or C7 processors
p129
ss(Vdescription
p130
g25
NVaptosid-amd64
p131
tp132
(dp133
Vhardware
p134
V64-bit PCs
p135
sVhardware-long
p136
VPCs with AMD64 or Intel 64 processors
p137
ss(Vbuild
p138
g10
tp139
(dp140
Vdebug-info
p141
I00
sVimage-file
p142
Varch/x86/boot/bzImage
p143
ss(Vbase
p144
g25
g26
tp145
(dp146
g118
I01
sg119
(lp147
Vaptosid-amd64
p148
asstp149
Rp150
.