ccopy_reg
_reconstructor
p0
(cdebian_linux.config
ConfigCore
p1
c__builtin__
dict
p2
(dp3
(Vdescription
p4
Vamd64
p5
Vnone
p6
Vaptosid-amd64
p7
tp8
(dp9
Vparts
p10
(lp11
Vxen
p12
ass(Vbase
p13
tp14
(dp15
Vfeaturesets
p16
(lp17
Vnone
p18
asVarches
p19
(lp20
Vamd64
p21
aVi386
p22
asVcompiler
p23
Vgcc-7
p24
ss(Vbase
p25
Vi386
p26
tp27
(dp28
Vfeaturesets
p29
(lp30
Vnone
p31
aVnone
p32
asVkernel-arch
p33
Vx86
p34
ss(Vversion
p35
tp36
(dp37
Vabiname
p38
V4.13.0-1.slh.1
p39
sVabiname_base
p40
V4.13.0
p41
sVupstream
p42
V4.13
p43
sVsource
p44
V4.13-3
p45
ss(Vimage
p46
tp47
(dp48
Vinitramfs-generators
p49
(lp50
Vinitramfs-tools
p51
aVinitramfs-fallback
p52
ass(Vbuild
p53
g26
tp54
(dp55
Vdebug-info
p56
I00
sVimage-file
p57
Varch/x86/boot/bzImage
p58
ss(Vimage
p59
g26
tp60
(dp61
Vbootloaders
p62
(lp63
Vgrub-pc
p64
aVextlinux
p65
aVgrub-efi-ia32
p66
asVbreaks
p67
Vxserver-xorg-input-vmmouse (<< 1:13.0.99)
p68
sVsuggests
p69
Vcrda
p70
sVinstall-stem
p71
Vvmlinuz
p72
ss(Vbase
p73
g5
tp74
(dp75
Vfeaturesets
p76
(lp77
g31
ag6
asVkernel-arch
p78
Vx86
p79
ss(Vbuild
p80
g5
tp81
(dp82
Vdebug-info
p83
I00
sVimage-file
p84
Varch/x86/boot/bzImage
p85
ss(Vbase
p86
g26
g32
tp87
(dp88
Vimplicit-flavour
p89
I01
sVflavours
p90
(lp91
Vaptosid-686
p92
ass(Vbase
p93
g5
g6
tp94
(dp95
g89
I01
sg90
(lp96
Vaptosid-amd64
p97
ass(Vdescription
p98
g26
NVaptosid-686
p99
tp100
(dp101
Vhardware-long
p102
VPCs with Intel Pentium Pro/II/III/4/4M/D/M, Xeon, Celeron, Core or Atom; AMD Geode LX/NX, Athlon (K7), Duron, Opteron, Sempron, Turion or Phenom; Transmeta Efficeon; VIA C3 "Nehemiah" or C7 processors
p103
sVhardware
p104
Vmodern PCs
p105
ss(Vimage
p106
g5
tp107
(dp108
Vbootloaders
p109
(lp110
Vgrub-pc
p111
aVextlinux
p112
aVgrub-efi-amd64
p113
asVbreaks
p114
Vxserver-xorg-input-vmmouse (<< 1:13.0.99)
p115
sVsuggests
p116
Vcrda
p117
sVinstall-stem
p118
Vvmlinuz
p119
ss(Vrelations
p120
tp121
(dp122
Vgcc-7
p123
Vgcc-7
p124
sVinitramfs-fallback
p125
Vlinux-initramfs-tool
p126
sVinitramfs-tools
p127
Vinitramfs-tools (>= 0.121~)
p128
ss(Vdescription
p129
g5
NVaptosid-amd64
p130
tp131
(dp132
Vhardware-long
p133
VPCs with AMD64 or Intel 64 processors
p134
sVhardware
p135
V64-bit PCs
p136
ss(Vabi
p137
tp138
(dp139
Vabiname
p140
V1.slh.1
p141
ss(Vdescription
p142
tp143
(dp144
Vpart-long-xen
p145
VThis kernel also runs on a Xen hypervisor.\u000aIt supports both privileged (dom0) and unprivileged (domU) operation.
p146
sVpart-long-up
p147
VThis kernel is not suitable for SMP (multi-processor,\u000amulti-core or hyper-threaded) systems.
p148
sstp149
Rp150
.