ccopy_reg
_reconstructor
p0
(cdebian_linux.config
ConfigCore
p1
c__builtin__
dict
p2
(dp3
(Vimage
p4
Vi386
p5
tp6
(dp7
Vsuggests
p8
Vcrda
p9
sVinstall-stem
p10
Vvmlinuz
p11
sVbootloaders
p12
(lp13
Vgrub-pc
p14
aVextlinux
p15
aVgrub-efi-ia32
p16
asVbreaks
p17
Vxserver-xorg-input-vmmouse (<< 1:13.0.99)
p18
ss(Vbuild
p19
g5
tp20
(dp21
Vimage-file
p22
Varch/x86/boot/bzImage
p23
sVdebug-info
p24
I00
ss(Vbase
p25
tp26
(dp27
Vfeaturesets
p28
(lp29
Vnone
p30
asVcompiler
p31
Vgcc-6
p32
sVarches
p33
(lp34
Vamd64
p35
aVi386
p36
ass(Vdescription
p37
Vamd64
p38
Vnone
p39
Vaptosid-amd64
p40
tp41
(dp42
Vparts
p43
(lp44
Vxen
p45
ass(Vimage
p46
g38
tp47
(dp48
Vsuggests
p49
Vcrda
p50
sVinstall-stem
p51
Vvmlinuz
p52
sVbootloaders
p53
(lp54
Vgrub-pc
p55
aVextlinux
p56
aVgrub-efi-amd64
p57
asVbreaks
p58
Vxserver-xorg-input-vmmouse (<< 1:13.0.99)
p59
ss(Vrelations
p60
tp61
(dp62
Vinitramfs-fallback
p63
Vlinux-initramfs-tool
p64
sVgcc-6
p65
Vgcc-6
p66
sVinitramfs-tools
p67
Vinitramfs-tools (>= 0.121~)
p68
ss(Vbase
p69
g5
Vnone
p70
tp71
(dp72
Vflavours
p73
(lp74
Vaptosid-686
p75
asVimplicit-flavour
p76
I01
ss(Vversion
p77
tp78
(dp79
Vupstream
p80
V4.12
p81
sVabiname
p82
V4.12.0-4.slh.3
p83
sVsource
p84
V4.12-10
p85
sVabiname_base
p86
V4.12.0
p87
ss(Vabi
p88
tp89
(dp90
Vabiname
p91
V4.slh.3
p92
ss(Vdescription
p93
g5
NVaptosid-686
p94
tp95
(dp96
Vhardware-long
p97
VPCs with Intel Pentium Pro/II/III/4/4M/D/M, Xeon, Celeron, Core or Atom; AMD Geode LX/NX, Athlon (K7), Duron, Opteron, Sempron, Turion or Phenom; Transmeta Efficeon; VIA C3 "Nehemiah" or C7 processors
p98
sVhardware
p99
Vmodern PCs
p100
ss(Vimage
p101
tp102
(dp103
Vinitramfs-generators
p104
(lp105
Vinitramfs-tools
p106
aVinitramfs-fallback
p107
ass(Vbase
p108
g38
tp109
(dp110
Vfeaturesets
p111
(lp112
Vnone
p113
ag39
asVkernel-arch
p114
Vx86
p115
ss(Vbuild
p116
g38
tp117
(dp118
Vimage-file
p119
Varch/x86/boot/bzImage
p120
sVdebug-info
p121
I00
ss(Vdescription
p122
g38
NVaptosid-amd64
p123
tp124
(dp125
Vhardware-long
p126
VPCs with AMD64 or Intel 64 processors
p127
sVhardware
p128
V64-bit PCs
p129
ss(Vbase
p130
g38
g39
tp131
(dp132
g73
(lp133
Vaptosid-amd64
p134
asg76
I01
ss(Vbase
p135
g5
tp136
(dp137
Vfeaturesets
p138
(lp139
g113
ag70
asVkernel-arch
p140
Vx86
p141
ss(Vdescription
p142
tp143
(dp144
Vpart-long-up
p145
VThis kernel is not suitable for SMP (multi-processor,\u000amulti-core or hyper-threaded) systems.
p146
sVpart-long-xen
p147
VThis kernel also runs on a Xen hypervisor.\u000aIt supports both privileged (dom0) and unprivileged (domU) operation.
p148
sstp149
Rp150
.