ccopy_reg
_reconstructor
p0
(cdebian_linux.config
ConfigCore
p1
c__builtin__
dict
p2
(dp3
(Vbuild
p4
Vi386
p5
tp6
(dp7
Vdebug-info
p8
I00
sVimage-file
p9
Varch/x86/boot/bzImage
p10
ss(Vdescription
p11
tp12
(dp13
Vpart-long-up
p14
VThis kernel is not suitable for SMP (multi-processor,\u000amulti-core or hyper-threaded) systems.
p15
sVpart-long-xen
p16
VThis kernel also runs on a Xen hypervisor.\u000aIt supports both privileged (dom0) and unprivileged (domU) operation.
p17
ss(Vbuild
p18
Vamd64
p19
tp20
(dp21
Vdebug-info
p22
I00
sVimage-file
p23
Varch/x86/boot/bzImage
p24
ss(Vversion
p25
tp26
(dp27
Vabiname
p28
V4.5.0-2.slh.1
p29
sVabiname_base
p30
V4.5.0
p31
sVsource
p32
V4.5-7
p33
sVupstream
p34
V4.5
p35
ss(Vbase
p36
tp37
(dp38
Vcompiler
p39
Vgcc-5
p40
sVarches
p41
(lp42
Vamd64
p43
aVi386
p44
asVfeaturesets
p45
(lp46
Vnone
p47
ass(Vxen
p48
g19
Vnone
p49
Vaptosid-amd64
p50
tp51
(dp52
Vflavours
p53
(lp54
Vaptosid-amd64
p55
ass(Vimage
p56
g19
NVaptosid-amd64
p57
tp58
(dp59
Vconfigs
p60
(lp61
Vkernelarch-x86/config-arch-64
p62
ass(Vabi
p63
tp64
(dp65
Vabiname
p66
V2.slh.1
p67
ss(Vimage
p68
tp69
(dp70
Vinitramfs-generators
p71
(lp72
Vinitramfs-tools
p73
aVinitramfs-fallback
p74
asVtype
p75
Vplain
p76
ss(Vimage
p77
g19
tp78
(dp79
Vsuggests
p80
Vcrda
p81
sVconfigs
p82
(lp83
sVbootloaders
p84
(lp85
Vgrub-pc
p86
aVextlinux
p87
aVgrub-efi-amd64
p88
asVinstall-stem
p89
Vvmlinuz
p90
ss(Vdescription
p91
g19
NVaptosid-amd64
p92
tp93
(dp94
Vhardware
p95
V64-bit PCs
p96
sVhardware-long
p97
VPCs with AMD64 or Intel 64 processors
p98
ss(Vbase
p99
g5
tp100
(dp101
Vkernel-arch
p102
Vx86
p103
sVfeaturesets
p104
(lp105
Vnone
p106
aVnone
p107
ass(Vimage
p108
g5
tp109
(dp110
Vsuggests
p111
Vcrda
p112
sVconfigs
p113
(lp114
sVbootloaders
p115
(lp116
Vgrub-pc
p117
aVextlinux
p118
aVgrub-efi-ia32
p119
asVinstall-stem
p120
Vvmlinuz
p121
ss(Vimage
p122
g5
NVaptosid-686
p123
tp124
(dp125
Vconfigs
p126
(lp127
Vkernelarch-x86/config-arch-32
p128
asVrecommends
p129
Vlibc6-i686
p130
ss(Vdescription
p131
g19
g49
Vaptosid-amd64
p132
tp133
(dp134
Vparts
p135
(lp136
Vxen
p137
ass(Vbase
p138
g5
g107
tp139
(dp140
Vflavours
p141
(lp142
Vaptosid-686
p143
asVimplicit-flavour
p144
I01
ss(Vdescription
p145
g5
NVaptosid-686
p146
tp147
(dp148
Vhardware
p149
Vmodern PCs
p150
sVhardware-long
p151
VPCs with Intel Pentium Pro/II/III/4/4M/D/M, Xeon, Celeron, Core or Atom; AMD Geode LX/NX, Athlon (K7), Duron, Opteron, Sempron, Turion or Phenom; Transmeta Efficeon; VIA C3 "Nehemiah" or C7 processors
p152
ss(Vbase
p153
g19
g49
tp154
(dp155
g141
(lp156
Vaptosid-amd64
p157
asg144
I01
ss(Vbase
p158
g19
tp159
(dp160
Vkernel-arch
p161
Vx86
p162
sVfeaturesets
p163
(lp164
g106
ag49
ass(Vrelations
p165
tp166
(dp167
Vgcc-5
p168
Vgcc-5
p169
sVinitramfs-fallback
p170
Vlinux-initramfs-tool
p171
sVinitramfs-tools
p172
Vinitramfs-tools (>= 0.121~)
p173
sstp174
Rp175
.