ccopy_reg
_reconstructor
p1
(cdebian_linux.config
ConfigCore
p2
c__builtin__
dict
p3
(dp4
(S'image'
S'amd64'
p5
tp6
(dp7
S'suggests'
p8
S'crda'
p9
sS'configs'
p10
(lp11
S'kernelarch-x86/config'
p12
asS'bootloaders'
p13
(lp14
S'grub-pc'
p15
aS'extlinux'
p16
aS'grub-efi-amd64'
p17
ass(S'base'
p18
g5
S'none'
p19
tp20
(dp21
S'implicit-flavour'
p22
I01
sS'flavours'
p23
(lp24
S'aptosid-amd64'
p25
ass(S'description'
S'i386'
p26
NS'aptosid-686'
tp27
(dp28
S'hardware'
p29
S'modern PCs'
p30
sS'hardware-long'
p31
S'PCs with Intel Pentium Pro/II/III/4/4M/D/M, Xeon, Celeron, Core or Atom; AMD Geode LX/NX, Athlon (K7), Duron, Opteron, Sempron, Turion or Phenom; Transmeta Efficeon; VIA C3 "Nehemiah" or C7 processors'
p32
ss(S'build'
g5
NS'aptosid-amd64'
tp33
(dp34
S'debug-info'
p35
I00
ss(S'base'
g5
tp36
(dp37
S'kernel-arch'
p38
S'x86'
p39
sS'featuresets'
p40
(lp41
g19
ass(S'image'
p42
tp43
(dp44
S'initramfs-generators'
p45
(lp46
S'initramfs-tools'
p47
aS'initramfs-fallback'
p48
asS'type'
p49
S'plain'
p50
ss(S'description'
g5
NS'aptosid-amd64'
tp51
(dp52
S'hardware'
p53
S'64-bit PCs'
p54
sS'hardware-long'
p55
S'PCs with AMD64 or Intel 64 processors'
p56
ss(S'image'
g5
NS'aptosid-amd64'
tp57
(dp58
S'configs'
p59
(lp60
S'kernelarch-x86/config-arch-64'
p61
ass(S'build'
g26
NS'aptosid-686'
tp62
(dp63
S'debug-info'
p64
I00
ss(S'version'
p65
tp66
(dp67
S'abiname'
p68
S'3.14-4.slh.2'
p69
sS'source'
p70
V3.14-12
p71
ss(S'base'
p72
g26
tp73
(dp74
S'kernel-arch'
p75
S'x86'
p76
sg40
(lp77
g19
ass(S'image'
g26
NS'aptosid-686'
tp78
(dp79
S'configs'
p80
(lp81
S'kernelarch-x86/config-arch-32'
p82
asS'recommends'
p83
S'libc6-i686'
p84
ss(S'abi'
p85
tp86
(dp87
S'abiname'
p88
S'4.slh.2'
p89
ss(S'image'
p90
g26
tp91
(dp92
S'suggests'
p93
S'crda'
p94
sS'configs'
p95
(lp96
S'kernelarch-x86/config'
p97
asS'bootloaders'
p98
(lp99
S'grub-pc'
p100
aS'extlinux'
p101
ass(g18
g26
g19
tp102
(dp103
g22
I01
sg23
(lp104
S'aptosid-686'
p105
ass(S'base'
p106
tp107
(dp108
S'arches'
p109
(lp110
S'amd64'
p111
aS'i386'
p112
asS'featuresets'
p113
(lp114
S'none'
p115
asS'compiler'
p116
S'gcc-4.8'
p117
ss(S'relations'
p118
tp119
(dp120
S'initramfs-fallback'
p121
S'linux-initramfs-tool'
p122
sS'lilo'
p123
S'lilo (>= 22.8-8.2~)'
p124
sS'gcc-4.8'
p125
S'gcc-4.8'
p126
sS'initramfs-tools'
p127
S'initramfs-tools (>= 0.110~)'
p128
sS'elilo'
p129
S'elilo (>= 3.12-3.1~)'
p130
sstRp131
.