ccopy_reg
_reconstructor
p0
(cdebian_linux.config
ConfigCore
p1
c__builtin__
dict
p2
(dp3
(Vdescription
p4
Vamd64
p5
NVaptosid-amd64
p6
tp7
(dp8
Vhardware
p9
V64-bit PCs
p10
sVhardware-long
p11
VPCs with AMD64 or Intel 64 processors
p12
ss(Vimage
p13
g5
tp14
(dp15
Vsuggests
p16
Vcrda
p17
sVbreaks
p18
Vxserver-xorg-input-vmmouse (<< 1:13.0.99)
p19
sVbootloaders
p20
(lp21
Vgrub-pc
p22
aVextlinux
p23
aVgrub-efi-amd64
p24
asVinstall-stem
p25
Vvmlinuz
p26
ss(Vbase
p27
Vi386
p28
tp29
(dp30
Vkernel-arch
p31
Vx86
p32
sVfeaturesets
p33
(lp34
Vnone
p35
aVnone
p36
ass(Vbuild
p37
g5
tp38
(dp39
Vimage-file
p40
Varch/x86/boot/bzImage
p41
sVdebug-info
p42
I00
ss(Vdescription
p43
g5
Vnone
p44
Vaptosid-amd64
p45
tp46
(dp47
Vparts
p48
(lp49
Vxen
p50
ass(Vbuild
p51
g28
tp52
(dp53
Vimage-file
p54
Varch/x86/boot/bzImage
p55
sVdebug-info
p56
I00
ss(Vversion
p57
tp58
(dp59
Vupstream
p60
V4.12
p61
sVabiname
p62
V4.12.0-7.slh.1
p63
sVabiname_base
p64
V4.12.0
p65
sVsource
p66
V4.12-14
p67
ss(Vbase
p68
tp69
(dp70
Varches
p71
(lp72
Vamd64
p73
aVi386
p74
asVcompiler
p75
Vgcc-7
p76
sVfeaturesets
p77
(lp78
Vnone
p79
ass(Vbase
p80
g5
tp81
(dp82
Vkernel-arch
p83
Vx86
p84
sVfeaturesets
p85
(lp86
g35
ag44
ass(Vabi
p87
tp88
(dp89
Vabiname
p90
V7.slh.1
p91
ss(Vdescription
p92
g28
NVaptosid-686
p93
tp94
(dp95
Vhardware
p96
Vmodern PCs
p97
sVhardware-long
p98
VPCs with Intel Pentium Pro/II/III/4/4M/D/M, Xeon, Celeron, Core or Atom; AMD Geode LX/NX, Athlon (K7), Duron, Opteron, Sempron, Turion or Phenom; Transmeta Efficeon; VIA C3 "Nehemiah" or C7 processors
p99
ss(Vrelations
p100
tp101
(dp102
Vinitramfs-fallback
p103
Vlinux-initramfs-tool
p104
sVinitramfs-tools
p105
Vinitramfs-tools (>= 0.121~)
p106
sVgcc-7
p107
Vgcc-7
p108
ss(Vdescription
p109
tp110
(dp111
Vpart-long-up
p112
VThis kernel is not suitable for SMP (multi-processor,\u000amulti-core or hyper-threaded) systems.
p113
sVpart-long-xen
p114
VThis kernel also runs on a Xen hypervisor.\u000aIt supports both privileged (dom0) and unprivileged (domU) operation.
p115
ss(Vimage
p116
tp117
(dp118
Vinitramfs-generators
p119
(lp120
Vinitramfs-tools
p121
aVinitramfs-fallback
p122
ass(Vimage
p123
g28
tp124
(dp125
Vsuggests
p126
Vcrda
p127
sVbreaks
p128
Vxserver-xorg-input-vmmouse (<< 1:13.0.99)
p129
sVbootloaders
p130
(lp131
Vgrub-pc
p132
aVextlinux
p133
aVgrub-efi-ia32
p134
asVinstall-stem
p135
Vvmlinuz
p136
ss(Vbase
p137
g28
g36
tp138
(dp139
Vflavours
p140
(lp141
Vaptosid-686
p142
asVimplicit-flavour
p143
I01
ss(Vbase
p144
g5
g44
tp145
(dp146
g140
(lp147
Vaptosid-amd64
p148
asg143
I01
sstp149
Rp150
.