ccopy_reg
_reconstructor
p0
(cdebian_linux.config
ConfigCore
p1
c__builtin__
dict
p2
(dp3
(Vbase
p4
Vamd64
p5
tp6
(dp7
Vfeaturesets
p8
(lp9
Vnone
p10
aVnone
p11
asVkernel-arch
p12
Vx86
p13
ss(Vdescription
p14
tp15
(dp16
Vpart-long-up
p17
VThis kernel is not suitable for SMP (multi-processor,\u000amulti-core or hyper-threaded) systems.
p18
sVpart-long-xen
p19
VThis kernel also runs on a Xen hypervisor.\u000aIt supports both privileged (dom0) and unprivileged (domU) operation.
p20
ss(Vrelations
p21
tp22
(dp23
Vgcc-6
p24
Vgcc-6
p25
sVinitramfs-fallback
p26
Vlinux-initramfs-tool
p27
sVinitramfs-tools
p28
Vinitramfs-tools (>= 0.121~)
p29
ss(Vbase
p30
g5
g11
tp31
(dp32
Vimplicit-flavour
p33
I01
sVflavours
p34
(lp35
Vaptosid-amd64
p36
ass(Vbase
p37
Vi386
p38
Vnone
p39
tp40
(dp41
g33
I01
sg34
(lp42
Vaptosid-686
p43
ass(Vbuild
p44
g5
tp45
(dp46
Vimage-file
p47
Varch/x86/boot/bzImage
p48
sVdebug-info
p49
I00
ss(Vbase
p50
g38
tp51
(dp52
Vfeaturesets
p53
(lp54
g10
ag39
asVkernel-arch
p55
Vx86
p56
ss(Vimage
p57
g38
tp58
(dp59
Vsuggests
p60
Vcrda
p61
sVbootloaders
p62
(lp63
Vgrub-pc
p64
aVextlinux
p65
aVgrub-efi-ia32
p66
asVinstall-stem
p67
Vvmlinuz
p68
sVbreaks
p69
Vxserver-xorg-input-vmmouse (<< 1:13.0.99)
p70
ss(Vbuild
p71
g38
tp72
(dp73
Vimage-file
p74
Varch/x86/boot/bzImage
p75
sVdebug-info
p76
I00
ss(Vdescription
p77
g38
NVaptosid-686
p78
tp79
(dp80
Vhardware
p81
Vmodern PCs
p82
sVhardware-long
p83
VPCs with Intel Pentium Pro/II/III/4/4M/D/M, Xeon, Celeron, Core or Atom; AMD Geode LX/NX, Athlon (K7), Duron, Opteron, Sempron, Turion or Phenom; Transmeta Efficeon; VIA C3 "Nehemiah" or C7 processors
p84
ss(Vbase
p85
tp86
(dp87
Vcompiler
p88
Vgcc-6
p89
sVfeaturesets
p90
(lp91
Vnone
p92
asVarches
p93
(lp94
Vamd64
p95
aVi386
p96
ass(Vimage
p97
g5
tp98
(dp99
Vsuggests
p100
Vcrda
p101
sVbootloaders
p102
(lp103
Vgrub-pc
p104
aVextlinux
p105
aVgrub-efi-amd64
p106
asVinstall-stem
p107
Vvmlinuz
p108
sVbreaks
p109
Vxserver-xorg-input-vmmouse (<< 1:13.0.99)
p110
ss(Vdescription
p111
g5
g11
Vaptosid-amd64
p112
tp113
(dp114
Vparts
p115
(lp116
Vxen
p117
ass(Vdescription
p118
g5
NVaptosid-amd64
p119
tp120
(dp121
Vhardware
p122
V64-bit PCs
p123
sVhardware-long
p124
VPCs with AMD64 or Intel 64 processors
p125
ss(Vimage
p126
tp127
(dp128
Vinitramfs-generators
p129
(lp130
Vinitramfs-tools
p131
aVinitramfs-fallback
p132
ass(Vversion
p133
tp134
(dp135
Vabiname_base
p136
V4.7.0
p137
sVsource
p138
V4.7-9
p139
sVabiname
p140
V4.7.0-1.slh.2
p141
sVupstream
p142
V4.7
p143
ss(Vxen
p144
g5
g11
Vaptosid-amd64
p145
tp146
(dp147
Vflavours
p148
(lp149
Vaptosid-amd64
p150
ass(Vabi
p151
tp152
(dp153
Vabiname
p154
V1.slh.2
p155
sstp156
Rp157
.