ccopy_reg
_reconstructor
p0
(cdebian_linux.config
ConfigCore
p1
c__builtin__
dict
p2
(dp3
(Vbase
p4
Vi386
p5
tp6
(dp7
Vkernel-arch
p8
Vx86
p9
sVfeaturesets
p10
(lp11
Vnone
p12
aVnone
p13
ass(Vbase
p14
g5
g13
tp15
(dp16
Vimplicit-flavour
p17
I01
sVflavours
p18
(lp19
Vaptosid-686
p20
ass(Vbase
p21
Vamd64
p22
tp23
(dp24
Vkernel-arch
p25
Vx86
p26
sVfeaturesets
p27
(lp28
g12
aVnone
p29
ass(Vversion
p30
tp31
(dp32
Vabiname
p33
V4.4.0-2.slh.2
p34
sVsource
p35
V4.4-11
p36
sVupstream
p37
V4.4
p38
sVabiname_base
p39
V4.4.0
p40
ss(Vbase
p41
g22
g29
tp42
(dp43
g17
I01
sg18
(lp44
Vaptosid-amd64
p45
ass(Vdescription
p46
g5
NVaptosid-686
p47
tp48
(dp49
Vhardware-long
p50
VPCs with Intel Pentium Pro/II/III/4/4M/D/M, Xeon, Celeron, Core or Atom; AMD Geode LX/NX, Athlon (K7), Duron, Opteron, Sempron, Turion or Phenom; Transmeta Efficeon; VIA C3 "Nehemiah" or C7 processors
p51
sVhardware
p52
Vmodern PCs
p53
ss(Vbuild
p54
g5
tp55
(dp56
Vdebug-info
p57
I00
sVimage-file
p58
Varch/x86/boot/bzImage
p59
ss(Vxen
p60
g22
g29
Vaptosid-amd64
p61
tp62
(dp63
Vflavours
p64
(lp65
Vaptosid-amd64
p66
ass(Vimage
p67
g22
tp68
(dp69
Vsuggests
p70
Vcrda
p71
sVconfigs
p72
(lp73
sVbootloaders
p74
(lp75
Vgrub-pc
p76
aVextlinux
p77
aVgrub-efi-amd64
p78
asVinstall-stem
p79
Vvmlinuz
p80
ss(Vdescription
p81
g22
g29
Vaptosid-amd64
p82
tp83
(dp84
Vparts
p85
(lp86
Vxen
p87
ass(Vdescription
p88
g22
NVaptosid-amd64
p89
tp90
(dp91
Vhardware-long
p92
VPCs with AMD64 or Intel 64 processors
p93
sVhardware
p94
V64-bit PCs
p95
ss(Vimage
p96
tp97
(dp98
Vinitramfs-generators
p99
(lp100
Vinitramfs-tools
p101
aVinitramfs-fallback
p102
asVtype
p103
Vplain
p104
ss(Vabi
p105
tp106
(dp107
Vabiname
p108
V2.slh.2
p109
ss(Vimage
p110
g22
NVaptosid-amd64
p111
tp112
(dp113
Vconfigs
p114
(lp115
Vkernelarch-x86/config-arch-64
p116
ass(Vimage
p117
g5
tp118
(dp119
Vsuggests
p120
Vcrda
p121
sVconfigs
p122
(lp123
sVbootloaders
p124
(lp125
Vgrub-pc
p126
aVextlinux
p127
aVgrub-efi-ia32
p128
asVinstall-stem
p129
Vvmlinuz
p130
ss(Vimage
p131
g5
NVaptosid-686
p132
tp133
(dp134
Vrecommends
p135
Vlibc6-i686
p136
sVconfigs
p137
(lp138
Vkernelarch-x86/config-arch-32
p139
ass(Vbuild
p140
g22
tp141
(dp142
Vdebug-info
p143
I00
sVimage-file
p144
Varch/x86/boot/bzImage
p145
ss(Vbase
p146
tp147
(dp148
Vcompiler
p149
Vgcc-5
p150
sVfeaturesets
p151
(lp152
Vnone
p153
asVarches
p154
(lp155
Vamd64
p156
aVi386
p157
ass(Vdescription
p158
tp159
(dp160
Vpart-long-xen
p161
VThis kernel also runs on a Xen hypervisor.\u000aIt supports both privileged (dom0) and unprivileged (domU) operation.
p162
sVpart-long-up
p163
VThis kernel is not suitable for SMP (multi-processor,\u000amulti-core or hyper-threaded) systems.
p164
ss(Vrelations
p165
tp166
(dp167
Vgcc-5
p168
Vgcc-5
p169
sVinitramfs-fallback
p170
Vlinux-initramfs-tool
p171
sVinitramfs-tools
p172
Vinitramfs-tools (>= 0.118+c0.aptosid.1~)
p173
sstp174
Rp175
.