ccopy_reg
_reconstructor
p0
(cdebian_linux.config
ConfigCore
p1
c__builtin__
dict
p2
(dp3
(Vrelations
p4
tp5
(dp6
Vinitramfs-tools
p7
Vinitramfs-tools (>= 0.121~)
p8
sVgcc-6
p9
Vgcc-6
p10
sVinitramfs-fallback
p11
Vlinux-initramfs-tool
p12
ss(Vbase
p13
Vamd64
p14
Vnone
p15
tp16
(dp17
Vflavours
p18
(lp19
Vaptosid-amd64
p20
asVimplicit-flavour
p21
I01
ss(Vimage
p22
tp23
(dp24
Vinitramfs-generators
p25
(lp26
Vinitramfs-tools
p27
aVinitramfs-fallback
p28
ass(Vdescription
p29
g14
g15
Vaptosid-amd64
p30
tp31
(dp32
Vparts
p33
(lp34
Vxen
p35
ass(Vbase
p36
tp37
(dp38
Varches
p39
(lp40
Vamd64
p41
aVi386
p42
asVcompiler
p43
Vgcc-6
p44
sVfeaturesets
p45
(lp46
Vnone
p47
ass(Vbase
p48
Vi386
p49
tp50
(dp51
Vfeaturesets
p52
(lp53
Vnone
p54
aVnone
p55
asVkernel-arch
p56
Vx86
p57
ss(Vversion
p58
tp59
(dp60
Vabiname
p61
V4.11.0-7.slh.3
p62
sVabiname_base
p63
V4.11.0
p64
sVsource
p65
V4.11-16
p66
sVupstream
p67
V4.11
p68
ss(Vdescription
p69
g49
NVaptosid-686
p70
tp71
(dp72
Vhardware-long
p73
VPCs with Intel Pentium Pro/II/III/4/4M/D/M, Xeon, Celeron, Core or Atom; AMD Geode LX/NX, Athlon (K7), Duron, Opteron, Sempron, Turion or Phenom; Transmeta Efficeon; VIA C3 "Nehemiah" or C7 processors
p74
sVhardware
p75
Vmodern PCs
p76
ss(Vbase
p77
g14
tp78
(dp79
Vfeaturesets
p80
(lp81
g54
ag15
asVkernel-arch
p82
Vx86
p83
ss(Vbuild
p84
g49
tp85
(dp86
Vimage-file
p87
Varch/x86/boot/bzImage
p88
sVdebug-info
p89
I00
ss(Vdescription
p90
g14
NVaptosid-amd64
p91
tp92
(dp93
Vhardware-long
p94
VPCs with AMD64 or Intel 64 processors
p95
sVhardware
p96
V64-bit PCs
p97
ss(Vbase
p98
g49
g55
tp99
(dp100
g18
(lp101
Vaptosid-686
p102
asg21
I01
ss(Vdescription
p103
tp104
(dp105
Vpart-long-up
p106
VThis kernel is not suitable for SMP (multi-processor,\u000amulti-core or hyper-threaded) systems.
p107
sVpart-long-xen
p108
VThis kernel also runs on a Xen hypervisor.\u000aIt supports both privileged (dom0) and unprivileged (domU) operation.
p109
ss(Vimage
p110
g14
tp111
(dp112
Vinstall-stem
p113
Vvmlinuz
p114
sVbreaks
p115
Vxserver-xorg-input-vmmouse (<< 1:13.0.99)
p116
sVsuggests
p117
Vcrda
p118
sVbootloaders
p119
(lp120
Vgrub-pc
p121
aVextlinux
p122
aVgrub-efi-amd64
p123
ass(Vabi
p124
tp125
(dp126
Vabiname
p127
V7.slh.3
p128
ss(Vbuild
p129
g14
tp130
(dp131
Vimage-file
p132
Varch/x86/boot/bzImage
p133
sVdebug-info
p134
I00
ss(Vimage
p135
g49
tp136
(dp137
Vinstall-stem
p138
Vvmlinuz
p139
sVbreaks
p140
Vxserver-xorg-input-vmmouse (<< 1:13.0.99)
p141
sVsuggests
p142
Vcrda
p143
sVbootloaders
p144
(lp145
Vgrub-pc
p146
aVextlinux
p147
aVgrub-efi-ia32
p148
asstp149
Rp150
.