ccopy_reg
_reconstructor
p0
(cdebian_linux.config
ConfigCore
p1
c__builtin__
dict
p2
(dp3
(Vdescription
p4
Vamd64
p5
NVaptosid-amd64
p6
tp7
(dp8
Vhardware-long
p9
VPCs with AMD64 or Intel 64 processors
p10
sVhardware
p11
V64-bit PCs
p12
ss(Vbase
p13
Vi386
p14
tp15
(dp16
Vfeaturesets
p17
(lp18
Vnone
p19
aVnone
p20
asVkernel-arch
p21
Vx86
p22
ss(Vimage
p23
tp24
(dp25
Vinitramfs-generators
p26
(lp27
Vinitramfs-tools
p28
aVinitramfs-fallback
p29
ass(Vdescription
p30
g14
NVaptosid-686
p31
tp32
(dp33
Vhardware-long
p34
VPCs with Intel Pentium Pro/II/III/4/4M/D/M, Xeon, Celeron, Core or Atom; AMD Geode LX/NX, Athlon (K7), Duron, Opteron, Sempron, Turion or Phenom; Transmeta Efficeon; VIA C3 "Nehemiah" or C7 processors
p35
sVhardware
p36
Vmodern PCs
p37
ss(Vbase
p38
g5
tp39
(dp40
Vfeaturesets
p41
(lp42
g19
aVnone
p43
asVkernel-arch
p44
Vx86
p45
ss(Vversion
p46
tp47
(dp48
Vabiname
p49
V4.13.0-0.slh.2
p50
sVabiname_base
p51
V4.13.0
p52
sVsource
p53
V4.13-2
p54
sVupstream
p55
V4.13
p56
ss(Vdescription
p57
tp58
(dp59
Vpart-long-up
p60
VThis kernel is not suitable for SMP (multi-processor,\u000amulti-core or hyper-threaded) systems.
p61
sVpart-long-xen
p62
VThis kernel also runs on a Xen hypervisor.\u000aIt supports both privileged (dom0) and unprivileged (domU) operation.
p63
ss(Vbuild
p64
g5
tp65
(dp66
Vimage-file
p67
Varch/x86/boot/bzImage
p68
sVdebug-info
p69
I00
ss(Vimage
p70
g5
tp71
(dp72
Vsuggests
p73
Vcrda
p74
sVinstall-stem
p75
Vvmlinuz
p76
sVbootloaders
p77
(lp78
Vgrub-pc
p79
aVextlinux
p80
aVgrub-efi-amd64
p81
asVbreaks
p82
Vxserver-xorg-input-vmmouse (<< 1:13.0.99)
p83
ss(Vbase
p84
g5
g43
tp85
(dp86
Vflavours
p87
(lp88
Vaptosid-amd64
p89
asVimplicit-flavour
p90
I01
ss(Vdescription
p91
g5
g43
Vaptosid-amd64
p92
tp93
(dp94
Vparts
p95
(lp96
Vxen
p97
ass(Vbase
p98
tp99
(dp100
Varches
p101
(lp102
Vamd64
p103
aVi386
p104
asVcompiler
p105
Vgcc-7
p106
sVfeaturesets
p107
(lp108
Vnone
p109
ass(Vrelations
p110
tp111
(dp112
Vinitramfs-fallback
p113
Vlinux-initramfs-tool
p114
sVgcc-7
p115
Vgcc-7
p116
sVinitramfs-tools
p117
Vinitramfs-tools (>= 0.121~)
p118
ss(Vimage
p119
g14
tp120
(dp121
Vsuggests
p122
Vcrda
p123
sVinstall-stem
p124
Vvmlinuz
p125
sVbootloaders
p126
(lp127
Vgrub-pc
p128
aVextlinux
p129
aVgrub-efi-ia32
p130
asVbreaks
p131
Vxserver-xorg-input-vmmouse (<< 1:13.0.99)
p132
ss(Vabi
p133
tp134
(dp135
Vabiname
p136
V0.slh.2
p137
ss(Vbase
p138
g14
g20
tp139
(dp140
g87
(lp141
Vaptosid-686
p142
asg90
I01
ss(Vbuild
p143
g14
tp144
(dp145
Vimage-file
p146
Varch/x86/boot/bzImage
p147
sVdebug-info
p148
I00
sstp149
Rp150
.