ccopy_reg
_reconstructor
p0
(cdebian_linux.config
ConfigCore
p1
c__builtin__
dict
p2
(dp3
(Vdescription
p4
tp5
(dp6
Vpart-long-up
p7
VThis kernel is not suitable for SMP (multi-processor,\u000amulti-core or hyper-threaded) systems.
p8
sVpart-long-xen
p9
VThis kernel also runs on a Xen hypervisor.\u000aIt supports both privileged (dom0) and unprivileged (domU) operation.
p10
ss(Vdescription
p11
Vamd64
p12
NVaptosid-amd64
p13
tp14
(dp15
Vhardware-long
p16
VPCs with AMD64 or Intel 64 processors
p17
sVhardware
p18
V64-bit PCs
p19
ss(Vbase
p20
g12
tp21
(dp22
Vkernel-arch
p23
Vx86
p24
sVfeaturesets
p25
(lp26
Vnone
p27
aVnone
p28
ass(Vbuild
p29
g12
tp30
(dp31
Vimage-file
p32
Varch/x86/boot/bzImage
p33
sVdebug-info
p34
I00
ss(Vimage
p35
Vi386
p36
tp37
(dp38
Vinstall-stem
p39
Vvmlinuz
p40
sVsuggests
p41
Vcrda
p42
sVbootloaders
p43
(lp44
Vgrub-pc
p45
aVextlinux
p46
aVgrub-efi-ia32
p47
asVconfigs
p48
(lp49
ss(Vbase
p50
g12
g28
tp51
(dp52
Vimplicit-flavour
p53
I01
sVflavours
p54
(lp55
Vaptosid-amd64
p56
ass(Vbase
p57
g36
Vnone
p58
tp59
(dp60
g53
I01
sg54
(lp61
Vaptosid-686
p62
ass(Vdescription
p63
g36
NVaptosid-686
p64
tp65
(dp66
Vhardware-long
p67
VPCs with Intel Pentium Pro/II/III/4/4M/D/M, Xeon, Celeron, Core or Atom; AMD Geode LX/NX, Athlon (K7), Duron, Opteron, Sempron, Turion or Phenom; Transmeta Efficeon; VIA C3 "Nehemiah" or C7 processors
p68
sVhardware
p69
Vmodern PCs
p70
ss(Vversion
p71
tp72
(dp73
Vabiname
p74
V4.6.0-0.slh.2
p75
sVabiname_base
p76
V4.6.0
p77
sVupstream
p78
V4.6
p79
sVsource
p80
V4.6-2
p81
ss(Vdescription
p82
g12
g28
Vaptosid-amd64
p83
tp84
(dp85
Vparts
p86
(lp87
Vxen
p88
ass(Vimage
p89
g12
NVaptosid-amd64
p90
tp91
(dp92
Vconfigs
p93
(lp94
Vkernelarch-x86/config-arch-64
p95
ass(Vabi
p96
tp97
(dp98
Vabiname
p99
V0.slh.2
p100
ss(Vxen
p101
g12
g28
Vaptosid-amd64
p102
tp103
(dp104
Vflavours
p105
(lp106
Vaptosid-amd64
p107
ass(Vbuild
p108
g36
tp109
(dp110
Vimage-file
p111
Varch/x86/boot/bzImage
p112
sVdebug-info
p113
I00
ss(Vbase
p114
tp115
(dp116
Vfeaturesets
p117
(lp118
Vnone
p119
asVcompiler
p120
Vgcc-5
p121
sVarches
p122
(lp123
Vamd64
p124
aVi386
p125
ass(Vbase
p126
g36
tp127
(dp128
Vkernel-arch
p129
Vx86
p130
sVfeaturesets
p131
(lp132
g27
ag58
ass(Vrelations
p133
tp134
(dp135
Vgcc-5
p136
Vgcc-5
p137
sVinitramfs-fallback
p138
Vlinux-initramfs-tool
p139
sVinitramfs-tools
p140
Vinitramfs-tools (>= 0.121~)
p141
ss(Vimage
p142
tp143
(dp144
Vtype
p145
Vplain
p146
sVinitramfs-generators
p147
(lp148
Vinitramfs-tools
p149
aVinitramfs-fallback
p150
ass(Vimage
p151
g12
tp152
(dp153
Vinstall-stem
p154
Vvmlinuz
p155
sVsuggests
p156
Vcrda
p157
sVbootloaders
p158
(lp159
Vgrub-pc
p160
aVextlinux
p161
aVgrub-efi-amd64
p162
asVconfigs
p163
(lp164
ss(Vimage
p165
g36
NVaptosid-686
p166
tp167
(dp168
Vrecommends
p169
Vlibc6-i686
p170
sVconfigs
p171
(lp172
Vkernelarch-x86/config-arch-32
p173
asstp174
Rp175
.