ccopy_reg
_reconstructor
p0
(cdebian_linux.config
ConfigCore
p1
c__builtin__
dict
p2
(dp3
(Vimage
p4
Vi386
p5
NVaptosid-686
p6
tp7
(dp8
Vrecommends
p9
Vlibc6-i686
p10
sVconfigs
p11
(lp12
Vkernelarch-x86/config-arch-32
p13
ass(Vversion
p14
tp15
(dp16
Vupstream
p17
V4.4
p18
sVsource
p19
V4.4-11
p20
sVabiname
p21
V4.4.0-2.slh.2
p22
sVabiname_base
p23
V4.4.0
p24
ss(Vimage
p25
Vamd64
p26
NVaptosid-amd64
p27
tp28
(dp29
Vconfigs
p30
(lp31
Vkernelarch-x86/config-arch-64
p32
ass(Vimage
p33
tp34
(dp35
Vinitramfs-generators
p36
(lp37
Vinitramfs-tools
p38
aVinitramfs-fallback
p39
asVtype
p40
Vplain
p41
ss(Vdescription
p42
g26
Vnone
p43
Vaptosid-amd64
p44
tp45
(dp46
Vparts
p47
(lp48
Vxen
p49
ass(Vdescription
p50
g26
NVaptosid-amd64
p51
tp52
(dp53
Vhardware
p54
V64-bit PCs
p55
sVhardware-long
p56
VPCs with AMD64 or Intel 64 processors
p57
ss(Vxen
p58
g26
g43
Vaptosid-amd64
p59
tp60
(dp61
Vflavours
p62
(lp63
Vaptosid-amd64
p64
ass(Vdescription
p65
g5
NVaptosid-686
p66
tp67
(dp68
Vhardware
p69
Vmodern PCs
p70
sVhardware-long
p71
VPCs with Intel Pentium Pro/II/III/4/4M/D/M, Xeon, Celeron, Core or Atom; AMD Geode LX/NX, Athlon (K7), Duron, Opteron, Sempron, Turion or Phenom; Transmeta Efficeon; VIA C3 "Nehemiah" or C7 processors
p72
ss(Vrelations
p73
tp74
(dp75
Vinitramfs-fallback
p76
Vlinux-initramfs-tool
p77
sVinitramfs-tools
p78
Vinitramfs-tools (>= 0.118+c0.aptosid.1~)
p79
sVgcc-5
p80
Vgcc-5
p81
ss(Vimage
p82
g5
tp83
(dp84
Vinstall-stem
p85
Vvmlinuz
p86
sVbootloaders
p87
(lp88
Vgrub-pc
p89
aVextlinux
p90
aVgrub-efi-ia32
p91
asVsuggests
p92
Vcrda
p93
sVconfigs
p94
(lp95
ss(Vbase
p96
g5
tp97
(dp98
Vfeaturesets
p99
(lp100
Vnone
p101
aVnone
p102
asVkernel-arch
p103
Vx86
p104
ss(Vbuild
p105
g26
tp106
(dp107
Vdebug-info
p108
I00
sVimage-file
p109
Varch/x86/boot/bzImage
p110
ss(Vabi
p111
tp112
(dp113
Vabiname
p114
V2.slh.2
p115
ss(Vbase
p116
tp117
(dp118
Vfeaturesets
p119
(lp120
Vnone
p121
asVcompiler
p122
Vgcc-5
p123
sVarches
p124
(lp125
Vamd64
p126
aVi386
p127
ass(Vbase
p128
g26
g43
tp129
(dp130
Vimplicit-flavour
p131
I01
sVflavours
p132
(lp133
Vaptosid-amd64
p134
ass(Vbuild
p135
g5
tp136
(dp137
Vdebug-info
p138
I00
sVimage-file
p139
Varch/x86/boot/bzImage
p140
ss(Vbase
p141
g5
g102
tp142
(dp143
g131
I01
sg132
(lp144
Vaptosid-686
p145
ass(Vdescription
p146
tp147
(dp148
Vpart-long-up
p149
VThis kernel is not suitable for SMP (multi-processor,\u000amulti-core or hyper-threaded) systems.
p150
sVpart-long-xen
p151
VThis kernel also runs on a Xen hypervisor.\u000aIt supports both privileged (dom0) and unprivileged (domU) operation.
p152
ss(Vbase
p153
g26
tp154
(dp155
Vfeaturesets
p156
(lp157
g101
ag43
asVkernel-arch
p158
Vx86
p159
ss(Vimage
p160
g26
tp161
(dp162
Vinstall-stem
p163
Vvmlinuz
p164
sVbootloaders
p165
(lp166
Vgrub-pc
p167
aVextlinux
p168
aVgrub-efi-amd64
p169
asVsuggests
p170
Vcrda
p171
sVconfigs
p172
(lp173
sstp174
Rp175
.