ccopy_reg
_reconstructor
p0
(cdebian_linux.config
ConfigCore
p1
c__builtin__
dict
p2
(dp3
(Vbase
p4
Vamd64
p5
Vnone
p6
tp7
(dp8
Vflavours
p9
(lp10
Vaptosid-amd64
p11
asVimplicit-flavour
p12
I01
ss(Vdescription
p13
g5
NVaptosid-amd64
p14
tp15
(dp16
Vhardware
p17
V64-bit PCs
p18
sVhardware-long
p19
VPCs with AMD64 or Intel 64 processors
p20
ss(Vimage
p21
g5
tp22
(dp23
Vbreaks
p24
Vxserver-xorg-input-vmmouse (<< 1:13.0.99)
p25
sVsuggests
p26
Vcrda
p27
sVbootloaders
p28
(lp29
Vgrub-pc
p30
aVextlinux
p31
aVgrub-efi-amd64
p32
asVinstall-stem
p33
Vvmlinuz
p34
ss(Vversion
p35
tp36
(dp37
Vabiname_base
p38
V4.9.0
p39
sVsource
p40
V4.9-13
p41
sVupstream
p42
V4.9
p43
sVabiname
p44
V4.9.0-8.slh.1
p45
ss(Vbase
p46
Vi386
p47
Vnone
p48
tp49
(dp50
g9
(lp51
Vaptosid-686
p52
asg12
I01
ss(Vdescription
p53
tp54
(dp55
Vpart-long-up
p56
VThis kernel is not suitable for SMP (multi-processor,\u000amulti-core or hyper-threaded) systems.
p57
sVpart-long-xen
p58
VThis kernel also runs on a Xen hypervisor.\u000aIt supports both privileged (dom0) and unprivileged (domU) operation.
p59
ss(Vbase
p60
g47
tp61
(dp62
Vfeaturesets
p63
(lp64
Vnone
p65
ag48
asVkernel-arch
p66
Vx86
p67
ss(Vabi
p68
tp69
(dp70
Vabiname
p71
V8.slh.1
p72
ss(Vdescription
p73
g5
g6
Vaptosid-amd64
p74
tp75
(dp76
Vparts
p77
(lp78
Vxen
p79
ass(Vimage
p80
tp81
(dp82
Vinitramfs-generators
p83
(lp84
Vinitramfs-tools
p85
aVinitramfs-fallback
p86
ass(Vbase
p87
tp88
(dp89
Vfeaturesets
p90
(lp91
Vnone
p92
asVarches
p93
(lp94
Vamd64
p95
aVi386
p96
asVcompiler
p97
Vgcc-6
p98
ss(Vbuild
p99
g5
tp100
(dp101
Vimage-file
p102
Varch/x86/boot/bzImage
p103
sVdebug-info
p104
I00
ss(Vrelations
p105
tp106
(dp107
Vinitramfs-tools
p108
Vinitramfs-tools (>= 0.121~)
p109
sVgcc-6
p110
Vgcc-6
p111
sVinitramfs-fallback
p112
Vlinux-initramfs-tool
p113
ss(Vbase
p114
g5
tp115
(dp116
Vfeaturesets
p117
(lp118
g65
ag6
asVkernel-arch
p119
Vx86
p120
ss(Vdescription
p121
g47
NVaptosid-686
p122
tp123
(dp124
Vhardware
p125
Vmodern PCs
p126
sVhardware-long
p127
VPCs with Intel Pentium Pro/II/III/4/4M/D/M, Xeon, Celeron, Core or Atom; AMD Geode LX/NX, Athlon (K7), Duron, Opteron, Sempron, Turion or Phenom; Transmeta Efficeon; VIA C3 "Nehemiah" or C7 processors
p128
ss(Vimage
p129
g47
tp130
(dp131
Vbreaks
p132
Vxserver-xorg-input-vmmouse (<< 1:13.0.99)
p133
sVsuggests
p134
Vcrda
p135
sVbootloaders
p136
(lp137
Vgrub-pc
p138
aVextlinux
p139
aVgrub-efi-ia32
p140
asVinstall-stem
p141
Vvmlinuz
p142
ss(Vbuild
p143
g47
tp144
(dp145
Vimage-file
p146
Varch/x86/boot/bzImage
p147
sVdebug-info
p148
I00
sstp149
Rp150
.