ccopy_reg
_reconstructor
p0
(cdebian_linux.config
ConfigCore
p1
c__builtin__
dict
p2
(dp3
(Vbase
p4
Vi386
p5
Vnone
p6
tp7
(dp8
Vflavours
p9
(lp10
Vaptosid-686
p11
asVimplicit-flavour
p12
I01
ss(Vdescription
p13
g5
NVaptosid-686
p14
tp15
(dp16
Vhardware
p17
Vmodern PCs
p18
sVhardware-long
p19
VPCs with Intel Pentium Pro/II/III/4/4M/D/M, Xeon, Celeron, Core or Atom; AMD Geode LX/NX, Athlon (K7), Duron, Opteron, Sempron, Turion or Phenom; Transmeta Efficeon; VIA C3 "Nehemiah" or C7 processors
p20
ss(Vbuild
p21
g5
tp22
(dp23
Vdebug-info
p24
I00
sVimage-file
p25
Varch/x86/boot/bzImage
p26
ss(Vimage
p27
g5
tp28
(dp29
Vconfigs
p30
(lp31
sVsuggests
p32
Vcrda
p33
sVinstall-stem
p34
Vvmlinuz
p35
sVbootloaders
p36
(lp37
Vgrub-pc
p38
aVextlinux
p39
aVgrub-efi-ia32
p40
ass(Vimage
p41
Vamd64
p42
tp43
(dp44
Vconfigs
p45
(lp46
sVsuggests
p47
Vcrda
p48
sVinstall-stem
p49
Vvmlinuz
p50
sVbootloaders
p51
(lp52
Vgrub-pc
p53
aVextlinux
p54
aVgrub-efi-amd64
p55
ass(Vbase
p56
tp57
(dp58
Vcompiler
p59
Vgcc-5
p60
sVarches
p61
(lp62
Vamd64
p63
aVi386
p64
asVfeaturesets
p65
(lp66
Vnone
p67
ass(Vimage
p68
g5
NVaptosid-686
p69
tp70
(dp71
Vrecommends
p72
Vlibc6-i686
p73
sVconfigs
p74
(lp75
Vkernelarch-x86/config-arch-32
p76
ass(Vdescription
p77
g42
NVaptosid-amd64
p78
tp79
(dp80
Vhardware
p81
V64-bit PCs
p82
sVhardware-long
p83
VPCs with AMD64 or Intel 64 processors
p84
ss(Vrelations
p85
tp86
(dp87
Vgcc-5
p88
Vgcc-5
p89
sVinitramfs-fallback
p90
Vlinux-initramfs-tool
p91
sVinitramfs-tools
p92
Vinitramfs-tools (>= 0.118+c0.aptosid.1~)
p93
ss(Vbuild
p94
g42
tp95
(dp96
Vdebug-info
p97
I00
sVimage-file
p98
Varch/x86/boot/bzImage
p99
ss(Vversion
p100
tp101
(dp102
Vabiname_base
p103
V4.4.0
p104
sVsource
p105
V4.4-7
p106
sVupstream
p107
V4.4
p108
sVabiname
p109
V4.4.0-1.slh.3
p110
ss(Vbase
p111
g42
Vnone
p112
tp113
(dp114
g9
(lp115
Vaptosid-amd64
p116
asg12
I01
ss(Vbase
p117
g42
tp118
(dp119
Vkernel-arch
p120
Vx86
p121
sVfeaturesets
p122
(lp123
Vnone
p124
ag112
ass(Vbase
p125
g5
tp126
(dp127
Vkernel-arch
p128
Vx86
p129
sVfeaturesets
p130
(lp131
g124
ag6
ass(Vdescription
p132
g42
g112
Vaptosid-amd64
p133
tp134
(dp135
Vparts
p136
(lp137
Vxen
p138
ass(Vdescription
p139
tp140
(dp141
Vpart-long-xen
p142
VThis kernel also runs on a Xen hypervisor.\u000aIt supports both privileged (dom0) and unprivileged (domU) operation.
p143
sVpart-long-up
p144
VThis kernel is not suitable for SMP (multi-processor,\u000amulti-core or hyper-threaded) systems.
p145
ss(Vabi
p146
tp147
(dp148
Vabiname
p149
V1.slh.3
p150
ss(Vimage
p151
tp152
(dp153
Vinitramfs-generators
p154
(lp155
Vinitramfs-tools
p156
aVinitramfs-fallback
p157
asVtype
p158
Vplain
p159
ss(Vxen
p160
g42
g112
Vaptosid-amd64
p161
tp162
(dp163
Vflavours
p164
(lp165
Vaptosid-amd64
p166
ass(Vimage
p167
g42
NVaptosid-amd64
p168
tp169
(dp170
Vconfigs
p171
(lp172
Vkernelarch-x86/config-arch-64
p173
asstp174
Rp175
.