ccopy_reg
_reconstructor
p0
(cdebian_linux.config
ConfigCore
p1
c__builtin__
dict
p2
(dp3
(Vdescription
p4
Vamd64
p5
NVaptosid-amd64
p6
tp7
(dp8
Vhardware-long
p9
VPCs with AMD64 or Intel 64 processors
p10
sVhardware
p11
V64-bit PCs
p12
ss(Vbase
p13
g5
Vnone
p14
tp15
(dp16
Vflavours
p17
(lp18
Vaptosid-amd64
p19
asVimplicit-flavour
p20
I01
ss(Vbase
p21
tp22
(dp23
Vcompiler
p24
Vgcc-6
p25
sVarches
p26
(lp27
Vamd64
p28
aVi386
p29
asVfeaturesets
p30
(lp31
Vnone
p32
ass(Vdescription
p33
Vi386
p34
NVaptosid-686
p35
tp36
(dp37
Vhardware-long
p38
VPCs with Intel Pentium Pro/II/III/4/4M/D/M, Xeon, Celeron, Core or Atom; AMD Geode LX/NX, Athlon (K7), Duron, Opteron, Sempron, Turion or Phenom; Transmeta Efficeon; VIA C3 "Nehemiah" or C7 processors
p39
sVhardware
p40
Vmodern PCs
p41
ss(Vversion
p42
tp43
(dp44
Vsource
p45
V4.10-16
p46
sVupstream
p47
V4.10
p48
sVabiname
p49
V4.10.0-10.slh.1
p50
sVabiname_base
p51
V4.10.0
p52
ss(Vbase
p53
g5
tp54
(dp55
Vkernel-arch
p56
Vx86
p57
sVfeaturesets
p58
(lp59
Vnone
p60
ag14
ass(Vbase
p61
g34
tp62
(dp63
Vkernel-arch
p64
Vx86
p65
sVfeaturesets
p66
(lp67
g60
aVnone
p68
ass(Vdescription
p69
tp70
(dp71
Vpart-long-up
p72
VThis kernel is not suitable for SMP (multi-processor,\u000amulti-core or hyper-threaded) systems.
p73
sVpart-long-xen
p74
VThis kernel also runs on a Xen hypervisor.\u000aIt supports both privileged (dom0) and unprivileged (domU) operation.
p75
ss(Vbuild
p76
g5
tp77
(dp78
Vimage-file
p79
Varch/x86/boot/bzImage
p80
sVdebug-info
p81
I00
ss(Vrelations
p82
tp83
(dp84
Vinitramfs-tools
p85
Vinitramfs-tools (>= 0.121~)
p86
sVinitramfs-fallback
p87
Vlinux-initramfs-tool
p88
sVgcc-6
p89
Vgcc-6
p90
ss(Vbuild
p91
g34
tp92
(dp93
Vimage-file
p94
Varch/x86/boot/bzImage
p95
sVdebug-info
p96
I00
ss(Vimage
p97
g34
tp98
(dp99
Vsuggests
p100
Vcrda
p101
sVbootloaders
p102
(lp103
Vgrub-pc
p104
aVextlinux
p105
aVgrub-efi-ia32
p106
asVbreaks
p107
Vxserver-xorg-input-vmmouse (<< 1:13.0.99)
p108
sVinstall-stem
p109
Vvmlinuz
p110
ss(Vdescription
p111
g5
g14
Vaptosid-amd64
p112
tp113
(dp114
Vparts
p115
(lp116
Vxen
p117
ass(Vbase
p118
g34
g68
tp119
(dp120
g17
(lp121
Vaptosid-686
p122
asg20
I01
ss(Vimage
p123
g5
tp124
(dp125
Vsuggests
p126
Vcrda
p127
sVbootloaders
p128
(lp129
Vgrub-pc
p130
aVextlinux
p131
aVgrub-efi-amd64
p132
asVbreaks
p133
Vxserver-xorg-input-vmmouse (<< 1:13.0.99)
p134
sVinstall-stem
p135
Vvmlinuz
p136
ss(Vimage
p137
tp138
(dp139
Vinitramfs-generators
p140
(lp141
Vinitramfs-tools
p142
aVinitramfs-fallback
p143
ass(Vabi
p144
tp145
(dp146
Vabiname
p147
V10.slh.1
p148
sstp149
Rp150
.