ccopy_reg
_reconstructor
p0
(cdebian_linux.config
ConfigCore
p1
c__builtin__
dict
p2
(dp3
(Vabi
p4
tp5
(dp6
Vabiname
p7
V1.slh.1
p8
ss(Vbuild
p9
Vamd64
p10
tp11
(dp12
Vimage-file
p13
Varch/x86/boot/bzImage
p14
sVdebug-info
p15
I00
ss(Vdescription
p16
g10
NVaptosid-amd64
p17
tp18
(dp19
Vhardware-long
p20
VPCs with AMD64 or Intel 64 processors
p21
sVhardware
p22
V64-bit PCs
p23
ss(Vbase
p24
tp25
(dp26
Vcompiler
p27
Vgcc-6
p28
sVarches
p29
(lp30
Vamd64
p31
aVi386
p32
asVfeaturesets
p33
(lp34
Vnone
p35
ass(Vdescription
p36
g10
Vnone
p37
Vaptosid-amd64
p38
tp39
(dp40
Vparts
p41
(lp42
Vxen
p43
ass(Vimage
p44
g10
tp45
(dp46
Vbreaks
p47
Vxserver-xorg-input-vmmouse (<< 1:13.0.99)
p48
sVsuggests
p49
Vcrda
p50
sVbootloaders
p51
(lp52
Vgrub-pc
p53
aVextlinux
p54
aVgrub-efi-amd64
p55
asVinstall-stem
p56
Vvmlinuz
p57
ss(Vbuild
p58
Vi386
p59
tp60
(dp61
Vimage-file
p62
Varch/x86/boot/bzImage
p63
sVdebug-info
p64
I00
ss(Vrelations
p65
tp66
(dp67
Vinitramfs-fallback
p68
Vlinux-initramfs-tool
p69
sVgcc-6
p70
Vgcc-6
p71
sVinitramfs-tools
p72
Vinitramfs-tools (>= 0.121~)
p73
ss(Vimage
p74
tp75
(dp76
Vinitramfs-generators
p77
(lp78
Vinitramfs-tools
p79
aVinitramfs-fallback
p80
ass(Vimage
p81
g59
tp82
(dp83
Vbreaks
p84
Vxserver-xorg-input-vmmouse (<< 1:13.0.99)
p85
sVsuggests
p86
Vcrda
p87
sVbootloaders
p88
(lp89
Vgrub-pc
p90
aVextlinux
p91
aVgrub-efi-ia32
p92
asVinstall-stem
p93
Vvmlinuz
p94
ss(Vbase
p95
g10
tp96
(dp97
Vkernel-arch
p98
Vx86
p99
sVfeaturesets
p100
(lp101
Vnone
p102
ag37
ass(Vdescription
p103
g59
NVaptosid-686
p104
tp105
(dp106
Vhardware-long
p107
VPCs with Intel Pentium Pro/II/III/4/4M/D/M, Xeon, Celeron, Core or Atom; AMD Geode LX/NX, Athlon (K7), Duron, Opteron, Sempron, Turion or Phenom; Transmeta Efficeon; VIA C3 "Nehemiah" or C7 processors
p108
sVhardware
p109
Vmodern PCs
p110
ss(Vbase
p111
g59
Vnone
p112
tp113
(dp114
Vimplicit-flavour
p115
I01
sVflavours
p116
(lp117
Vaptosid-686
p118
ass(Vdescription
p119
tp120
(dp121
Vpart-long-xen
p122
VThis kernel also runs on a Xen hypervisor.\u000aIt supports both privileged (dom0) and unprivileged (domU) operation.
p123
sVpart-long-up
p124
VThis kernel is not suitable for SMP (multi-processor,\u000amulti-core or hyper-threaded) systems.
p125
ss(Vbase
p126
g59
tp127
(dp128
Vkernel-arch
p129
Vx86
p130
sVfeaturesets
p131
(lp132
g102
ag112
ass(Vversion
p133
tp134
(dp135
Vabiname
p136
V4.9.0-1.slh.1
p137
sVsource
p138
V4.9-4
p139
sVupstream
p140
V4.9
p141
sVabiname_base
p142
V4.9.0
p143
ss(Vbase
p144
g10
g37
tp145
(dp146
g115
I01
sg116
(lp147
Vaptosid-amd64
p148
asstp149
Rp150
.