ccopy_reg
_reconstructor
p0
(cdebian_linux.config
ConfigCore
p1
c__builtin__
dict
p2
(dp3
(Vdescription
p4
Vi386
p5
NVaptosid-686
p6
tp7
(dp8
Vhardware-long
p9
VPCs with Intel Pentium Pro/II/III/4/4M/D/M, Xeon, Celeron, Core or Atom; AMD Geode LX/NX, Athlon (K7), Duron, Opteron, Sempron, Turion or Phenom; Transmeta Efficeon; VIA C3 "Nehemiah" or C7 processors
p10
sVhardware
p11
Vmodern PCs
p12
ss(Vversion
p13
tp14
(dp15
Vupstream
p16
V4.7
p17
sVabiname
p18
V4.7.0-0.slh.2
p19
sVsource
p20
V4.7-4
p21
sVabiname_base
p22
V4.7.0
p23
ss(Vbuild
p24
g5
tp25
(dp26
Vimage-file
p27
Varch/x86/boot/bzImage
p28
sVdebug-info
p29
I00
ss(Vbase
p30
tp31
(dp32
Vcompiler
p33
Vgcc-5
p34
sVarches
p35
(lp36
Vamd64
p37
aVi386
p38
asVfeaturesets
p39
(lp40
Vnone
p41
ass(Vbuild
p42
Vamd64
p43
tp44
(dp45
Vimage-file
p46
Varch/x86/boot/bzImage
p47
sVdebug-info
p48
I00
ss(Vrelations
p49
tp50
(dp51
Vinitramfs-tools
p52
Vinitramfs-tools (>= 0.121~)
p53
sVgcc-5
p54
Vgcc-5
p55
sVinitramfs-fallback
p56
Vlinux-initramfs-tool
p57
ss(Vdescription
p58
g43
NVaptosid-amd64
p59
tp60
(dp61
Vhardware-long
p62
VPCs with AMD64 or Intel 64 processors
p63
sVhardware
p64
V64-bit PCs
p65
ss(Vimage
p66
tp67
(dp68
Vinitramfs-generators
p69
(lp70
Vinitramfs-tools
p71
aVinitramfs-fallback
p72
ass(Vbase
p73
g43
Vnone
p74
tp75
(dp76
Vflavours
p77
(lp78
Vaptosid-amd64
p79
asVimplicit-flavour
p80
I01
ss(Vxen
p81
g43
g74
Vaptosid-amd64
p82
tp83
(dp84
Vflavours
p85
(lp86
Vaptosid-amd64
p87
ass(Vbase
p88
g5
Vnone
p89
tp90
(dp91
g77
(lp92
Vaptosid-686
p93
asg80
I01
ss(Vdescription
p94
g43
g74
Vaptosid-amd64
p95
tp96
(dp97
Vparts
p98
(lp99
Vxen
p100
ass(Vbase
p101
g43
tp102
(dp103
Vfeaturesets
p104
(lp105
Vnone
p106
ag74
asVkernel-arch
p107
Vx86
p108
ss(Vimage
p109
g43
tp110
(dp111
Vbootloaders
p112
(lp113
Vgrub-pc
p114
aVextlinux
p115
aVgrub-efi-amd64
p116
asVsuggests
p117
Vcrda
p118
sVinstall-stem
p119
Vvmlinuz
p120
sVbreaks
p121
Vxserver-xorg-input-vmmouse (<< 1:13.0.99)
p122
ss(Vdescription
p123
tp124
(dp125
Vpart-long-xen
p126
VThis kernel also runs on a Xen hypervisor.\u000aIt supports both privileged (dom0) and unprivileged (domU) operation.
p127
sVpart-long-up
p128
VThis kernel is not suitable for SMP (multi-processor,\u000amulti-core or hyper-threaded) systems.
p129
ss(Vabi
p130
tp131
(dp132
Vabiname
p133
V0.slh.2
p134
ss(Vimage
p135
g5
tp136
(dp137
Vbootloaders
p138
(lp139
Vgrub-pc
p140
aVextlinux
p141
aVgrub-efi-ia32
p142
asVsuggests
p143
Vcrda
p144
sVinstall-stem
p145
Vvmlinuz
p146
sVbreaks
p147
Vxserver-xorg-input-vmmouse (<< 1:13.0.99)
p148
ss(Vbase
p149
g5
tp150
(dp151
Vfeaturesets
p152
(lp153
g106
ag89
asVkernel-arch
p154
Vx86
p155
sstp156
Rp157
.