ccopy_reg
_reconstructor
p0
(cdebian_linux.config
ConfigCore
p1
c__builtin__
dict
p2
(dp3
(Vdescription
p4
tp5
(dp6
Vpart-long-up
p7
VThis kernel is not suitable for SMP (multi-processor,\u000amulti-core or hyper-threaded) systems.
p8
sVpart-long-xen
p9
VThis kernel also runs on a Xen hypervisor.\u000aIt supports both privileged (dom0) and unprivileged (domU) operation.
p10
ss(Vdescription
p11
Vamd64
p12
Vnone
p13
Vaptosid-amd64
p14
tp15
(dp16
Vparts
p17
(lp18
Vxen
p19
ass(Vimage
p20
tp21
(dp22
Vinitramfs-generators
p23
(lp24
Vinitramfs-tools
p25
aVinitramfs-fallback
p26
ass(Vbase
p27
g12
tp28
(dp29
Vkernel-arch
p30
Vx86
p31
sVfeaturesets
p32
(lp33
Vnone
p34
ag13
ass(Vbuild
p35
Vi386
p36
tp37
(dp38
Vdebug-info
p39
I00
sVimage-file
p40
Varch/x86/boot/bzImage
p41
ss(Vdescription
p42
g12
NVaptosid-amd64
p43
tp44
(dp45
Vhardware-long
p46
VPCs with AMD64 or Intel 64 processors
p47
sVhardware
p48
V64-bit PCs
p49
ss(Vbase
p50
g36
Vnone
p51
tp52
(dp53
Vflavours
p54
(lp55
Vaptosid-686
p56
asVimplicit-flavour
p57
I01
ss(Vdescription
p58
g36
NVaptosid-686
p59
tp60
(dp61
Vhardware-long
p62
VPCs with Intel Pentium Pro/II/III/4/4M/D/M, Xeon, Celeron, Core or Atom; AMD Geode LX/NX, Athlon (K7), Duron, Opteron, Sempron, Turion or Phenom; Transmeta Efficeon; VIA C3 "Nehemiah" or C7 processors
p63
sVhardware
p64
Vmodern PCs
p65
ss(Vbase
p66
tp67
(dp68
Vcompiler
p69
Vgcc-6
p70
sVarches
p71
(lp72
Vamd64
p73
aVi386
p74
asVfeaturesets
p75
(lp76
Vnone
p77
ass(Vversion
p78
tp79
(dp80
Vabiname
p81
V4.10.0-9.slh.1
p82
sVsource
p83
V4.10-14
p84
sVupstream
p85
V4.10
p86
sVabiname_base
p87
V4.10.0
p88
ss(Vimage
p89
g36
tp90
(dp91
Vsuggests
p92
Vcrda
p93
sVbreaks
p94
Vxserver-xorg-input-vmmouse (<< 1:13.0.99)
p95
sVinstall-stem
p96
Vvmlinuz
p97
sVbootloaders
p98
(lp99
Vgrub-pc
p100
aVextlinux
p101
aVgrub-efi-ia32
p102
ass(Vbase
p103
g36
tp104
(dp105
Vkernel-arch
p106
Vx86
p107
sVfeaturesets
p108
(lp109
g34
ag51
ass(Vbuild
p110
g12
tp111
(dp112
Vdebug-info
p113
I00
sVimage-file
p114
Varch/x86/boot/bzImage
p115
ss(Vabi
p116
tp117
(dp118
Vabiname
p119
V9.slh.1
p120
ss(Vrelations
p121
tp122
(dp123
Vgcc-6
p124
Vgcc-6
p125
sVinitramfs-fallback
p126
Vlinux-initramfs-tool
p127
sVinitramfs-tools
p128
Vinitramfs-tools (>= 0.121~)
p129
ss(Vimage
p130
g12
tp131
(dp132
Vsuggests
p133
Vcrda
p134
sVbreaks
p135
Vxserver-xorg-input-vmmouse (<< 1:13.0.99)
p136
sVinstall-stem
p137
Vvmlinuz
p138
sVbootloaders
p139
(lp140
Vgrub-pc
p141
aVextlinux
p142
aVgrub-efi-amd64
p143
ass(Vbase
p144
g12
g13
tp145
(dp146
g54
(lp147
Vaptosid-amd64
p148
asg57
I01
sstp149
Rp150
.