ccopy_reg
_reconstructor
p0
(cdebian_linux.config
ConfigCore
p1
c__builtin__
dict
p2
(dp3
(Vbuild
p4
Vi386
p5
tp6
(dp7
Vdebug-info
p8
I00
sVimage-file
p9
Varch/x86/boot/bzImage
p10
ss(Vbase
p11
g5
Vnone
p12
tp13
(dp14
Vimplicit-flavour
p15
I01
sVflavours
p16
(lp17
Vaptosid-686
p18
ass(Vbase
p19
tp20
(dp21
Vcompiler
p22
Vgcc-7
p23
sVfeaturesets
p24
(lp25
Vnone
p26
asVarches
p27
(lp28
Vamd64
p29
aVi386
p30
ass(Vbase
p31
Vamd64
p32
tp33
(dp34
Vfeaturesets
p35
(lp36
Vnone
p37
aVnone
p38
asVkernel-arch
p39
Vx86
p40
ss(Vimage
p41
g5
tp42
(dp43
Vsuggests
p44
Vcrda
p45
sVinstall-stem
p46
Vvmlinuz
p47
sVbreaks
p48
Vxserver-xorg-input-vmmouse (<< 1:13.0.99)
p49
sVbootloaders
p50
(lp51
Vgrub-pc
p52
aVextlinux
p53
aVgrub-efi-ia32
p54
ass(Vbase
p55
g32
g38
tp56
(dp57
g15
I01
sg16
(lp58
Vaptosid-amd64
p59
ass(Vdescription
p60
g32
g38
Vaptosid-amd64
p61
tp62
(dp63
Vparts
p64
(lp65
Vxen
p66
ass(Vdescription
p67
g5
NVaptosid-686
p68
tp69
(dp70
Vhardware
p71
Vmodern PCs
p72
sVhardware-long
p73
VPCs with Intel Pentium Pro/II/III/4/4M/D/M, Xeon, Celeron, Core or Atom; AMD Geode LX/NX, Athlon (K7), Duron, Opteron, Sempron, Turion or Phenom; Transmeta Efficeon; VIA C3 "Nehemiah" or C7 processors
p74
ss(Vbuild
p75
g32
tp76
(dp77
Vdebug-info
p78
I00
sVimage-file
p79
Varch/x86/boot/bzImage
p80
ss(Vdescription
p81
tp82
(dp83
Vpart-long-xen
p84
VThis kernel also runs on a Xen hypervisor.\u000aIt supports both privileged (dom0) and unprivileged (domU) operation.
p85
sVpart-long-up
p86
VThis kernel is not suitable for SMP (multi-processor,\u000amulti-core or hyper-threaded) systems.
p87
ss(Vdescription
p88
g32
NVaptosid-amd64
p89
tp90
(dp91
Vhardware
p92
V64-bit PCs
p93
sVhardware-long
p94
VPCs with AMD64 or Intel 64 processors
p95
ss(Vversion
p96
tp97
(dp98
Vabiname_base
p99
V4.12.0
p100
sVsource
p101
V4.12-17
p102
sVupstream
p103
V4.12
p104
sVabiname
p105
V4.12.0-8.slh.2
p106
ss(Vimage
p107
tp108
(dp109
Vinitramfs-generators
p110
(lp111
Vinitramfs-tools
p112
aVinitramfs-fallback
p113
ass(Vrelations
p114
tp115
(dp116
Vgcc-7
p117
Vgcc-7
p118
sVinitramfs-fallback
p119
Vlinux-initramfs-tool
p120
sVinitramfs-tools
p121
Vinitramfs-tools (>= 0.121~)
p122
ss(Vabi
p123
tp124
(dp125
Vabiname
p126
V8.slh.2
p127
ss(Vimage
p128
g32
tp129
(dp130
Vsuggests
p131
Vcrda
p132
sVinstall-stem
p133
Vvmlinuz
p134
sVbreaks
p135
Vxserver-xorg-input-vmmouse (<< 1:13.0.99)
p136
sVbootloaders
p137
(lp138
Vgrub-pc
p139
aVextlinux
p140
aVgrub-efi-amd64
p141
ass(Vbase
p142
g5
tp143
(dp144
Vfeaturesets
p145
(lp146
g37
ag12
asVkernel-arch
p147
Vx86
p148
sstp149
Rp150
.