ccopy_reg
_reconstructor
p0
(cdebian_linux.config
ConfigCore
p1
c__builtin__
dict
p2
(dp3
(Vimage
p4
Vamd64
p5
tp6
(dp7
Vbootloaders
p8
(lp9
Vgrub-pc
p10
aVextlinux
p11
aVgrub-efi-amd64
p12
asVinstall-stem
p13
Vvmlinuz
p14
sVconfigs
p15
(lp16
sVsuggests
p17
Vcrda
p18
ss(Vbase
p19
Vi386
p20
Vnone
p21
tp22
(dp23
Vflavours
p24
(lp25
Vaptosid-686
p26
asVimplicit-flavour
p27
I01
ss(Vbuild
p28
g20
tp29
(dp30
Vdebug-info
p31
I00
sVimage-file
p32
Varch/x86/boot/bzImage
p33
ss(Vimage
p34
g5
NVaptosid-amd64
p35
tp36
(dp37
Vconfigs
p38
(lp39
Vkernelarch-x86/config-arch-64
p40
ass(Vdescription
p41
g20
NVaptosid-686
p42
tp43
(dp44
Vhardware
p45
Vmodern PCs
p46
sVhardware-long
p47
VPCs with Intel Pentium Pro/II/III/4/4M/D/M, Xeon, Celeron, Core or Atom; AMD Geode LX/NX, Athlon (K7), Duron, Opteron, Sempron, Turion or Phenom; Transmeta Efficeon; VIA C3 "Nehemiah" or C7 processors
p48
ss(Vimage
p49
tp50
(dp51
Vinitramfs-generators
p52
(lp53
Vinitramfs-tools
p54
aVinitramfs-fallback
p55
asVtype
p56
Vplain
p57
ss(Vbase
p58
g5
Vnone
p59
tp60
(dp61
g24
(lp62
Vaptosid-amd64
p63
asg27
I01
ss(Vdescription
p64
g5
g59
Vaptosid-amd64
p65
tp66
(dp67
Vparts
p68
(lp69
Vxen
p70
ass(Vversion
p71
tp72
(dp73
Vabiname_base
p74
V4.4.0
p75
sVsource
p76
V4.4-13
p77
sVabiname
p78
V4.4.0-3.slh.1
p79
sVupstream
p80
V4.4
p81
ss(Vbase
p82
g5
tp83
(dp84
Vfeaturesets
p85
(lp86
Vnone
p87
ag59
asVkernel-arch
p88
Vx86
p89
ss(Vdescription
p90
tp91
(dp92
Vpart-long-xen
p93
VThis kernel also runs on a Xen hypervisor.\u000aIt supports both privileged (dom0) and unprivileged (domU) operation.
p94
sVpart-long-up
p95
VThis kernel is not suitable for SMP (multi-processor,\u000amulti-core or hyper-threaded) systems.
p96
ss(Vbase
p97
tp98
(dp99
Varches
p100
(lp101
Vamd64
p102
aVi386
p103
asVcompiler
p104
Vgcc-5
p105
sVfeaturesets
p106
(lp107
Vnone
p108
ass(Vimage
p109
g20
NVaptosid-686
p110
tp111
(dp112
Vrecommends
p113
Vlibc6-i686
p114
sVconfigs
p115
(lp116
Vkernelarch-x86/config-arch-32
p117
ass(Vbuild
p118
g5
tp119
(dp120
Vdebug-info
p121
I00
sVimage-file
p122
Varch/x86/boot/bzImage
p123
ss(Vxen
p124
g5
g59
Vaptosid-amd64
p125
tp126
(dp127
Vflavours
p128
(lp129
Vaptosid-amd64
p130
ass(Vimage
p131
g20
tp132
(dp133
Vbootloaders
p134
(lp135
Vgrub-pc
p136
aVextlinux
p137
aVgrub-efi-ia32
p138
asVinstall-stem
p139
Vvmlinuz
p140
sVconfigs
p141
(lp142
sVsuggests
p143
Vcrda
p144
ss(Vdescription
p145
g5
NVaptosid-amd64
p146
tp147
(dp148
Vhardware
p149
V64-bit PCs
p150
sVhardware-long
p151
VPCs with AMD64 or Intel 64 processors
p152
ss(Vrelations
p153
tp154
(dp155
Vinitramfs-fallback
p156
Vlinux-initramfs-tool
p157
sVinitramfs-tools
p158
Vinitramfs-tools (>= 0.118+c0.aptosid.1~)
p159
sVgcc-5
p160
Vgcc-5
p161
ss(Vbase
p162
g20
tp163
(dp164
Vfeaturesets
p165
(lp166
g87
ag21
asVkernel-arch
p167
Vx86
p168
ss(Vabi
p169
tp170
(dp171
Vabiname
p172
V3.slh.1
p173
sstp174
Rp175
.