ccopy_reg
_reconstructor
p0
(cdebian_linux.config
ConfigCore
p1
c__builtin__
dict
p2
(dp3
(Vimage
p4
tp5
(dp6
Vinitramfs-generators
p7
(lp8
Vinitramfs-tools
p9
aVinitramfs-fallback
p10
ass(Vabi
p11
tp12
(dp13
Vabiname
p14
V2.slh.4
p15
ss(Vbase
p16
Vi386
p17
tp18
(dp19
Vkernel-arch
p20
Vx86
p21
sVfeaturesets
p22
(lp23
Vnone
p24
aVnone
p25
ass(Vdescription
p26
g17
NVaptosid-686
p27
tp28
(dp29
Vhardware
p30
Vmodern PCs
p31
sVhardware-long
p32
VPCs with Intel Pentium Pro/II/III/4/4M/D/M, Xeon, Celeron, Core or Atom; AMD Geode LX/NX, Athlon (K7), Duron, Opteron, Sempron, Turion or Phenom; Transmeta Efficeon; VIA C3 "Nehemiah" or C7 processors
p33
ss(Vbuild
p34
g17
tp35
(dp36
Vdebug-info
p37
I00
sVimage-file
p38
Varch/x86/boot/bzImage
p39
ss(Vimage
p40
g17
tp41
(dp42
Vbootloaders
p43
(lp44
Vgrub-pc
p45
aVextlinux
p46
aVgrub-efi-ia32
p47
asVsuggests
p48
Vcrda
p49
sVbreaks
p50
Vxserver-xorg-input-vmmouse (<< 1:13.0.99)
p51
sVinstall-stem
p52
Vvmlinuz
p53
ss(Vbase
p54
Vamd64
p55
tp56
(dp57
Vkernel-arch
p58
Vx86
p59
sVfeaturesets
p60
(lp61
g24
aVnone
p62
ass(Vdescription
p63
tp64
(dp65
Vpart-long-xen
p66
VThis kernel also runs on a Xen hypervisor.\u000aIt supports both privileged (dom0) and unprivileged (domU) operation.
p67
sVpart-long-up
p68
VThis kernel is not suitable for SMP (multi-processor,\u000amulti-core or hyper-threaded) systems.
p69
ss(Vbase
p70
g55
g62
tp71
(dp72
Vflavours
p73
(lp74
Vaptosid-amd64
p75
asVimplicit-flavour
p76
I01
ss(Vdescription
p77
g55
NVaptosid-amd64
p78
tp79
(dp80
Vhardware
p81
V64-bit PCs
p82
sVhardware-long
p83
VPCs with AMD64 or Intel 64 processors
p84
ss(Vbuild
p85
g55
tp86
(dp87
Vdebug-info
p88
I00
sVimage-file
p89
Varch/x86/boot/bzImage
p90
ss(Vbase
p91
g17
g25
tp92
(dp93
g73
(lp94
Vaptosid-686
p95
asg76
I01
ss(Vrelations
p96
tp97
(dp98
Vgcc-6
p99
Vgcc-6
p100
sVinitramfs-fallback
p101
Vlinux-initramfs-tool
p102
sVinitramfs-tools
p103
Vinitramfs-tools (>= 0.121~)
p104
ss(Vxen
p105
g55
g62
Vaptosid-amd64
p106
tp107
(dp108
Vflavours
p109
(lp110
Vaptosid-amd64
p111
ass(Vdescription
p112
g55
g62
Vaptosid-amd64
p113
tp114
(dp115
Vparts
p116
(lp117
Vxen
p118
ass(Vbase
p119
tp120
(dp121
Varches
p122
(lp123
Vamd64
p124
aVi386
p125
asVcompiler
p126
Vgcc-6
p127
sVfeaturesets
p128
(lp129
Vnone
p130
ass(Vimage
p131
g55
tp132
(dp133
Vbootloaders
p134
(lp135
Vgrub-pc
p136
aVextlinux
p137
aVgrub-efi-amd64
p138
asVsuggests
p139
Vcrda
p140
sVbreaks
p141
Vxserver-xorg-input-vmmouse (<< 1:13.0.99)
p142
sVinstall-stem
p143
Vvmlinuz
p144
ss(Vversion
p145
tp146
(dp147
Vabiname_base
p148
V4.7.0
p149
sVupstream
p150
V4.7
p151
sVabiname
p152
V4.7.0-2.slh.4
p153
sVsource
p154
V4.7-13
p155
sstp156
Rp157
.