ccopy_reg
_reconstructor
p0
(cdebian_linux.config
ConfigCore
p1
c__builtin__
dict
p2
(dp3
(Vbuild
p4
Vi386
p5
tp6
(dp7
Vdebug-info
p8
I00
sVimage-file
p9
Varch/x86/boot/bzImage
p10
ss(Vbuild
p11
Vamd64
p12
tp13
(dp14
Vdebug-info
p15
I00
sVimage-file
p16
Varch/x86/boot/bzImage
p17
ss(Vdescription
p18
g12
NVaptosid-amd64
p19
tp20
(dp21
Vhardware
p22
V64-bit PCs
p23
sVhardware-long
p24
VPCs with AMD64 or Intel 64 processors
p25
ss(Vdescription
p26
g5
NVaptosid-686
p27
tp28
(dp29
Vhardware
p30
Vmodern PCs
p31
sVhardware-long
p32
VPCs with Intel Pentium Pro/II/III/4/4M/D/M, Xeon, Celeron, Core or Atom; AMD Geode LX/NX, Athlon (K7), Duron, Opteron, Sempron, Turion or Phenom; Transmeta Efficeon; VIA C3 "Nehemiah" or C7 processors
p33
ss(Vbase
p34
g12
Vnone
p35
tp36
(dp37
Vflavours
p38
(lp39
Vaptosid-amd64
p40
asVimplicit-flavour
p41
I01
ss(Vimage
p42
g12
tp43
(dp44
Vbootloaders
p45
(lp46
Vgrub-pc
p47
aVextlinux
p48
aVgrub-efi-amd64
p49
asVsuggests
p50
Vcrda
p51
sVinstall-stem
p52
Vvmlinuz
p53
sVbreaks
p54
Vxserver-xorg-input-vmmouse (<< 1:13.0.99)
p55
ss(Vbase
p56
g5
Vnone
p57
tp58
(dp59
g38
(lp60
Vaptosid-686
p61
asg41
I01
ss(Vimage
p62
g5
tp63
(dp64
Vbootloaders
p65
(lp66
Vgrub-pc
p67
aVextlinux
p68
aVgrub-efi-ia32
p69
asVsuggests
p70
Vcrda
p71
sVinstall-stem
p72
Vvmlinuz
p73
sVbreaks
p74
Vxserver-xorg-input-vmmouse (<< 1:13.0.99)
p75
ss(Vimage
p76
tp77
(dp78
Vinitramfs-generators
p79
(lp80
Vinitramfs-tools
p81
aVinitramfs-fallback
p82
ass(Vdescription
p83
g12
g35
Vaptosid-amd64
p84
tp85
(dp86
Vparts
p87
(lp88
Vxen
p89
ass(Vdescription
p90
tp91
(dp92
Vpart-long-up
p93
VThis kernel is not suitable for SMP (multi-processor,\u000amulti-core or hyper-threaded) systems.
p94
sVpart-long-xen
p95
VThis kernel also runs on a Xen hypervisor.\u000aIt supports both privileged (dom0) and unprivileged (domU) operation.
p96
ss(Vbase
p97
g12
tp98
(dp99
Vkernel-arch
p100
Vx86
p101
sVfeaturesets
p102
(lp103
Vnone
p104
ag35
ass(Vbase
p105
g5
tp106
(dp107
Vkernel-arch
p108
Vx86
p109
sVfeaturesets
p110
(lp111
g104
ag57
ass(Vrelations
p112
tp113
(dp114
Vinitramfs-fallback
p115
Vlinux-initramfs-tool
p116
sVgcc-6
p117
Vgcc-6
p118
sVinitramfs-tools
p119
Vinitramfs-tools (>= 0.121~)
p120
ss(Vversion
p121
tp122
(dp123
Vabiname
p124
V4.11.0-1.slh.1
p125
sVupstream
p126
V4.11
p127
sVsource
p128
V4.11-5
p129
sVabiname_base
p130
V4.11.0
p131
ss(Vabi
p132
tp133
(dp134
Vabiname
p135
V1.slh.1
p136
ss(Vbase
p137
tp138
(dp139
Vfeaturesets
p140
(lp141
Vnone
p142
asVarches
p143
(lp144
Vamd64
p145
aVi386
p146
asVcompiler
p147
Vgcc-6
p148
sstp149
Rp150
.