ccopy_reg
_reconstructor
p0
(cdebian_linux.config
ConfigCore
p1
c__builtin__
dict
p2
(dp3
(Vxen
p4
Vamd64
p5
Vnone
p6
Vaptosid-amd64
p7
tp8
(dp9
Vflavours
p10
(lp11
Vaptosid-amd64
p12
ass(Vbase
p13
Vi386
p14
Vnone
p15
tp16
(dp17
Vflavours
p18
(lp19
Vaptosid-686
p20
asVimplicit-flavour
p21
I01
ss(Vimage
p22
g14
tp23
(dp24
Vsuggests
p25
Vcrda
p26
sVbootloaders
p27
(lp28
Vgrub-pc
p29
aVextlinux
p30
aVgrub-efi-ia32
p31
asVinstall-stem
p32
Vvmlinuz
p33
sVconfigs
p34
(lp35
ss(Vdescription
p36
g5
g6
Vaptosid-amd64
p37
tp38
(dp39
Vparts
p40
(lp41
Vxen
p42
ass(Vbase
p43
g14
tp44
(dp45
Vfeaturesets
p46
(lp47
Vnone
p48
ag15
asVkernel-arch
p49
Vx86
p50
ss(Vbase
p51
tp52
(dp53
Vfeaturesets
p54
(lp55
Vnone
p56
asVcompiler
p57
Vgcc-5
p58
sVarches
p59
(lp60
Vamd64
p61
aVi386
p62
ass(Vimage
p63
tp64
(dp65
Vtype
p66
Vplain
p67
sVinitramfs-generators
p68
(lp69
Vinitramfs-tools
p70
aVinitramfs-fallback
p71
ass(Vdescription
p72
tp73
(dp74
Vpart-long-up
p75
VThis kernel is not suitable for SMP (multi-processor,\u000amulti-core or hyper-threaded) systems.
p76
sVpart-long-xen
p77
VThis kernel also runs on a Xen hypervisor.\u000aIt supports both privileged (dom0) and unprivileged (domU) operation.
p78
ss(Vversion
p79
tp80
(dp81
Vsource
p82
V4.6-8
p83
sVabiname_base
p84
V4.6.0
p85
sVabiname
p86
V4.6.0-2.slh.3
p87
sVupstream
p88
V4.6
p89
ss(Vimage
p90
g5
NVaptosid-amd64
p91
tp92
(dp93
Vconfigs
p94
(lp95
Vkernelarch-x86/config-arch-64
p96
ass(Vbase
p97
g5
g6
tp98
(dp99
g18
(lp100
Vaptosid-amd64
p101
asg21
I01
ss(Vbuild
p102
g5
tp103
(dp104
Vdebug-info
p105
I00
sVimage-file
p106
Varch/x86/boot/bzImage
p107
ss(Vdescription
p108
g5
NVaptosid-amd64
p109
tp110
(dp111
Vhardware
p112
V64-bit PCs
p113
sVhardware-long
p114
VPCs with AMD64 or Intel 64 processors
p115
ss(Vabi
p116
tp117
(dp118
Vabiname
p119
V2.slh.3
p120
ss(Vimage
p121
g14
NVaptosid-686
p122
tp123
(dp124
Vconfigs
p125
(lp126
Vkernelarch-x86/config-arch-32
p127
asVrecommends
p128
Vlibc6-i686
p129
ss(Vrelations
p130
tp131
(dp132
Vgcc-5
p133
Vgcc-5
p134
sVinitramfs-fallback
p135
Vlinux-initramfs-tool
p136
sVinitramfs-tools
p137
Vinitramfs-tools (>= 0.121~)
p138
ss(Vbase
p139
g5
tp140
(dp141
Vfeaturesets
p142
(lp143
g48
ag6
asVkernel-arch
p144
Vx86
p145
ss(Vdescription
p146
g14
NVaptosid-686
p147
tp148
(dp149
Vhardware
p150
Vmodern PCs
p151
sVhardware-long
p152
VPCs with Intel Pentium Pro/II/III/4/4M/D/M, Xeon, Celeron, Core or Atom; AMD Geode LX/NX, Athlon (K7), Duron, Opteron, Sempron, Turion or Phenom; Transmeta Efficeon; VIA C3 "Nehemiah" or C7 processors
p153
ss(Vbuild
p154
g14
tp155
(dp156
Vdebug-info
p157
I00
sVimage-file
p158
Varch/x86/boot/bzImage
p159
ss(Vimage
p160
g5
tp161
(dp162
Vsuggests
p163
Vcrda
p164
sVbootloaders
p165
(lp166
Vgrub-pc
p167
aVextlinux
p168
aVgrub-efi-amd64
p169
asVinstall-stem
p170
Vvmlinuz
p171
sVconfigs
p172
(lp173
sstp174
Rp175
.