ccopy_reg
_reconstructor
p0
(cdebian_linux.config
ConfigCore
p1
c__builtin__
dict
p2
(dp3
(Vbase
p4
Vi386
p5
tp6
(dp7
Vfeaturesets
p8
(lp9
Vnone
p10
aVnone
p11
asVkernel-arch
p12
Vx86
p13
ss(Vbase
p14
Vamd64
p15
tp16
(dp17
Vfeaturesets
p18
(lp19
g10
aVnone
p20
asVkernel-arch
p21
Vx86
p22
ss(Vrelations
p23
tp24
(dp25
Vinitramfs-fallback
p26
Vlinux-initramfs-tool
p27
sVgcc-5
p28
Vgcc-5
p29
sVinitramfs-tools
p30
Vinitramfs-tools (>= 0.121~)
p31
ss(Vimage
p32
g15
tp33
(dp34
Vbootloaders
p35
(lp36
Vgrub-pc
p37
aVextlinux
p38
aVgrub-efi-amd64
p39
asVinstall-stem
p40
Vvmlinuz
p41
sVbreaks
p42
Vxserver-xorg-input-vmmouse (<< 1:13.0.99)
p43
sVsuggests
p44
Vcrda
p45
ss(Vbase
p46
g15
g20
tp47
(dp48
Vflavours
p49
(lp50
Vaptosid-amd64
p51
asVimplicit-flavour
p52
I01
ss(Vxen
p53
g15
g20
Vaptosid-amd64
p54
tp55
(dp56
Vflavours
p57
(lp58
Vaptosid-amd64
p59
ass(Vversion
p60
tp61
(dp62
Vsource
p63
V4.8-5
p64
sVabiname_base
p65
V4.8.0
p66
sVabiname
p67
V4.8.0-3.slh.1
p68
sVupstream
p69
V4.8
p70
ss(Vabi
p71
tp72
(dp73
Vabiname
p74
V3.slh.1
p75
ss(Vimage
p76
g5
tp77
(dp78
Vbootloaders
p79
(lp80
Vgrub-pc
p81
aVextlinux
p82
aVgrub-efi-ia32
p83
asVinstall-stem
p84
Vvmlinuz
p85
sVbreaks
p86
Vxserver-xorg-input-vmmouse (<< 1:13.0.99)
p87
sVsuggests
p88
Vcrda
p89
ss(Vbuild
p90
g15
tp91
(dp92
Vdebug-info
p93
I00
sVimage-file
p94
Varch/x86/boot/bzImage
p95
ss(Vbuild
p96
g5
tp97
(dp98
Vdebug-info
p99
I00
sVimage-file
p100
Varch/x86/boot/bzImage
p101
ss(Vdescription
p102
g5
NVaptosid-686
p103
tp104
(dp105
Vhardware
p106
Vmodern PCs
p107
sVhardware-long
p108
VPCs with Intel Pentium Pro/II/III/4/4M/D/M, Xeon, Celeron, Core or Atom; AMD Geode LX/NX, Athlon (K7), Duron, Opteron, Sempron, Turion or Phenom; Transmeta Efficeon; VIA C3 "Nehemiah" or C7 processors
p109
ss(Vdescription
p110
g15
NVaptosid-amd64
p111
tp112
(dp113
Vhardware
p114
V64-bit PCs
p115
sVhardware-long
p116
VPCs with AMD64 or Intel 64 processors
p117
ss(Vimage
p118
tp119
(dp120
Vinitramfs-generators
p121
(lp122
Vinitramfs-tools
p123
aVinitramfs-fallback
p124
ass(Vdescription
p125
g15
g20
Vaptosid-amd64
p126
tp127
(dp128
Vparts
p129
(lp130
Vxen
p131
ass(Vbase
p132
tp133
(dp134
Varches
p135
(lp136
Vamd64
p137
aVi386
p138
asVfeaturesets
p139
(lp140
Vnone
p141
asVcompiler
p142
Vgcc-5
p143
ss(Vdescription
p144
tp145
(dp146
Vpart-long-up
p147
VThis kernel is not suitable for SMP (multi-processor,\u000amulti-core or hyper-threaded) systems.
p148
sVpart-long-xen
p149
VThis kernel also runs on a Xen hypervisor.\u000aIt supports both privileged (dom0) and unprivileged (domU) operation.
p150
ss(Vbase
p151
g5
g11
tp152
(dp153
g49
(lp154
Vaptosid-686
p155
asg52
I01
sstp156
Rp157
.