ccopy_reg
_reconstructor
p0
(cdebian_linux.config
ConfigCore
p1
c__builtin__
dict
p2
(dp3
(Vversion
p4
tp5
(dp6
Vupstream
p7
V4.9
p8
sVabiname
p9
V4.9.0-2.slh.2
p10
sVabiname_base
p11
V4.9.0
p12
sVsource
p13
V4.9-6
p14
ss(Vbase
p15
Vamd64
p16
Vnone
p17
tp18
(dp19
Vflavours
p20
(lp21
Vaptosid-amd64
p22
asVimplicit-flavour
p23
I01
ss(Vbase
p24
Vi386
p25
Vnone
p26
tp27
(dp28
g20
(lp29
Vaptosid-686
p30
asg23
I01
ss(Vbuild
p31
g25
tp32
(dp33
Vimage-file
p34
Varch/x86/boot/bzImage
p35
sVdebug-info
p36
I00
ss(Vdescription
p37
g16
g17
Vaptosid-amd64
p38
tp39
(dp40
Vparts
p41
(lp42
Vxen
p43
ass(Vimage
p44
g16
tp45
(dp46
Vinstall-stem
p47
Vvmlinuz
p48
sVbootloaders
p49
(lp50
Vgrub-pc
p51
aVextlinux
p52
aVgrub-efi-amd64
p53
asVsuggests
p54
Vcrda
p55
sVbreaks
p56
Vxserver-xorg-input-vmmouse (<< 1:13.0.99)
p57
ss(Vbase
p58
g25
tp59
(dp60
Vfeaturesets
p61
(lp62
Vnone
p63
ag26
asVkernel-arch
p64
Vx86
p65
ss(Vbase
p66
g16
tp67
(dp68
Vfeaturesets
p69
(lp70
g63
ag17
asVkernel-arch
p71
Vx86
p72
ss(Vdescription
p73
g25
NVaptosid-686
p74
tp75
(dp76
Vhardware-long
p77
VPCs with Intel Pentium Pro/II/III/4/4M/D/M, Xeon, Celeron, Core or Atom; AMD Geode LX/NX, Athlon (K7), Duron, Opteron, Sempron, Turion or Phenom; Transmeta Efficeon; VIA C3 "Nehemiah" or C7 processors
p78
sVhardware
p79
Vmodern PCs
p80
ss(Vrelations
p81
tp82
(dp83
Vinitramfs-tools
p84
Vinitramfs-tools (>= 0.121~)
p85
sVgcc-6
p86
Vgcc-6
p87
sVinitramfs-fallback
p88
Vlinux-initramfs-tool
p89
ss(Vimage
p90
g25
tp91
(dp92
Vinstall-stem
p93
Vvmlinuz
p94
sVbootloaders
p95
(lp96
Vgrub-pc
p97
aVextlinux
p98
aVgrub-efi-ia32
p99
asVsuggests
p100
Vcrda
p101
sVbreaks
p102
Vxserver-xorg-input-vmmouse (<< 1:13.0.99)
p103
ss(Vbuild
p104
g16
tp105
(dp106
Vimage-file
p107
Varch/x86/boot/bzImage
p108
sVdebug-info
p109
I00
ss(Vbase
p110
tp111
(dp112
Varches
p113
(lp114
Vamd64
p115
aVi386
p116
asVfeaturesets
p117
(lp118
Vnone
p119
asVcompiler
p120
Vgcc-6
p121
ss(Vdescription
p122
tp123
(dp124
Vpart-long-up
p125
VThis kernel is not suitable for SMP (multi-processor,\u000amulti-core or hyper-threaded) systems.
p126
sVpart-long-xen
p127
VThis kernel also runs on a Xen hypervisor.\u000aIt supports both privileged (dom0) and unprivileged (domU) operation.
p128
ss(Vabi
p129
tp130
(dp131
Vabiname
p132
V2.slh.2
p133
ss(Vimage
p134
tp135
(dp136
Vinitramfs-generators
p137
(lp138
Vinitramfs-tools
p139
aVinitramfs-fallback
p140
ass(Vdescription
p141
g16
NVaptosid-amd64
p142
tp143
(dp144
Vhardware-long
p145
VPCs with AMD64 or Intel 64 processors
p146
sVhardware
p147
V64-bit PCs
p148
sstp149
Rp150
.