ccopy_reg
_reconstructor
p0
(cdebian_linux.config
ConfigCore
p1
c__builtin__
dict
p2
(dp3
(Vbuild
p4
Vi386
p5
tp6
(dp7
Vimage-file
p8
Varch/x86/boot/bzImage
p9
sVdebug-info
p10
I00
ss(Vbase
p11
g5
tp12
(dp13
Vfeaturesets
p14
(lp15
Vnone
p16
aVnone
p17
asVkernel-arch
p18
Vx86
p19
ss(Vbase
p20
g5
g17
tp21
(dp22
Vflavours
p23
(lp24
Vaptosid-686
p25
asVimplicit-flavour
p26
I01
ss(Vimage
p27
Vamd64
p28
tp29
(dp30
Vinstall-stem
p31
Vvmlinuz
p32
sVbreaks
p33
Vxserver-xorg-input-vmmouse (<< 1:13.0.99)
p34
sVsuggests
p35
Vcrda
p36
sVbootloaders
p37
(lp38
Vgrub-pc
p39
aVextlinux
p40
aVgrub-efi-amd64
p41
ass(Vimage
p42
g5
tp43
(dp44
Vinstall-stem
p45
Vvmlinuz
p46
sVbreaks
p47
Vxserver-xorg-input-vmmouse (<< 1:13.0.99)
p48
sVsuggests
p49
Vcrda
p50
sVbootloaders
p51
(lp52
Vgrub-pc
p53
aVextlinux
p54
aVgrub-efi-ia32
p55
ass(Vbase
p56
g28
Vnone
p57
tp58
(dp59
g23
(lp60
Vaptosid-amd64
p61
asg26
I01
ss(Vbase
p62
g28
tp63
(dp64
Vfeaturesets
p65
(lp66
g16
ag57
asVkernel-arch
p67
Vx86
p68
ss(Vversion
p69
tp70
(dp71
Vupstream
p72
V4.10
p73
sVabiname
p74
V4.10.0-1.slh.2
p75
sVsource
p76
V4.10-5
p77
sVabiname_base
p78
V4.10.0
p79
ss(Vabi
p80
tp81
(dp82
Vabiname
p83
V1.slh.2
p84
ss(Vdescription
p85
g5
NVaptosid-686
p86
tp87
(dp88
Vhardware-long
p89
VPCs with Intel Pentium Pro/II/III/4/4M/D/M, Xeon, Celeron, Core or Atom; AMD Geode LX/NX, Athlon (K7), Duron, Opteron, Sempron, Turion or Phenom; Transmeta Efficeon; VIA C3 "Nehemiah" or C7 processors
p90
sVhardware
p91
Vmodern PCs
p92
ss(Vdescription
p93
tp94
(dp95
Vpart-long-xen
p96
VThis kernel also runs on a Xen hypervisor.\u000aIt supports both privileged (dom0) and unprivileged (domU) operation.
p97
sVpart-long-up
p98
VThis kernel is not suitable for SMP (multi-processor,\u000amulti-core or hyper-threaded) systems.
p99
ss(Vbuild
p100
g28
tp101
(dp102
Vimage-file
p103
Varch/x86/boot/bzImage
p104
sVdebug-info
p105
I00
ss(Vimage
p106
tp107
(dp108
Vinitramfs-generators
p109
(lp110
Vinitramfs-tools
p111
aVinitramfs-fallback
p112
ass(Vbase
p113
tp114
(dp115
Vcompiler
p116
Vgcc-6
p117
sVfeaturesets
p118
(lp119
Vnone
p120
asVarches
p121
(lp122
Vamd64
p123
aVi386
p124
ass(Vdescription
p125
g28
NVaptosid-amd64
p126
tp127
(dp128
Vhardware-long
p129
VPCs with AMD64 or Intel 64 processors
p130
sVhardware
p131
V64-bit PCs
p132
ss(Vrelations
p133
tp134
(dp135
Vinitramfs-tools
p136
Vinitramfs-tools (>= 0.121~)
p137
sVgcc-6
p138
Vgcc-6
p139
sVinitramfs-fallback
p140
Vlinux-initramfs-tool
p141
ss(Vdescription
p142
g28
g57
Vaptosid-amd64
p143
tp144
(dp145
Vparts
p146
(lp147
Vxen
p148
asstp149
Rp150
.