ccopy_reg
_reconstructor
p0
(cdebian_linux.config
ConfigCore
p1
c__builtin__
dict
p2
(dp3
(Vversion
p4
tp5
(dp6
Vabiname_base
p7
V4.8.0
p8
sVabiname
p9
V4.8.0-12.slh.2
p10
sVsource
p11
V4.8-21
p12
sVupstream
p13
V4.8
p14
ss(Vdescription
p15
Vi386
p16
NVaptosid-686
p17
tp18
(dp19
Vhardware
p20
Vmodern PCs
p21
sVhardware-long
p22
VPCs with Intel Pentium Pro/II/III/4/4M/D/M, Xeon, Celeron, Core or Atom; AMD Geode LX/NX, Athlon (K7), Duron, Opteron, Sempron, Turion or Phenom; Transmeta Efficeon; VIA C3 "Nehemiah" or C7 processors
p23
ss(Vimage
p24
tp25
(dp26
Vinitramfs-generators
p27
(lp28
Vinitramfs-tools
p29
aVinitramfs-fallback
p30
ass(Vdescription
p31
Vamd64
p32
NVaptosid-amd64
p33
tp34
(dp35
Vhardware
p36
V64-bit PCs
p37
sVhardware-long
p38
VPCs with AMD64 or Intel 64 processors
p39
ss(Vxen
p40
g32
Vnone
p41
Vaptosid-amd64
p42
tp43
(dp44
Vflavours
p45
(lp46
Vaptosid-amd64
p47
ass(Vdescription
p48
g32
g41
Vaptosid-amd64
p49
tp50
(dp51
Vparts
p52
(lp53
Vxen
p54
ass(Vbuild
p55
g16
tp56
(dp57
Vimage-file
p58
Varch/x86/boot/bzImage
p59
sVdebug-info
p60
I00
ss(Vimage
p61
g32
tp62
(dp63
Vbootloaders
p64
(lp65
Vgrub-pc
p66
aVextlinux
p67
aVgrub-efi-amd64
p68
asVinstall-stem
p69
Vvmlinuz
p70
sVbreaks
p71
Vxserver-xorg-input-vmmouse (<< 1:13.0.99)
p72
sVsuggests
p73
Vcrda
p74
ss(Vbase
p75
g16
tp76
(dp77
Vkernel-arch
p78
Vx86
p79
sVfeaturesets
p80
(lp81
Vnone
p82
aVnone
p83
ass(Vdescription
p84
tp85
(dp86
Vpart-long-up
p87
VThis kernel is not suitable for SMP (multi-processor,\u000amulti-core or hyper-threaded) systems.
p88
sVpart-long-xen
p89
VThis kernel also runs on a Xen hypervisor.\u000aIt supports both privileged (dom0) and unprivileged (domU) operation.
p90
ss(Vabi
p91
tp92
(dp93
Vabiname
p94
V12.slh.2
p95
ss(Vrelations
p96
tp97
(dp98
Vgcc-6
p99
Vgcc-6
p100
sVinitramfs-fallback
p101
Vlinux-initramfs-tool
p102
sVinitramfs-tools
p103
Vinitramfs-tools (>= 0.121~)
p104
ss(Vbase
p105
tp106
(dp107
Vcompiler
p108
Vgcc-6
p109
sVfeaturesets
p110
(lp111
Vnone
p112
asVarches
p113
(lp114
Vamd64
p115
aVi386
p116
ass(Vbase
p117
g32
g41
tp118
(dp119
Vflavours
p120
(lp121
Vaptosid-amd64
p122
asVimplicit-flavour
p123
I01
ss(Vbase
p124
g32
tp125
(dp126
Vkernel-arch
p127
Vx86
p128
sVfeaturesets
p129
(lp130
g82
ag41
ass(Vbuild
p131
g32
tp132
(dp133
Vimage-file
p134
Varch/x86/boot/bzImage
p135
sVdebug-info
p136
I00
ss(Vimage
p137
g16
tp138
(dp139
Vbootloaders
p140
(lp141
Vgrub-pc
p142
aVextlinux
p143
aVgrub-efi-ia32
p144
asVinstall-stem
p145
Vvmlinuz
p146
sVbreaks
p147
Vxserver-xorg-input-vmmouse (<< 1:13.0.99)
p148
sVsuggests
p149
Vcrda
p150
ss(Vbase
p151
g16
g83
tp152
(dp153
g120
(lp154
Vaptosid-686
p155
asg123
I01
sstp156
Rp157
.