ccopy_reg
_reconstructor
p0
(cdebian_linux.config
ConfigCore
p1
c__builtin__
dict
p2
(dp3
(Vbase
p4
Vi386
p5
Vnone
p6
tp7
(dp8
Vflavours
p9
(lp10
Vaptosid-686
p11
asVimplicit-flavour
p12
I01
ss(Vimage
p13
tp14
(dp15
Vinitramfs-generators
p16
(lp17
Vinitramfs-tools
p18
aVinitramfs-fallback
p19
ass(Vbuild
p20
g5
tp21
(dp22
Vdebug-info
p23
I00
sVimage-file
p24
Varch/x86/boot/bzImage
p25
ss(Vabi
p26
tp27
(dp28
Vabiname
p29
V12.slh.1
p30
ss(Vbase
p31
Vamd64
p32
tp33
(dp34
Vkernel-arch
p35
Vx86
p36
sVfeaturesets
p37
(lp38
Vnone
p39
aVnone
p40
ass(Vimage
p41
g32
tp42
(dp43
Vsuggests
p44
Vcrda
p45
sVbootloaders
p46
(lp47
Vgrub-pc
p48
aVextlinux
p49
aVgrub-efi-amd64
p50
asVbreaks
p51
Vxserver-xorg-input-vmmouse (<< 1:13.0.99)
p52
sVinstall-stem
p53
Vvmlinuz
p54
ss(Vdescription
p55
tp56
(dp57
Vpart-long-up
p58
VThis kernel is not suitable for SMP (multi-processor,\u000amulti-core or hyper-threaded) systems.
p59
sVpart-long-xen
p60
VThis kernel also runs on a Xen hypervisor.\u000aIt supports both privileged (dom0) and unprivileged (domU) operation.
p61
ss(Vrelations
p62
tp63
(dp64
Vinitramfs-fallback
p65
Vlinux-initramfs-tool
p66
sVgcc-6
p67
Vgcc-6
p68
sVinitramfs-tools
p69
Vinitramfs-tools (>= 0.121~)
p70
ss(Vdescription
p71
g5
NVaptosid-686
p72
tp73
(dp74
Vhardware-long
p75
VPCs with Intel Pentium Pro/II/III/4/4M/D/M, Xeon, Celeron, Core or Atom; AMD Geode LX/NX, Athlon (K7), Duron, Opteron, Sempron, Turion or Phenom; Transmeta Efficeon; VIA C3 "Nehemiah" or C7 processors
p76
sVhardware
p77
Vmodern PCs
p78
ss(Vimage
p79
g5
tp80
(dp81
Vsuggests
p82
Vcrda
p83
sVbootloaders
p84
(lp85
Vgrub-pc
p86
aVextlinux
p87
aVgrub-efi-ia32
p88
asVbreaks
p89
Vxserver-xorg-input-vmmouse (<< 1:13.0.99)
p90
sVinstall-stem
p91
Vvmlinuz
p92
ss(Vdescription
p93
g32
NVaptosid-amd64
p94
tp95
(dp96
Vhardware-long
p97
VPCs with AMD64 or Intel 64 processors
p98
sVhardware
p99
V64-bit PCs
p100
ss(Vbase
p101
g32
g40
tp102
(dp103
g9
(lp104
Vaptosid-amd64
p105
asg12
I01
ss(Vversion
p106
tp107
(dp108
Vabiname_base
p109
V4.8.0
p110
sVsource
p111
V4.8-20
p112
sVabiname
p113
V4.8.0-12.slh.1
p114
sVupstream
p115
V4.8
p116
ss(Vbase
p117
g5
tp118
(dp119
Vkernel-arch
p120
Vx86
p121
sVfeaturesets
p122
(lp123
g39
ag6
ass(Vdescription
p124
g32
g40
Vaptosid-amd64
p125
tp126
(dp127
Vparts
p128
(lp129
Vxen
p130
ass(Vxen
p131
g32
g40
Vaptosid-amd64
p132
tp133
(dp134
Vflavours
p135
(lp136
Vaptosid-amd64
p137
ass(Vbase
p138
tp139
(dp140
Varches
p141
(lp142
Vamd64
p143
aVi386
p144
asVcompiler
p145
Vgcc-6
p146
sVfeaturesets
p147
(lp148
Vnone
p149
ass(Vbuild
p150
g32
tp151
(dp152
Vdebug-info
p153
I00
sVimage-file
p154
Varch/x86/boot/bzImage
p155
sstp156
Rp157
.