ccopy_reg
_reconstructor
p0
(cdebian_linux.config
ConfigCore
p1
c__builtin__
dict
p2
(dp3
(Vdescription
p4
Vamd64
p5
Vnone
p6
Vaptosid-amd64
p7
tp8
(dp9
Vparts
p10
(lp11
Vxen
p12
ass(Vimage
p13
g5
NVaptosid-amd64
p14
tp15
(dp16
Vconfigs
p17
(lp18
Vkernelarch-x86/config-arch-64
p19
ass(Vxen
p20
g5
g6
Vaptosid-amd64
p21
tp22
(dp23
Vflavours
p24
(lp25
Vaptosid-amd64
p26
ass(Vbuild
p27
g5
tp28
(dp29
Vdebug-info
p30
I00
sVimage-file
p31
Varch/x86/boot/bzImage
p32
ss(Vdescription
p33
tp34
(dp35
Vpart-long-xen
p36
VThis kernel also runs on a Xen hypervisor.\u000aIt supports both privileged (dom0) and unprivileged (domU) operation.
p37
sVpart-long-up
p38
VThis kernel is not suitable for SMP (multi-processor,\u000amulti-core or hyper-threaded) systems.
p39
ss(Vimage
p40
Vi386
p41
tp42
(dp43
Vinstall-stem
p44
Vvmlinuz
p45
sVsuggests
p46
Vcrda
p47
sVbootloaders
p48
(lp49
Vgrub-pc
p50
aVextlinux
p51
aVgrub-efi-ia32
p52
asVconfigs
p53
(lp54
ss(Vbase
p55
g5
g6
tp56
(dp57
Vimplicit-flavour
p58
I01
sVflavours
p59
(lp60
Vaptosid-amd64
p61
ass(Vimage
p62
g5
tp63
(dp64
Vinstall-stem
p65
Vvmlinuz
p66
sVsuggests
p67
Vcrda
p68
sVbootloaders
p69
(lp70
Vgrub-pc
p71
aVextlinux
p72
aVgrub-efi-amd64
p73
asVconfigs
p74
(lp75
ss(Vbase
p76
tp77
(dp78
Vfeaturesets
p79
(lp80
Vnone
p81
asVarches
p82
(lp83
Vamd64
p84
aVi386
p85
asVcompiler
p86
Vgcc-5
p87
ss(Vdescription
p88
g5
NVaptosid-amd64
p89
tp90
(dp91
Vhardware
p92
V64-bit PCs
p93
sVhardware-long
p94
VPCs with AMD64 or Intel 64 processors
p95
ss(Vimage
p96
g41
NVaptosid-686
p97
tp98
(dp99
Vrecommends
p100
Vlibc6-i686
p101
sVconfigs
p102
(lp103
Vkernelarch-x86/config-arch-32
p104
ass(Vbase
p105
g41
tp106
(dp107
Vfeaturesets
p108
(lp109
Vnone
p110
aVnone
p111
asVkernel-arch
p112
Vx86
p113
ss(Vrelations
p114
tp115
(dp116
Vgcc-5
p117
Vgcc-5
p118
sVinitramfs-fallback
p119
Vlinux-initramfs-tool
p120
sVinitramfs-tools
p121
Vinitramfs-tools (>= 0.121~)
p122
ss(Vabi
p123
tp124
(dp125
Vabiname
p126
V1.slh.3
p127
ss(Vbase
p128
g5
tp129
(dp130
Vfeaturesets
p131
(lp132
g110
ag6
asVkernel-arch
p133
Vx86
p134
ss(Vdescription
p135
g41
NVaptosid-686
p136
tp137
(dp138
Vhardware
p139
Vmodern PCs
p140
sVhardware-long
p141
VPCs with Intel Pentium Pro/II/III/4/4M/D/M, Xeon, Celeron, Core or Atom; AMD Geode LX/NX, Athlon (K7), Duron, Opteron, Sempron, Turion or Phenom; Transmeta Efficeon; VIA C3 "Nehemiah" or C7 processors
p142
ss(Vversion
p143
tp144
(dp145
Vupstream
p146
V4.5
p147
sVabiname_base
p148
V4.5.0
p149
sVabiname
p150
V4.5.0-1.slh.3
p151
sVsource
p152
V4.5-6
p153
ss(Vbuild
p154
g41
tp155
(dp156
Vdebug-info
p157
I00
sVimage-file
p158
Varch/x86/boot/bzImage
p159
ss(Vimage
p160
tp161
(dp162
Vinitramfs-generators
p163
(lp164
Vinitramfs-tools
p165
aVinitramfs-fallback
p166
asVtype
p167
Vplain
p168
ss(Vbase
p169
g41
g111
tp170
(dp171
g58
I01
sg59
(lp172
Vaptosid-686
p173
asstp174
Rp175
.