ccopy_reg
_reconstructor
p0
(cdebian_linux.config
ConfigCore
p1
c__builtin__
dict
p2
(dp3
(Vbuild
p4
Vi386
p5
tp6
(dp7
Vimage-file
p8
Varch/x86/boot/bzImage
p9
sVdebug-info
p10
I00
ss(Vdescription
p11
tp12
(dp13
Vpart-long-up
p14
VThis kernel is not suitable for SMP (multi-processor,\u000amulti-core or hyper-threaded) systems.
p15
sVpart-long-xen
p16
VThis kernel also runs on a Xen hypervisor.\u000aIt supports both privileged (dom0) and unprivileged (domU) operation.
p17
ss(Vbase
p18
g5
tp19
(dp20
Vkernel-arch
p21
Vx86
p22
sVfeaturesets
p23
(lp24
Vnone
p25
aVnone
p26
ass(Vdescription
p27
Vamd64
p28
NVaptosid-amd64
p29
tp30
(dp31
Vhardware-long
p32
VPCs with AMD64 or Intel 64 processors
p33
sVhardware
p34
V64-bit PCs
p35
ss(Vdescription
p36
g5
NVaptosid-686
p37
tp38
(dp39
Vhardware-long
p40
VPCs with Intel Pentium Pro/II/III/4/4M/D/M, Xeon, Celeron, Core or Atom; AMD Geode LX/NX, Athlon (K7), Duron, Opteron, Sempron, Turion or Phenom; Transmeta Efficeon; VIA C3 "Nehemiah" or C7 processors
p41
sVhardware
p42
Vmodern PCs
p43
ss(Vbuild
p44
g28
tp45
(dp46
Vimage-file
p47
Varch/x86/boot/bzImage
p48
sVdebug-info
p49
I00
ss(Vbase
p50
g28
tp51
(dp52
Vkernel-arch
p53
Vx86
p54
sVfeaturesets
p55
(lp56
g25
aVnone
p57
ass(Vbase
p58
g28
g57
tp59
(dp60
Vflavours
p61
(lp62
Vaptosid-amd64
p63
asVimplicit-flavour
p64
I01
ss(Vbase
p65
g5
g26
tp66
(dp67
g61
(lp68
Vaptosid-686
p69
asg64
I01
ss(Vversion
p70
tp71
(dp72
Vsource
p73
V4.13-10
p74
sVabiname_base
p75
V4.13.0
p76
sVupstream
p77
V4.13
p78
sVabiname
p79
V4.13.0-4.slh.3
p80
ss(Vimage
p81
g5
tp82
(dp83
Vsuggests
p84
Vcrda
p85
sVinstall-stem
p86
Vvmlinuz
p87
sVbootloaders
p88
(lp89
Vgrub-pc
p90
aVextlinux
p91
aVgrub-efi-ia32
p92
asVbreaks
p93
Vxserver-xorg-input-vmmouse (<< 1:13.0.99)
p94
ss(Vabi
p95
tp96
(dp97
Vabiname
p98
V4.slh.3
p99
ss(Vrelations
p100
tp101
(dp102
Vgcc-7
p103
Vgcc-7
p104
sVinitramfs-fallback
p105
Vlinux-initramfs-tool
p106
sVinitramfs-tools
p107
Vinitramfs-tools (>= 0.121~)
p108
ss(Vdescription
p109
g28
g57
Vaptosid-amd64
p110
tp111
(dp112
Vparts
p113
(lp114
Vxen
p115
ass(Vimage
p116
tp117
(dp118
Vinitramfs-generators
p119
(lp120
Vinitramfs-tools
p121
aVinitramfs-fallback
p122
ass(Vbase
p123
tp124
(dp125
Varches
p126
(lp127
Vamd64
p128
aVi386
p129
asVcompiler
p130
Vgcc-7
p131
sVfeaturesets
p132
(lp133
Vnone
p134
ass(Vimage
p135
g28
tp136
(dp137
Vsuggests
p138
Vcrda
p139
sVinstall-stem
p140
Vvmlinuz
p141
sVbootloaders
p142
(lp143
Vgrub-pc
p144
aVextlinux
p145
aVgrub-efi-amd64
p146
asVbreaks
p147
Vxserver-xorg-input-vmmouse (<< 1:13.0.99)
p148
sstp149
Rp150
.