ccopy_reg
_reconstructor
p0
(cdebian_linux.config
ConfigCore
p1
c__builtin__
dict
p2
(dp3
(Vabi
p4
tp5
(dp6
Vabiname
p7
V2.slh.3
p8
ss(Vbase
p9
Vi386
p10
Vnone
p11
tp12
(dp13
Vimplicit-flavour
p14
I01
sVflavours
p15
(lp16
Vaptosid-686
p17
ass(Vimage
p18
tp19
(dp20
Vtype
p21
Vplain
p22
sVinitramfs-generators
p23
(lp24
Vinitramfs-tools
p25
aVinitramfs-fallback
p26
ass(Vversion
p27
tp28
(dp29
Vabiname
p30
V4.4.0-2.slh.3
p31
sVabiname_base
p32
V4.4.0
p33
sVsource
p34
V4.4-12
p35
sVupstream
p36
V4.4
p37
ss(Vbase
p38
g10
tp39
(dp40
Vfeaturesets
p41
(lp42
Vnone
p43
ag11
asVkernel-arch
p44
Vx86
p45
ss(Vbuild
p46
Vamd64
p47
tp48
(dp49
Vimage-file
p50
Varch/x86/boot/bzImage
p51
sVdebug-info
p52
I00
ss(Vxen
p53
g47
Vnone
p54
Vaptosid-amd64
p55
tp56
(dp57
Vflavours
p58
(lp59
Vaptosid-amd64
p60
ass(Vimage
p61
g10
NVaptosid-686
p62
tp63
(dp64
Vconfigs
p65
(lp66
Vkernelarch-x86/config-arch-32
p67
asVrecommends
p68
Vlibc6-i686
p69
ss(Vdescription
p70
tp71
(dp72
Vpart-long-xen
p73
VThis kernel also runs on a Xen hypervisor.\u000aIt supports both privileged (dom0) and unprivileged (domU) operation.
p74
sVpart-long-up
p75
VThis kernel is not suitable for SMP (multi-processor,\u000amulti-core or hyper-threaded) systems.
p76
ss(Vimage
p77
g47
tp78
(dp79
Vsuggests
p80
Vcrda
p81
sVconfigs
p82
(lp83
sVbootloaders
p84
(lp85
Vgrub-pc
p86
aVextlinux
p87
aVgrub-efi-amd64
p88
asVinstall-stem
p89
Vvmlinuz
p90
ss(Vdescription
p91
g47
g54
Vaptosid-amd64
p92
tp93
(dp94
Vparts
p95
(lp96
Vxen
p97
ass(Vdescription
p98
g10
NVaptosid-686
p99
tp100
(dp101
Vhardware-long
p102
VPCs with Intel Pentium Pro/II/III/4/4M/D/M, Xeon, Celeron, Core or Atom; AMD Geode LX/NX, Athlon (K7), Duron, Opteron, Sempron, Turion or Phenom; Transmeta Efficeon; VIA C3 "Nehemiah" or C7 processors
p103
sVhardware
p104
Vmodern PCs
p105
ss(Vbase
p106
g47
tp107
(dp108
Vfeaturesets
p109
(lp110
g43
ag54
asVkernel-arch
p111
Vx86
p112
ss(Vdescription
p113
g47
NVaptosid-amd64
p114
tp115
(dp116
Vhardware-long
p117
VPCs with AMD64 or Intel 64 processors
p118
sVhardware
p119
V64-bit PCs
p120
ss(Vbuild
p121
g10
tp122
(dp123
Vimage-file
p124
Varch/x86/boot/bzImage
p125
sVdebug-info
p126
I00
ss(Vimage
p127
g47
NVaptosid-amd64
p128
tp129
(dp130
Vconfigs
p131
(lp132
Vkernelarch-x86/config-arch-64
p133
ass(Vbase
p134
tp135
(dp136
Varches
p137
(lp138
Vamd64
p139
aVi386
p140
asVcompiler
p141
Vgcc-5
p142
sVfeaturesets
p143
(lp144
Vnone
p145
ass(Vimage
p146
g10
tp147
(dp148
Vsuggests
p149
Vcrda
p150
sVconfigs
p151
(lp152
sVbootloaders
p153
(lp154
Vgrub-pc
p155
aVextlinux
p156
aVgrub-efi-ia32
p157
asVinstall-stem
p158
Vvmlinuz
p159
ss(Vbase
p160
g47
g54
tp161
(dp162
g14
I01
sg15
(lp163
Vaptosid-amd64
p164
ass(Vrelations
p165
tp166
(dp167
Vinitramfs-tools
p168
Vinitramfs-tools (>= 0.118+c0.aptosid.1~)
p169
sVgcc-5
p170
Vgcc-5
p171
sVinitramfs-fallback
p172
Vlinux-initramfs-tool
p173
sstp174
Rp175
.