ccopy_reg
_reconstructor
p0
(cdebian_linux.config
ConfigCore
p1
c__builtin__
dict
p2
(dp3
(Vxen
p4
Vamd64
p5
Vnone
p6
Vaptosid-amd64
p7
tp8
(dp9
Vflavours
p10
(lp11
Vaptosid-amd64
p12
ass(Vbuild
p13
Vi386
p14
tp15
(dp16
Vdebug-info
p17
I00
sVimage-file
p18
Varch/x86/boot/bzImage
p19
ss(Vversion
p20
tp21
(dp22
Vabiname
p23
V4.8.0-4.slh.2
p24
sVabiname_base
p25
V4.8.0
p26
sVsource
p27
V4.8-8
p28
sVupstream
p29
V4.8
p30
ss(Vimage
p31
g5
tp32
(dp33
Vbreaks
p34
Vxserver-xorg-input-vmmouse (<< 1:13.0.99)
p35
sVinstall-stem
p36
Vvmlinuz
p37
sVsuggests
p38
Vcrda
p39
sVbootloaders
p40
(lp41
Vgrub-pc
p42
aVextlinux
p43
aVgrub-efi-amd64
p44
ass(Vabi
p45
tp46
(dp47
Vabiname
p48
V4.slh.2
p49
ss(Vimage
p50
g14
tp51
(dp52
Vbreaks
p53
Vxserver-xorg-input-vmmouse (<< 1:13.0.99)
p54
sVinstall-stem
p55
Vvmlinuz
p56
sVsuggests
p57
Vcrda
p58
sVbootloaders
p59
(lp60
Vgrub-pc
p61
aVextlinux
p62
aVgrub-efi-ia32
p63
ass(Vrelations
p64
tp65
(dp66
Vinitramfs-fallback
p67
Vlinux-initramfs-tool
p68
sVgcc-6
p69
Vgcc-6
p70
sVinitramfs-tools
p71
Vinitramfs-tools (>= 0.121~)
p72
ss(Vdescription
p73
tp74
(dp75
Vpart-long-xen
p76
VThis kernel also runs on a Xen hypervisor.\u000aIt supports both privileged (dom0) and unprivileged (domU) operation.
p77
sVpart-long-up
p78
VThis kernel is not suitable for SMP (multi-processor,\u000amulti-core or hyper-threaded) systems.
p79
ss(Vbase
p80
g14
tp81
(dp82
Vkernel-arch
p83
Vx86
p84
sVfeaturesets
p85
(lp86
Vnone
p87
aVnone
p88
ass(Vbase
p89
g5
g6
tp90
(dp91
Vimplicit-flavour
p92
I01
sVflavours
p93
(lp94
Vaptosid-amd64
p95
ass(Vbase
p96
tp97
(dp98
Varches
p99
(lp100
Vamd64
p101
aVi386
p102
asVfeaturesets
p103
(lp104
Vnone
p105
asVcompiler
p106
Vgcc-6
p107
ss(Vbase
p108
g14
g88
tp109
(dp110
g92
I01
sg93
(lp111
Vaptosid-686
p112
ass(Vbase
p113
g5
tp114
(dp115
Vkernel-arch
p116
Vx86
p117
sVfeaturesets
p118
(lp119
g87
ag6
ass(Vimage
p120
tp121
(dp122
Vinitramfs-generators
p123
(lp124
Vinitramfs-tools
p125
aVinitramfs-fallback
p126
ass(Vbuild
p127
g5
tp128
(dp129
Vdebug-info
p130
I00
sVimage-file
p131
Varch/x86/boot/bzImage
p132
ss(Vdescription
p133
g5
g6
Vaptosid-amd64
p134
tp135
(dp136
Vparts
p137
(lp138
Vxen
p139
ass(Vdescription
p140
g5
NVaptosid-amd64
p141
tp142
(dp143
Vhardware-long
p144
VPCs with AMD64 or Intel 64 processors
p145
sVhardware
p146
V64-bit PCs
p147
ss(Vdescription
p148
g14
NVaptosid-686
p149
tp150
(dp151
Vhardware-long
p152
VPCs with Intel Pentium Pro/II/III/4/4M/D/M, Xeon, Celeron, Core or Atom; AMD Geode LX/NX, Athlon (K7), Duron, Opteron, Sempron, Turion or Phenom; Transmeta Efficeon; VIA C3 "Nehemiah" or C7 processors
p153
sVhardware
p154
Vmodern PCs
p155
sstp156
Rp157
.