ccopy_reg
_reconstructor
p0
(cdebian_linux.config
ConfigCore
p1
c__builtin__
dict
p2
(dp3
(Vimage
p4
Vi386
p5
NVaptosid-686
p6
tp7
(dp8
Vrecommends
p9
Vlibc6-i686
p10
sVconfigs
p11
(lp12
Vkernelarch-x86/config-arch-32
p13
ass(Vabi
p14
tp15
(dp16
Vabiname
p17
V0.slh.3
p18
ss(Vbase
p19
Vamd64
p20
tp21
(dp22
Vkernel-arch
p23
Vx86
p24
sVfeaturesets
p25
(lp26
Vnone
p27
aVnone
p28
ass(Vbase
p29
g5
Vnone
p30
tp31
(dp32
Vimplicit-flavour
p33
I01
sVflavours
p34
(lp35
Vaptosid-686
p36
ass(Vdescription
p37
g5
NVaptosid-686
p38
tp39
(dp40
Vhardware-long
p41
VPCs with Intel Pentium Pro/II/III/4/4M/D/M, Xeon, Celeron, Core or Atom; AMD Geode LX/NX, Athlon (K7), Duron, Opteron, Sempron, Turion or Phenom; Transmeta Efficeon; VIA C3 "Nehemiah" or C7 processors
p42
sVhardware
p43
Vmodern PCs
p44
ss(Vbuild
p45
g20
tp46
(dp47
Vdebug-info
p48
I00
sVimage-file
p49
Varch/x86/boot/bzImage
p50
ss(Vrelations
p51
tp52
(dp53
Vinitramfs-tools
p54
Vinitramfs-tools (>= 0.118+c0.aptosid.1~)
p55
sVgcc-5
p56
Vgcc-5
p57
sVinitramfs-fallback
p58
Vlinux-initramfs-tool
p59
ss(Vdescription
p60
tp61
(dp62
Vpart-long-xen
p63
VThis kernel also runs on a Xen hypervisor.\u000aIt supports both privileged (dom0) and unprivileged (domU) operation.
p64
sVpart-long-up
p65
VThis kernel is not suitable for SMP (multi-processor,\u000amulti-core or hyper-threaded) systems.
p66
ss(Vimage
p67
g20
NVaptosid-amd64
p68
tp69
(dp70
Vconfigs
p71
(lp72
Vkernelarch-x86/config-arch-64
p73
ass(Vimage
p74
g20
tp75
(dp76
Vsuggests
p77
Vcrda
p78
sVinstall-stem
p79
Vvmlinuz
p80
sVbootloaders
p81
(lp82
Vgrub-pc
p83
aVextlinux
p84
aVgrub-efi-amd64
p85
asVconfigs
p86
(lp87
ss(Vbase
p88
g20
g28
tp89
(dp90
g33
I01
sg34
(lp91
Vaptosid-amd64
p92
ass(Vbase
p93
g5
tp94
(dp95
Vkernel-arch
p96
Vx86
p97
sVfeaturesets
p98
(lp99
g27
ag30
ass(Vdescription
p100
g20
g28
Vaptosid-amd64
p101
tp102
(dp103
Vparts
p104
(lp105
Vxen
p106
ass(Vimage
p107
g5
tp108
(dp109
Vsuggests
p110
Vcrda
p111
sVinstall-stem
p112
Vvmlinuz
p113
sVbootloaders
p114
(lp115
Vgrub-pc
p116
aVextlinux
p117
aVgrub-efi-ia32
p118
asVconfigs
p119
(lp120
ss(Vbase
p121
tp122
(dp123
Vcompiler
p124
Vgcc-5
p125
sVarches
p126
(lp127
Vamd64
p128
aVi386
p129
asVfeaturesets
p130
(lp131
Vnone
p132
ass(Vdescription
p133
g20
NVaptosid-amd64
p134
tp135
(dp136
Vhardware-long
p137
VPCs with AMD64 or Intel 64 processors
p138
sVhardware
p139
V64-bit PCs
p140
ss(Vxen
p141
g20
g28
Vaptosid-amd64
p142
tp143
(dp144
Vflavours
p145
(lp146
Vaptosid-amd64
p147
ass(Vimage
p148
tp149
(dp150
Vinitramfs-generators
p151
(lp152
Vinitramfs-tools
p153
aVinitramfs-fallback
p154
asVtype
p155
Vplain
p156
ss(Vversion
p157
tp158
(dp159
Vsource
p160
V4.3-3
p161
sVabiname
p162
V4.3.0-0.slh.3
p163
sVupstream
p164
V4.3
p165
sVabiname_base
p166
V4.3.0
p167
ss(Vbuild
p168
g5
tp169
(dp170
Vdebug-info
p171
I00
sVimage-file
p172
Varch/x86/boot/bzImage
p173
sstp174
Rp175
.