ccopy_reg
_reconstructor
p0
(cdebian_linux.config
ConfigCore
p1
c__builtin__
dict
p2
(dp3
(Vbase
p4
Vi386
p5
tp6
(dp7
Vfeaturesets
p8
(lp9
Vnone
p10
aVnone
p11
asVkernel-arch
p12
Vx86
p13
ss(Vversion
p14
tp15
(dp16
Vabiname_base
p17
V4.9.0
p18
sVsource
p19
V4.9-17
p20
sVabiname
p21
V4.9.0-10.slh.1
p22
sVupstream
p23
V4.9
p24
ss(Vbase
p25
g5
g11
tp26
(dp27
Vimplicit-flavour
p28
I01
sVflavours
p29
(lp30
Vaptosid-686
p31
ass(Vdescription
p32
Vamd64
p33
NVaptosid-amd64
p34
tp35
(dp36
Vhardware-long
p37
VPCs with AMD64 or Intel 64 processors
p38
sVhardware
p39
V64-bit PCs
p40
ss(Vimage
p41
g33
tp42
(dp43
Vsuggests
p44
Vcrda
p45
sVbreaks
p46
Vxserver-xorg-input-vmmouse (<< 1:13.0.99)
p47
sVbootloaders
p48
(lp49
Vgrub-pc
p50
aVextlinux
p51
aVgrub-efi-amd64
p52
asVinstall-stem
p53
Vvmlinuz
p54
ss(Vimage
p55
tp56
(dp57
Vinitramfs-generators
p58
(lp59
Vinitramfs-tools
p60
aVinitramfs-fallback
p61
ass(Vrelations
p62
tp63
(dp64
Vgcc-6
p65
Vgcc-6
p66
sVinitramfs-tools
p67
Vinitramfs-tools (>= 0.121~)
p68
sVinitramfs-fallback
p69
Vlinux-initramfs-tool
p70
ss(Vbase
p71
g33
tp72
(dp73
Vfeaturesets
p74
(lp75
g10
aVnone
p76
asVkernel-arch
p77
Vx86
p78
ss(Vbuild
p79
g33
tp80
(dp81
Vimage-file
p82
Varch/x86/boot/bzImage
p83
sVdebug-info
p84
I00
ss(Vbase
p85
tp86
(dp87
Vfeaturesets
p88
(lp89
Vnone
p90
asVarches
p91
(lp92
Vamd64
p93
aVi386
p94
asVcompiler
p95
Vgcc-6
p96
ss(Vdescription
p97
g33
g76
Vaptosid-amd64
p98
tp99
(dp100
Vparts
p101
(lp102
Vxen
p103
ass(Vabi
p104
tp105
(dp106
Vabiname
p107
V10.slh.1
p108
ss(Vimage
p109
g5
tp110
(dp111
Vsuggests
p112
Vcrda
p113
sVbreaks
p114
Vxserver-xorg-input-vmmouse (<< 1:13.0.99)
p115
sVbootloaders
p116
(lp117
Vgrub-pc
p118
aVextlinux
p119
aVgrub-efi-ia32
p120
asVinstall-stem
p121
Vvmlinuz
p122
ss(Vdescription
p123
tp124
(dp125
Vpart-long-up
p126
VThis kernel is not suitable for SMP (multi-processor,\u000amulti-core or hyper-threaded) systems.
p127
sVpart-long-xen
p128
VThis kernel also runs on a Xen hypervisor.\u000aIt supports both privileged (dom0) and unprivileged (domU) operation.
p129
ss(Vbase
p130
g33
g76
tp131
(dp132
g28
I01
sg29
(lp133
Vaptosid-amd64
p134
ass(Vbuild
p135
g5
tp136
(dp137
Vimage-file
p138
Varch/x86/boot/bzImage
p139
sVdebug-info
p140
I00
ss(Vdescription
p141
g5
NVaptosid-686
p142
tp143
(dp144
Vhardware-long
p145
VPCs with Intel Pentium Pro/II/III/4/4M/D/M, Xeon, Celeron, Core or Atom; AMD Geode LX/NX, Athlon (K7), Duron, Opteron, Sempron, Turion or Phenom; Transmeta Efficeon; VIA C3 "Nehemiah" or C7 processors
p146
sVhardware
p147
Vmodern PCs
p148
sstp149
Rp150
.