ccopy_reg
_reconstructor
p0
(cdebian_linux.config
ConfigCore
p1
c__builtin__
dict
p2
(dp3
(Vdescription
p4
tp5
(dp6
Vpart-long-xen
p7
VThis kernel also runs on a Xen hypervisor.\u000aIt supports both privileged (dom0) and unprivileged (domU) operation.
p8
sVpart-long-up
p9
VThis kernel is not suitable for SMP (multi-processor,\u000amulti-core or hyper-threaded) systems.
p10
ss(Vdescription
p11
Vamd64
p12
Vnone
p13
Vaptosid-amd64
p14
tp15
(dp16
Vparts
p17
(lp18
Vxen
p19
ass(Vrelations
p20
tp21
(dp22
Vinitramfs-tools
p23
Vinitramfs-tools (>= 0.118+c0.aptosid.1~)
p24
sVinitramfs-fallback
p25
Vlinux-initramfs-tool
p26
sVgcc-5
p27
Vgcc-5
p28
ss(Vimage
p29
tp30
(dp31
Vtype
p32
Vplain
p33
sVinitramfs-generators
p34
(lp35
Vinitramfs-tools
p36
aVinitramfs-fallback
p37
ass(Vdescription
p38
Vi386
p39
NVaptosid-686
p40
tp41
(dp42
Vhardware
p43
Vmodern PCs
p44
sVhardware-long
p45
VPCs with Intel Pentium Pro/II/III/4/4M/D/M, Xeon, Celeron, Core or Atom; AMD Geode LX/NX, Athlon (K7), Duron, Opteron, Sempron, Turion or Phenom; Transmeta Efficeon; VIA C3 "Nehemiah" or C7 processors
p46
ss(Vbuild
p47
g12
tp48
(dp49
Vimage-file
p50
Varch/x86/boot/bzImage
p51
sVdebug-info
p52
I00
ss(Vimage
p53
g12
NVaptosid-amd64
p54
tp55
(dp56
Vconfigs
p57
(lp58
Vkernelarch-x86/config-arch-64
p59
ass(Vbase
p60
tp61
(dp62
Vfeaturesets
p63
(lp64
Vnone
p65
asVcompiler
p66
Vgcc-5
p67
sVarches
p68
(lp69
Vamd64
p70
aVi386
p71
ass(Vversion
p72
tp73
(dp74
Vabiname
p75
V4.3.0-1.slh.2
p76
sVabiname_base
p77
V4.3.0
p78
sVupstream
p79
V4.3
p80
sVsource
p81
V4.3-7
p82
ss(Vbuild
p83
g39
tp84
(dp85
Vimage-file
p86
Varch/x86/boot/bzImage
p87
sVdebug-info
p88
I00
ss(Vbase
p89
g39
Vnone
p90
tp91
(dp92
Vimplicit-flavour
p93
I01
sVflavours
p94
(lp95
Vaptosid-686
p96
ass(Vbase
p97
g39
tp98
(dp99
Vfeaturesets
p100
(lp101
Vnone
p102
ag90
asVkernel-arch
p103
Vx86
p104
ss(Vimage
p105
g39
NVaptosid-686
p106
tp107
(dp108
Vrecommends
p109
Vlibc6-i686
p110
sVconfigs
p111
(lp112
Vkernelarch-x86/config-arch-32
p113
ass(Vimage
p114
g39
tp115
(dp116
Vsuggests
p117
Vcrda
p118
sVconfigs
p119
(lp120
sVinstall-stem
p121
Vvmlinuz
p122
sVbootloaders
p123
(lp124
Vgrub-pc
p125
aVextlinux
p126
aVgrub-efi-ia32
p127
ass(Vxen
p128
g12
g13
Vaptosid-amd64
p129
tp130
(dp131
Vflavours
p132
(lp133
Vaptosid-amd64
p134
ass(Vabi
p135
tp136
(dp137
Vabiname
p138
V1.slh.2
p139
ss(Vbase
p140
g12
g13
tp141
(dp142
g93
I01
sg94
(lp143
Vaptosid-amd64
p144
ass(Vbase
p145
g12
tp146
(dp147
Vfeaturesets
p148
(lp149
g102
ag13
asVkernel-arch
p150
Vx86
p151
ss(Vimage
p152
g12
tp153
(dp154
Vsuggests
p155
Vcrda
p156
sVconfigs
p157
(lp158
sVinstall-stem
p159
Vvmlinuz
p160
sVbootloaders
p161
(lp162
Vgrub-pc
p163
aVextlinux
p164
aVgrub-efi-amd64
p165
ass(Vdescription
p166
g12
NVaptosid-amd64
p167
tp168
(dp169
Vhardware
p170
V64-bit PCs
p171
sVhardware-long
p172
VPCs with AMD64 or Intel 64 processors
p173
sstp174
Rp175
.