ccopy_reg
_reconstructor
p0
(cdebian_linux.config
ConfigCore
p1
c__builtin__
dict
p2
(dp3
(Vimage
p4
tp5
(dp6
Vinitramfs-generators
p7
(lp8
Vinitramfs-tools
p9
aVinitramfs-fallback
p10
ass(Vdescription
p11
Vamd64
p12
NVaptosid-amd64
p13
tp14
(dp15
Vhardware-long
p16
VPCs with AMD64 or Intel 64 processors
p17
sVhardware
p18
V64-bit PCs
p19
ss(Vbuild
p20
Vi386
p21
tp22
(dp23
Vdebug-info
p24
I00
sVimage-file
p25
Varch/x86/boot/bzImage
p26
ss(Vdescription
p27
tp28
(dp29
Vpart-long-up
p30
VThis kernel is not suitable for SMP (multi-processor,\u000amulti-core or hyper-threaded) systems.
p31
sVpart-long-xen
p32
VThis kernel also runs on a Xen hypervisor.\u000aIt supports both privileged (dom0) and unprivileged (domU) operation.
p33
ss(Vversion
p34
tp35
(dp36
Vsource
p37
V4.10-17
p38
sVupstream
p39
V4.10
p40
sVabiname_base
p41
V4.10.0
p42
sVabiname
p43
V4.10.0-11.slh.1
p44
ss(Vrelations
p45
tp46
(dp47
Vinitramfs-tools
p48
Vinitramfs-tools (>= 0.121~)
p49
sVinitramfs-fallback
p50
Vlinux-initramfs-tool
p51
sVgcc-6
p52
Vgcc-6
p53
ss(Vimage
p54
g21
tp55
(dp56
Vsuggests
p57
Vcrda
p58
sVinstall-stem
p59
Vvmlinuz
p60
sVbreaks
p61
Vxserver-xorg-input-vmmouse (<< 1:13.0.99)
p62
sVbootloaders
p63
(lp64
Vgrub-pc
p65
aVextlinux
p66
aVgrub-efi-ia32
p67
ass(Vdescription
p68
g21
NVaptosid-686
p69
tp70
(dp71
Vhardware-long
p72
VPCs with Intel Pentium Pro/II/III/4/4M/D/M, Xeon, Celeron, Core or Atom; AMD Geode LX/NX, Athlon (K7), Duron, Opteron, Sempron, Turion or Phenom; Transmeta Efficeon; VIA C3 "Nehemiah" or C7 processors
p73
sVhardware
p74
Vmodern PCs
p75
ss(Vbase
p76
g21
tp77
(dp78
Vkernel-arch
p79
Vx86
p80
sVfeaturesets
p81
(lp82
Vnone
p83
aVnone
p84
ass(Vdescription
p85
g12
Vnone
p86
Vaptosid-amd64
p87
tp88
(dp89
Vparts
p90
(lp91
Vxen
p92
ass(Vabi
p93
tp94
(dp95
Vabiname
p96
V11.slh.1
p97
ss(Vbase
p98
g12
g86
tp99
(dp100
Vflavours
p101
(lp102
Vaptosid-amd64
p103
asVimplicit-flavour
p104
I01
ss(Vbuild
p105
g12
tp106
(dp107
Vdebug-info
p108
I00
sVimage-file
p109
Varch/x86/boot/bzImage
p110
ss(Vbase
p111
tp112
(dp113
Varches
p114
(lp115
Vamd64
p116
aVi386
p117
asVfeaturesets
p118
(lp119
Vnone
p120
asVcompiler
p121
Vgcc-6
p122
ss(Vimage
p123
g12
tp124
(dp125
Vsuggests
p126
Vcrda
p127
sVinstall-stem
p128
Vvmlinuz
p129
sVbreaks
p130
Vxserver-xorg-input-vmmouse (<< 1:13.0.99)
p131
sVbootloaders
p132
(lp133
Vgrub-pc
p134
aVextlinux
p135
aVgrub-efi-amd64
p136
ass(Vbase
p137
g21
g84
tp138
(dp139
g101
(lp140
Vaptosid-686
p141
asg104
I01
ss(Vbase
p142
g12
tp143
(dp144
Vkernel-arch
p145
Vx86
p146
sVfeaturesets
p147
(lp148
g83
ag86
asstp149
Rp150
.