ccopy_reg
_reconstructor
p0
(cdebian_linux.config
ConfigCore
p1
c__builtin__
dict
p2
(dp3
(Vimage
p4
Vi386
p5
tp6
(dp7
Vsuggests
p8
Vcrda
p9
sVinstall-stem
p10
Vvmlinuz
p11
sVbootloaders
p12
(lp13
Vgrub-pc
p14
aVextlinux
p15
aVgrub-efi-ia32
p16
asVbreaks
p17
Vxserver-xorg-input-vmmouse (<< 1:13.0.99)
p18
ss(Vdescription
p19
g5
NVaptosid-686
p20
tp21
(dp22
Vhardware-long
p23
VPCs with Intel Pentium Pro/II/III/4/4M/D/M, Xeon, Celeron, Core or Atom; AMD Geode LX/NX, Athlon (K7), Duron, Opteron, Sempron, Turion or Phenom; Transmeta Efficeon; VIA C3 "Nehemiah" or C7 processors
p24
sVhardware
p25
Vmodern PCs
p26
ss(Vimage
p27
tp28
(dp29
Vinitramfs-generators
p30
(lp31
Vinitramfs-tools
p32
aVinitramfs-fallback
p33
ass(Vbase
p34
g5
tp35
(dp36
Vkernel-arch
p37
Vx86
p38
sVfeaturesets
p39
(lp40
Vnone
p41
aVnone
p42
ass(Vbase
p43
tp44
(dp45
Vfeaturesets
p46
(lp47
Vnone
p48
asVcompiler
p49
Vgcc-6
p50
sVarches
p51
(lp52
Vamd64
p53
aVi386
p54
ass(Vdescription
p55
tp56
(dp57
Vpart-long-up
p58
VThis kernel is not suitable for SMP (multi-processor,\u000amulti-core or hyper-threaded) systems.
p59
sVpart-long-xen
p60
VThis kernel also runs on a Xen hypervisor.\u000aIt supports both privileged (dom0) and unprivileged (domU) operation.
p61
ss(Vabi
p62
tp63
(dp64
Vabiname
p65
V1.slh.2
p66
ss(Vbuild
p67
g5
tp68
(dp69
Vdebug-info
p70
I00
sVimage-file
p71
Varch/x86/boot/bzImage
p72
ss(Vdescription
p73
Vamd64
p74
Vnone
p75
Vaptosid-amd64
p76
tp77
(dp78
Vparts
p79
(lp80
Vxen
p81
ass(Vimage
p82
g74
tp83
(dp84
Vsuggests
p85
Vcrda
p86
sVinstall-stem
p87
Vvmlinuz
p88
sVbootloaders
p89
(lp90
Vgrub-pc
p91
aVextlinux
p92
aVgrub-efi-amd64
p93
asVbreaks
p94
Vxserver-xorg-input-vmmouse (<< 1:13.0.99)
p95
ss(Vbuild
p96
g74
tp97
(dp98
Vdebug-info
p99
I00
sVimage-file
p100
Varch/x86/boot/bzImage
p101
ss(Vbase
p102
g74
g75
tp103
(dp104
Vflavours
p105
(lp106
Vaptosid-amd64
p107
asVimplicit-flavour
p108
I01
ss(Vversion
p109
tp110
(dp111
Vupstream
p112
V4.10
p113
sVabiname
p114
V4.10.0-1.slh.2
p115
sVsource
p116
V4.10-5
p117
sVabiname_base
p118
V4.10.0
p119
ss(Vdescription
p120
g74
NVaptosid-amd64
p121
tp122
(dp123
Vhardware-long
p124
VPCs with AMD64 or Intel 64 processors
p125
sVhardware
p126
V64-bit PCs
p127
ss(Vrelations
p128
tp129
(dp130
Vgcc-6
p131
Vgcc-6
p132
sVinitramfs-fallback
p133
Vlinux-initramfs-tool
p134
sVinitramfs-tools
p135
Vinitramfs-tools (>= 0.121~)
p136
ss(Vbase
p137
g74
tp138
(dp139
Vkernel-arch
p140
Vx86
p141
sVfeaturesets
p142
(lp143
g41
ag75
ass(Vbase
p144
g5
g42
tp145
(dp146
g105
(lp147
Vaptosid-686
p148
asg108
I01
sstp149
Rp150
.