ccopy_reg
_reconstructor
p0
(cdebian_linux.config
ConfigCore
p1
c__builtin__
dict
p2
(dp3
(Vdescription
p4
Vi386
p5
NVaptosid-686
p6
tp7
(dp8
Vhardware-long
p9
VPCs with Intel Pentium Pro/II/III/4/4M/D/M, Xeon, Celeron, Core or Atom; AMD Geode LX/NX, Athlon (K7), Duron, Opteron, Sempron, Turion or Phenom; Transmeta Efficeon; VIA C3 "Nehemiah" or C7 processors
p10
sVhardware
p11
Vmodern PCs
p12
ss(Vxen
p13
Vamd64
p14
Vnone
p15
Vaptosid-amd64
p16
tp17
(dp18
Vflavours
p19
(lp20
Vaptosid-amd64
p21
ass(Vbase
p22
tp23
(dp24
Varches
p25
(lp26
Vamd64
p27
aVi386
p28
asVcompiler
p29
Vgcc-6
p30
sVfeaturesets
p31
(lp32
Vnone
p33
ass(Vbase
p34
g5
Vnone
p35
tp36
(dp37
Vflavours
p38
(lp39
Vaptosid-686
p40
asVimplicit-flavour
p41
I01
ss(Vbase
p42
g14
tp43
(dp44
Vfeaturesets
p45
(lp46
Vnone
p47
ag15
asVkernel-arch
p48
Vx86
p49
ss(Vimage
p50
g5
tp51
(dp52
Vbootloaders
p53
(lp54
Vgrub-pc
p55
aVextlinux
p56
aVgrub-efi-ia32
p57
asVinstall-stem
p58
Vvmlinuz
p59
sVsuggests
p60
Vcrda
p61
sVbreaks
p62
Vxserver-xorg-input-vmmouse (<< 1:13.0.99)
p63
ss(Vdescription
p64
tp65
(dp66
Vpart-long-xen
p67
VThis kernel also runs on a Xen hypervisor.\u000aIt supports both privileged (dom0) and unprivileged (domU) operation.
p68
sVpart-long-up
p69
VThis kernel is not suitable for SMP (multi-processor,\u000amulti-core or hyper-threaded) systems.
p70
ss(Vbuild
p71
g14
tp72
(dp73
Vimage-file
p74
Varch/x86/boot/bzImage
p75
sVdebug-info
p76
I00
ss(Vbuild
p77
g5
tp78
(dp79
Vimage-file
p80
Varch/x86/boot/bzImage
p81
sVdebug-info
p82
I00
ss(Vimage
p83
tp84
(dp85
Vinitramfs-generators
p86
(lp87
Vinitramfs-tools
p88
aVinitramfs-fallback
p89
ass(Vbase
p90
g5
tp91
(dp92
Vfeaturesets
p93
(lp94
g47
ag35
asVkernel-arch
p95
Vx86
p96
ss(Vdescription
p97
g14
NVaptosid-amd64
p98
tp99
(dp100
Vhardware-long
p101
VPCs with AMD64 or Intel 64 processors
p102
sVhardware
p103
V64-bit PCs
p104
ss(Vdescription
p105
g14
g15
Vaptosid-amd64
p106
tp107
(dp108
Vparts
p109
(lp110
Vxen
p111
ass(Vbase
p112
g14
g15
tp113
(dp114
g38
(lp115
Vaptosid-amd64
p116
asg41
I01
ss(Vabi
p117
tp118
(dp119
Vabiname
p120
V5.slh.2
p121
ss(Vrelations
p122
tp123
(dp124
Vinitramfs-tools
p125
Vinitramfs-tools (>= 0.121~)
p126
sVgcc-6
p127
Vgcc-6
p128
sVinitramfs-fallback
p129
Vlinux-initramfs-tool
p130
ss(Vimage
p131
g14
tp132
(dp133
Vbootloaders
p134
(lp135
Vgrub-pc
p136
aVextlinux
p137
aVgrub-efi-amd64
p138
asVinstall-stem
p139
Vvmlinuz
p140
sVsuggests
p141
Vcrda
p142
sVbreaks
p143
Vxserver-xorg-input-vmmouse (<< 1:13.0.99)
p144
ss(Vversion
p145
tp146
(dp147
Vupstream
p148
V4.7
p149
sVabiname
p150
V4.7.0-5.slh.2
p151
sVabiname_base
p152
V4.7.0
p153
sVsource
p154
V4.7-17
p155
sstp156
Rp157
.