ccopy_reg
_reconstructor
p0
(cdebian_linux.config
ConfigCore
p1
c__builtin__
dict
p2
(dp3
(Vdescription
p4
tp5
(dp6
Vpart-long-up
p7
VThis kernel is not suitable for SMP (multi-processor,\u000amulti-core or hyper-threaded) systems.
p8
sVpart-long-xen
p9
VThis kernel also runs on a Xen hypervisor.\u000aIt supports both privileged (dom0) and unprivileged (domU) operation.
p10
ss(Vbase
p11
tp12
(dp13
Vfeaturesets
p14
(lp15
Vnone
p16
asVcompiler
p17
Vgcc-6
p18
sVarches
p19
(lp20
Vamd64
p21
aVi386
p22
ass(Vbase
p23
Vi386
p24
tp25
(dp26
Vkernel-arch
p27
Vx86
p28
sVfeaturesets
p29
(lp30
Vnone
p31
aVnone
p32
ass(Vimage
p33
Vamd64
p34
tp35
(dp36
Vbreaks
p37
Vxserver-xorg-input-vmmouse (<< 1:13.0.99)
p38
sVinstall-stem
p39
Vvmlinuz
p40
sVsuggests
p41
Vcrda
p42
sVbootloaders
p43
(lp44
Vgrub-pc
p45
aVextlinux
p46
aVgrub-efi-amd64
p47
ass(Vdescription
p48
g24
NVaptosid-686
p49
tp50
(dp51
Vhardware
p52
Vmodern PCs
p53
sVhardware-long
p54
VPCs with Intel Pentium Pro/II/III/4/4M/D/M, Xeon, Celeron, Core or Atom; AMD Geode LX/NX, Athlon (K7), Duron, Opteron, Sempron, Turion or Phenom; Transmeta Efficeon; VIA C3 "Nehemiah" or C7 processors
p55
ss(Vimage
p56
tp57
(dp58
Vinitramfs-generators
p59
(lp60
Vinitramfs-tools
p61
aVinitramfs-fallback
p62
ass(Vbuild
p63
g24
tp64
(dp65
Vimage-file
p66
Varch/x86/boot/bzImage
p67
sVdebug-info
p68
I00
ss(Vbase
p69
g34
Vnone
p70
tp71
(dp72
Vflavours
p73
(lp74
Vaptosid-amd64
p75
asVimplicit-flavour
p76
I01
ss(Vbase
p77
g34
tp78
(dp79
Vkernel-arch
p80
Vx86
p81
sVfeaturesets
p82
(lp83
g31
ag70
ass(Vrelations
p84
tp85
(dp86
Vinitramfs-fallback
p87
Vlinux-initramfs-tool
p88
sVinitramfs-tools
p89
Vinitramfs-tools (>= 0.121~)
p90
sVgcc-6
p91
Vgcc-6
p92
ss(Vdescription
p93
g34
g70
Vaptosid-amd64
p94
tp95
(dp96
Vparts
p97
(lp98
Vxen
p99
ass(Vversion
p100
tp101
(dp102
Vsource
p103
V4.11-14
p104
sVabiname_base
p105
V4.11.0
p106
sVabiname
p107
V4.11.0-7.slh.1
p108
sVupstream
p109
V4.11
p110
ss(Vabi
p111
tp112
(dp113
Vabiname
p114
V7.slh.1
p115
ss(Vimage
p116
g24
tp117
(dp118
Vbreaks
p119
Vxserver-xorg-input-vmmouse (<< 1:13.0.99)
p120
sVinstall-stem
p121
Vvmlinuz
p122
sVsuggests
p123
Vcrda
p124
sVbootloaders
p125
(lp126
Vgrub-pc
p127
aVextlinux
p128
aVgrub-efi-ia32
p129
ass(Vdescription
p130
g34
NVaptosid-amd64
p131
tp132
(dp133
Vhardware
p134
V64-bit PCs
p135
sVhardware-long
p136
VPCs with AMD64 or Intel 64 processors
p137
ss(Vbuild
p138
g34
tp139
(dp140
Vimage-file
p141
Varch/x86/boot/bzImage
p142
sVdebug-info
p143
I00
ss(Vbase
p144
g24
g32
tp145
(dp146
g73
(lp147
Vaptosid-686
p148
asg76
I01
sstp149
Rp150
.