ccopy_reg
_reconstructor
p0
(cdebian_linux.config
ConfigCore
p1
c__builtin__
dict
p2
(dp3
(Vbase
p4
tp5
(dp6
Vcompiler
p7
Vgcc-5
p8
sVfeaturesets
p9
(lp10
Vnone
p11
asVarches
p12
(lp13
Vamd64
p14
aVi386
p15
ass(Vimage
p16
Vi386
p17
tp18
(dp19
Vinstall-stem
p20
Vvmlinuz
p21
sVconfigs
p22
(lp23
sVbootloaders
p24
(lp25
Vgrub-pc
p26
aVextlinux
p27
aVgrub-efi-ia32
p28
asVsuggests
p29
Vcrda
p30
ss(Vimage
p31
tp32
(dp33
Vinitramfs-generators
p34
(lp35
Vinitramfs-tools
p36
aVinitramfs-fallback
p37
asVtype
p38
Vplain
p39
ss(Vimage
p40
g17
NVaptosid-686
p41
tp42
(dp43
Vconfigs
p44
(lp45
Vkernelarch-x86/config-arch-32
p46
asVrecommends
p47
Vlibc6-i686
p48
ss(Vbase
p49
g17
tp50
(dp51
Vfeaturesets
p52
(lp53
Vnone
p54
aVnone
p55
asVkernel-arch
p56
Vx86
p57
ss(Vversion
p58
tp59
(dp60
Vupstream
p61
V4.4
p62
sVabiname
p63
V4.4.0-5.slh.2
p64
sVsource
p65
V4.4-18
p66
sVabiname_base
p67
V4.4.0
p68
ss(Vimage
p69
Vamd64
p70
tp71
(dp72
Vinstall-stem
p73
Vvmlinuz
p74
sVconfigs
p75
(lp76
sVbootloaders
p77
(lp78
Vgrub-pc
p79
aVextlinux
p80
aVgrub-efi-amd64
p81
asVsuggests
p82
Vcrda
p83
ss(Vbuild
p84
g17
tp85
(dp86
Vdebug-info
p87
I00
sVimage-file
p88
Varch/x86/boot/bzImage
p89
ss(Vdescription
p90
g70
Vnone
p91
Vaptosid-amd64
p92
tp93
(dp94
Vparts
p95
(lp96
Vxen
p97
ass(Vbuild
p98
g70
tp99
(dp100
Vdebug-info
p101
I00
sVimage-file
p102
Varch/x86/boot/bzImage
p103
ss(Vxen
p104
g70
g91
Vaptosid-amd64
p105
tp106
(dp107
Vflavours
p108
(lp109
Vaptosid-amd64
p110
ass(Vbase
p111
g17
g55
tp112
(dp113
Vflavours
p114
(lp115
Vaptosid-686
p116
asVimplicit-flavour
p117
I01
ss(Vbase
p118
g70
g91
tp119
(dp120
g114
(lp121
Vaptosid-amd64
p122
asg117
I01
ss(Vdescription
p123
g17
NVaptosid-686
p124
tp125
(dp126
Vhardware-long
p127
VPCs with Intel Pentium Pro/II/III/4/4M/D/M, Xeon, Celeron, Core or Atom; AMD Geode LX/NX, Athlon (K7), Duron, Opteron, Sempron, Turion or Phenom; Transmeta Efficeon; VIA C3 "Nehemiah" or C7 processors
p128
sVhardware
p129
Vmodern PCs
p130
ss(Vdescription
p131
g70
NVaptosid-amd64
p132
tp133
(dp134
Vhardware-long
p135
VPCs with AMD64 or Intel 64 processors
p136
sVhardware
p137
V64-bit PCs
p138
ss(Vdescription
p139
tp140
(dp141
Vpart-long-up
p142
VThis kernel is not suitable for SMP (multi-processor,\u000amulti-core or hyper-threaded) systems.
p143
sVpart-long-xen
p144
VThis kernel also runs on a Xen hypervisor.\u000aIt supports both privileged (dom0) and unprivileged (domU) operation.
p145
ss(Vbase
p146
g70
tp147
(dp148
Vfeaturesets
p149
(lp150
g54
ag91
asVkernel-arch
p151
Vx86
p152
ss(Vabi
p153
tp154
(dp155
Vabiname
p156
V5.slh.2
p157
ss(Vrelations
p158
tp159
(dp160
Vinitramfs-fallback
p161
Vlinux-initramfs-tool
p162
sVgcc-5
p163
Vgcc-5
p164
sVinitramfs-tools
p165
Vinitramfs-tools (>= 0.118+c0.aptosid.1~)
p166
ss(Vimage
p167
g70
NVaptosid-amd64
p168
tp169
(dp170
Vconfigs
p171
(lp172
Vkernelarch-x86/config-arch-64
p173
asstp174
Rp175
.