ccopy_reg
_reconstructor
p0
(cdebian_linux.config
ConfigCore
p1
c__builtin__
dict
p2
(dp3
(Vabi
p4
tp5
(dp6
Vabiname
p7
V1.slh.1
p8
ss(Vbase
p9
Vi386
p10
Vnone
p11
tp12
(dp13
Vimplicit-flavour
p14
I01
sVflavours
p15
(lp16
Vaptosid-686
p17
ass(Vbuild
p18
g10
tp19
(dp20
Vdebug-info
p21
I00
sVimage-file
p22
Varch/x86/boot/bzImage
p23
ss(Vversion
p24
tp25
(dp26
Vupstream
p27
V4.13
p28
sVsource
p29
V4.13-3
p30
sVabiname_base
p31
V4.13.0
p32
sVabiname
p33
V4.13.0-1.slh.1
p34
ss(Vbuild
p35
Vamd64
p36
tp37
(dp38
Vdebug-info
p39
I00
sVimage-file
p40
Varch/x86/boot/bzImage
p41
ss(Vdescription
p42
g36
NVaptosid-amd64
p43
tp44
(dp45
Vhardware
p46
V64-bit PCs
p47
sVhardware-long
p48
VPCs with AMD64 or Intel 64 processors
p49
ss(Vbase
p50
g36
tp51
(dp52
Vfeaturesets
p53
(lp54
Vnone
p55
aVnone
p56
asVkernel-arch
p57
Vx86
p58
ss(Vimage
p59
g10
tp60
(dp61
Vinstall-stem
p62
Vvmlinuz
p63
sVbreaks
p64
Vxserver-xorg-input-vmmouse (<< 1:13.0.99)
p65
sVbootloaders
p66
(lp67
Vgrub-pc
p68
aVextlinux
p69
aVgrub-efi-ia32
p70
asVsuggests
p71
Vcrda
p72
ss(Vdescription
p73
tp74
(dp75
Vpart-long-up
p76
VThis kernel is not suitable for SMP (multi-processor,\u000amulti-core or hyper-threaded) systems.
p77
sVpart-long-xen
p78
VThis kernel also runs on a Xen hypervisor.\u000aIt supports both privileged (dom0) and unprivileged (domU) operation.
p79
ss(Vimage
p80
tp81
(dp82
Vinitramfs-generators
p83
(lp84
Vinitramfs-tools
p85
aVinitramfs-fallback
p86
ass(Vbase
p87
tp88
(dp89
Vfeaturesets
p90
(lp91
Vnone
p92
asVcompiler
p93
Vgcc-7
p94
sVarches
p95
(lp96
Vamd64
p97
aVi386
p98
ass(Vrelations
p99
tp100
(dp101
Vgcc-7
p102
Vgcc-7
p103
sVinitramfs-fallback
p104
Vlinux-initramfs-tool
p105
sVinitramfs-tools
p106
Vinitramfs-tools (>= 0.121~)
p107
ss(Vimage
p108
g36
tp109
(dp110
Vinstall-stem
p111
Vvmlinuz
p112
sVbreaks
p113
Vxserver-xorg-input-vmmouse (<< 1:13.0.99)
p114
sVbootloaders
p115
(lp116
Vgrub-pc
p117
aVextlinux
p118
aVgrub-efi-amd64
p119
asVsuggests
p120
Vcrda
p121
ss(Vdescription
p122
g36
g56
Vaptosid-amd64
p123
tp124
(dp125
Vparts
p126
(lp127
Vxen
p128
ass(Vbase
p129
g10
tp130
(dp131
Vfeaturesets
p132
(lp133
g55
ag11
asVkernel-arch
p134
Vx86
p135
ss(Vdescription
p136
g10
NVaptosid-686
p137
tp138
(dp139
Vhardware
p140
Vmodern PCs
p141
sVhardware-long
p142
VPCs with Intel Pentium Pro/II/III/4/4M/D/M, Xeon, Celeron, Core or Atom; AMD Geode LX/NX, Athlon (K7), Duron, Opteron, Sempron, Turion or Phenom; Transmeta Efficeon; VIA C3 "Nehemiah" or C7 processors
p143
ss(Vbase
p144
g36
g56
tp145
(dp146
g14
I01
sg15
(lp147
Vaptosid-amd64
p148
asstp149
Rp150
.