ccopy_reg
_reconstructor
p0
(cdebian_linux.config
ConfigCore
p1
c__builtin__
dict
p2
(dp3
(Vxen
p4
Vamd64
p5
Vnone
p6
Vaptosid-amd64
p7
tp8
(dp9
Vflavours
p10
(lp11
Vaptosid-amd64
p12
ass(Vbase
p13
g5
tp14
(dp15
Vkernel-arch
p16
Vx86
p17
sVfeaturesets
p18
(lp19
Vnone
p20
ag6
ass(Vversion
p21
tp22
(dp23
Vabiname_base
p24
V4.7.0
p25
sVsource
p26
V4.7-7
p27
sVupstream
p28
V4.7
p29
sVabiname
p30
V4.7.0-0.slh.4
p31
ss(Vbase
p32
Vi386
p33
tp34
(dp35
Vkernel-arch
p36
Vx86
p37
sVfeaturesets
p38
(lp39
g20
aVnone
p40
ass(Vimage
p41
g33
tp42
(dp43
Vinstall-stem
p44
Vvmlinuz
p45
sVbreaks
p46
Vxserver-xorg-input-vmmouse (<< 1:13.0.99)
p47
sVbootloaders
p48
(lp49
Vgrub-pc
p50
aVextlinux
p51
aVgrub-efi-ia32
p52
asVsuggests
p53
Vcrda
p54
ss(Vbuild
p55
g5
tp56
(dp57
Vdebug-info
p58
I00
sVimage-file
p59
Varch/x86/boot/bzImage
p60
ss(Vdescription
p61
tp62
(dp63
Vpart-long-xen
p64
VThis kernel also runs on a Xen hypervisor.\u000aIt supports both privileged (dom0) and unprivileged (domU) operation.
p65
sVpart-long-up
p66
VThis kernel is not suitable for SMP (multi-processor,\u000amulti-core or hyper-threaded) systems.
p67
ss(Vdescription
p68
g5
NVaptosid-amd64
p69
tp70
(dp71
Vhardware-long
p72
VPCs with AMD64 or Intel 64 processors
p73
sVhardware
p74
V64-bit PCs
p75
ss(Vbase
p76
tp77
(dp78
Varches
p79
(lp80
Vamd64
p81
aVi386
p82
asVfeaturesets
p83
(lp84
Vnone
p85
asVcompiler
p86
Vgcc-6
p87
ss(Vdescription
p88
g33
NVaptosid-686
p89
tp90
(dp91
Vhardware-long
p92
VPCs with Intel Pentium Pro/II/III/4/4M/D/M, Xeon, Celeron, Core or Atom; AMD Geode LX/NX, Athlon (K7), Duron, Opteron, Sempron, Turion or Phenom; Transmeta Efficeon; VIA C3 "Nehemiah" or C7 processors
p93
sVhardware
p94
Vmodern PCs
p95
ss(Vbase
p96
g33
g40
tp97
(dp98
Vflavours
p99
(lp100
Vaptosid-686
p101
asVimplicit-flavour
p102
I01
ss(Vimage
p103
tp104
(dp105
Vinitramfs-generators
p106
(lp107
Vinitramfs-tools
p108
aVinitramfs-fallback
p109
ass(Vrelations
p110
tp111
(dp112
Vgcc-6
p113
Vgcc-6
p114
sVinitramfs-fallback
p115
Vlinux-initramfs-tool
p116
sVinitramfs-tools
p117
Vinitramfs-tools (>= 0.121~)
p118
ss(Vbase
p119
g5
g6
tp120
(dp121
g99
(lp122
Vaptosid-amd64
p123
asg102
I01
ss(Vimage
p124
g5
tp125
(dp126
Vinstall-stem
p127
Vvmlinuz
p128
sVbreaks
p129
Vxserver-xorg-input-vmmouse (<< 1:13.0.99)
p130
sVbootloaders
p131
(lp132
Vgrub-pc
p133
aVextlinux
p134
aVgrub-efi-amd64
p135
asVsuggests
p136
Vcrda
p137
ss(Vabi
p138
tp139
(dp140
Vabiname
p141
V0.slh.4
p142
ss(Vbuild
p143
g33
tp144
(dp145
Vdebug-info
p146
I00
sVimage-file
p147
Varch/x86/boot/bzImage
p148
ss(Vdescription
p149
g5
g6
Vaptosid-amd64
p150
tp151
(dp152
Vparts
p153
(lp154
Vxen
p155
asstp156
Rp157
.