ccopy_reg
_reconstructor
p0
(cdebian_linux.config
ConfigCore
p1
c__builtin__
dict
p2
(dp3
(Vbuild
p4
Vamd64
p5
tp6
(dp7
Vdebug-info
p8
I00
sVimage-file
p9
Varch/x86/boot/bzImage
p10
ss(Vdescription
p11
g5
NVaptosid-amd64
p12
tp13
(dp14
Vhardware
p15
V64-bit PCs
p16
sVhardware-long
p17
VPCs with AMD64 or Intel 64 processors
p18
ss(Vxen
p19
g5
Vnone
p20
Vaptosid-amd64
p21
tp22
(dp23
Vflavours
p24
(lp25
Vaptosid-amd64
p26
ass(Vbase
p27
tp28
(dp29
Vcompiler
p30
Vgcc-6
p31
sVarches
p32
(lp33
Vamd64
p34
aVi386
p35
asVfeaturesets
p36
(lp37
Vnone
p38
ass(Vdescription
p39
g5
g20
Vaptosid-amd64
p40
tp41
(dp42
Vparts
p43
(lp44
Vxen
p45
ass(Vdescription
p46
Vi386
p47
NVaptosid-686
p48
tp49
(dp50
Vhardware
p51
Vmodern PCs
p52
sVhardware-long
p53
VPCs with Intel Pentium Pro/II/III/4/4M/D/M, Xeon, Celeron, Core or Atom; AMD Geode LX/NX, Athlon (K7), Duron, Opteron, Sempron, Turion or Phenom; Transmeta Efficeon; VIA C3 "Nehemiah" or C7 processors
p54
ss(Vimage
p55
g5
tp56
(dp57
Vbreaks
p58
Vxserver-xorg-input-vmmouse (<< 1:13.0.99)
p59
sVsuggests
p60
Vcrda
p61
sVinstall-stem
p62
Vvmlinuz
p63
sVbootloaders
p64
(lp65
Vgrub-pc
p66
aVextlinux
p67
aVgrub-efi-amd64
p68
ass(Vabi
p69
tp70
(dp71
Vabiname
p72
V10.slh.2
p73
ss(Vbase
p74
g5
tp75
(dp76
Vfeaturesets
p77
(lp78
Vnone
p79
ag20
asVkernel-arch
p80
Vx86
p81
ss(Vrelations
p82
tp83
(dp84
Vinitramfs-fallback
p85
Vlinux-initramfs-tool
p86
sVgcc-6
p87
Vgcc-6
p88
sVinitramfs-tools
p89
Vinitramfs-tools (>= 0.121~)
p90
ss(Vbase
p91
g5
g20
tp92
(dp93
Vflavours
p94
(lp95
Vaptosid-amd64
p96
asVimplicit-flavour
p97
I01
ss(Vbuild
p98
g47
tp99
(dp100
Vdebug-info
p101
I00
sVimage-file
p102
Varch/x86/boot/bzImage
p103
ss(Vimage
p104
tp105
(dp106
Vinitramfs-generators
p107
(lp108
Vinitramfs-tools
p109
aVinitramfs-fallback
p110
ass(Vversion
p111
tp112
(dp113
Vabiname
p114
V4.8.0-10.slh.2
p115
sVabiname_base
p116
V4.8.0
p117
sVsource
p118
V4.8-15
p119
sVupstream
p120
V4.8
p121
ss(Vbase
p122
g47
Vnone
p123
tp124
(dp125
g94
(lp126
Vaptosid-686
p127
asg97
I01
ss(Vimage
p128
g47
tp129
(dp130
Vbreaks
p131
Vxserver-xorg-input-vmmouse (<< 1:13.0.99)
p132
sVsuggests
p133
Vcrda
p134
sVinstall-stem
p135
Vvmlinuz
p136
sVbootloaders
p137
(lp138
Vgrub-pc
p139
aVextlinux
p140
aVgrub-efi-ia32
p141
ass(Vbase
p142
g47
tp143
(dp144
Vfeaturesets
p145
(lp146
g79
ag123
asVkernel-arch
p147
Vx86
p148
ss(Vdescription
p149
tp150
(dp151
Vpart-long-up
p152
VThis kernel is not suitable for SMP (multi-processor,\u000amulti-core or hyper-threaded) systems.
p153
sVpart-long-xen
p154
VThis kernel also runs on a Xen hypervisor.\u000aIt supports both privileged (dom0) and unprivileged (domU) operation.
p155
sstp156
Rp157
.