ccopy_reg
_reconstructor
p0
(cdebian_linux.config
ConfigCore
p1
c__builtin__
dict
p2
(dp3
(Vbase
p4
Vi386
p5
Vnone
p6
tp7
(dp8
Vflavours
p9
(lp10
Vaptosid-686
p11
asVimplicit-flavour
p12
I01
ss(Vbuild
p13
g5
tp14
(dp15
Vimage-file
p16
Varch/x86/boot/bzImage
p17
sVdebug-info
p18
I00
ss(Vbase
p19
g5
tp20
(dp21
Vkernel-arch
p22
Vx86
p23
sVfeaturesets
p24
(lp25
Vnone
p26
ag6
ass(Vdescription
p27
g5
NVaptosid-686
p28
tp29
(dp30
Vhardware
p31
Vmodern PCs
p32
sVhardware-long
p33
VPCs with Intel Pentium Pro/II/III/4/4M/D/M, Xeon, Celeron, Core or Atom; AMD Geode LX/NX, Athlon (K7), Duron, Opteron, Sempron, Turion or Phenom; Transmeta Efficeon; VIA C3 "Nehemiah" or C7 processors
p34
ss(Vbuild
p35
Vamd64
p36
tp37
(dp38
Vimage-file
p39
Varch/x86/boot/bzImage
p40
sVdebug-info
p41
I00
ss(Vimage
p42
g5
tp43
(dp44
Vbreaks
p45
Vxserver-xorg-input-vmmouse (<< 1:13.0.99)
p46
sVbootloaders
p47
(lp48
Vgrub-pc
p49
aVextlinux
p50
aVgrub-efi-ia32
p51
asVsuggests
p52
Vcrda
p53
sVinstall-stem
p54
Vvmlinuz
p55
ss(Vversion
p56
tp57
(dp58
Vabiname_base
p59
V4.13.0
p60
sVupstream
p61
V4.13
p62
sVsource
p63
V4.13-6
p64
sVabiname
p65
V4.13.0-2.slh.2
p66
ss(Vbase
p67
g36
Vnone
p68
tp69
(dp70
g9
(lp71
Vaptosid-amd64
p72
asg12
I01
ss(Vimage
p73
g36
tp74
(dp75
Vbreaks
p76
Vxserver-xorg-input-vmmouse (<< 1:13.0.99)
p77
sVbootloaders
p78
(lp79
Vgrub-pc
p80
aVextlinux
p81
aVgrub-efi-amd64
p82
asVsuggests
p83
Vcrda
p84
sVinstall-stem
p85
Vvmlinuz
p86
ss(Vbase
p87
g36
tp88
(dp89
Vkernel-arch
p90
Vx86
p91
sVfeaturesets
p92
(lp93
g26
ag68
ass(Vbase
p94
tp95
(dp96
Vcompiler
p97
Vgcc-7
p98
sVfeaturesets
p99
(lp100
Vnone
p101
asVarches
p102
(lp103
Vamd64
p104
aVi386
p105
ass(Vrelations
p106
tp107
(dp108
Vgcc-7
p109
Vgcc-7
p110
sVinitramfs-tools
p111
Vinitramfs-tools (>= 0.121~)
p112
sVinitramfs-fallback
p113
Vlinux-initramfs-tool
p114
ss(Vdescription
p115
g36
NVaptosid-amd64
p116
tp117
(dp118
Vhardware
p119
V64-bit PCs
p120
sVhardware-long
p121
VPCs with AMD64 or Intel 64 processors
p122
ss(Vdescription
p123
g36
g68
Vaptosid-amd64
p124
tp125
(dp126
Vparts
p127
(lp128
Vxen
p129
ass(Vimage
p130
tp131
(dp132
Vinitramfs-generators
p133
(lp134
Vinitramfs-tools
p135
aVinitramfs-fallback
p136
ass(Vdescription
p137
tp138
(dp139
Vpart-long-up
p140
VThis kernel is not suitable for SMP (multi-processor,\u000amulti-core or hyper-threaded) systems.
p141
sVpart-long-xen
p142
VThis kernel also runs on a Xen hypervisor.\u000aIt supports both privileged (dom0) and unprivileged (domU) operation.
p143
ss(Vabi
p144
tp145
(dp146
Vabiname
p147
V2.slh.2
p148
sstp149
Rp150
.