ccopy_reg
_reconstructor
p0
(cdebian_linux.config
ConfigCore
p1
c__builtin__
dict
p2
(dp3
(Vdescription
p4
tp5
(dp6
Vpart-long-up
p7
VThis kernel is not suitable for SMP (multi-processor,\u000amulti-core or hyper-threaded) systems.
p8
sVpart-long-xen
p9
VThis kernel also runs on a Xen hypervisor.\u000aIt supports both privileged (dom0) and unprivileged (domU) operation.
p10
ss(Vimage
p11
Vi386
p12
tp13
(dp14
Vbootloaders
p15
(lp16
Vgrub-pc
p17
aVextlinux
p18
aVgrub-efi-ia32
p19
asVconfigs
p20
(lp21
sVsuggests
p22
Vcrda
p23
sVinstall-stem
p24
Vvmlinuz
p25
ss(Vdescription
p26
Vamd64
p27
NVaptosid-amd64
p28
tp29
(dp30
Vhardware-long
p31
VPCs with AMD64 or Intel 64 processors
p32
sVhardware
p33
V64-bit PCs
p34
ss(Vdescription
p35
g27
Vnone
p36
Vaptosid-amd64
p37
tp38
(dp39
Vparts
p40
(lp41
Vxen
p42
ass(Vimage
p43
g12
NVaptosid-686
p44
tp45
(dp46
Vconfigs
p47
(lp48
Vkernelarch-x86/config-arch-32
p49
asVrecommends
p50
Vlibc6-i686
p51
ss(Vbase
p52
tp53
(dp54
Vcompiler
p55
Vgcc-5
p56
sVarches
p57
(lp58
Vamd64
p59
aVi386
p60
asVfeaturesets
p61
(lp62
Vnone
p63
ass(Vbase
p64
g12
Vnone
p65
tp66
(dp67
Vimplicit-flavour
p68
I01
sVflavours
p69
(lp70
Vaptosid-686
p71
ass(Vbuild
p72
g12
tp73
(dp74
Vdebug-info
p75
I00
sVimage-file
p76
Varch/x86/boot/bzImage
p77
ss(Vdescription
p78
g12
NVaptosid-686
p79
tp80
(dp81
Vhardware-long
p82
VPCs with Intel Pentium Pro/II/III/4/4M/D/M, Xeon, Celeron, Core or Atom; AMD Geode LX/NX, Athlon (K7), Duron, Opteron, Sempron, Turion or Phenom; Transmeta Efficeon; VIA C3 "Nehemiah" or C7 processors
p83
sVhardware
p84
Vmodern PCs
p85
ss(Vbuild
p86
g27
tp87
(dp88
Vdebug-info
p89
I00
sVimage-file
p90
Varch/x86/boot/bzImage
p91
ss(Vimage
p92
tp93
(dp94
Vinitramfs-generators
p95
(lp96
Vinitramfs-tools
p97
aVinitramfs-fallback
p98
asVtype
p99
Vplain
p100
ss(Vversion
p101
tp102
(dp103
Vabiname
p104
V4.3.0-2.slh.1
p105
sVsource
p106
V4.3-8
p107
sVupstream
p108
V4.3
p109
sVabiname_base
p110
V4.3.0
p111
ss(Vxen
p112
g27
g36
Vaptosid-amd64
p113
tp114
(dp115
Vflavours
p116
(lp117
Vaptosid-amd64
p118
ass(Vrelations
p119
tp120
(dp121
Vinitramfs-fallback
p122
Vlinux-initramfs-tool
p123
sVgcc-5
p124
Vgcc-5
p125
sVinitramfs-tools
p126
Vinitramfs-tools (>= 0.118+c0.aptosid.1~)
p127
ss(Vimage
p128
g27
NVaptosid-amd64
p129
tp130
(dp131
Vconfigs
p132
(lp133
Vkernelarch-x86/config-arch-64
p134
ass(Vimage
p135
g27
tp136
(dp137
Vbootloaders
p138
(lp139
Vgrub-pc
p140
aVextlinux
p141
aVgrub-efi-amd64
p142
asVconfigs
p143
(lp144
sVsuggests
p145
Vcrda
p146
sVinstall-stem
p147
Vvmlinuz
p148
ss(Vbase
p149
g27
g36
tp150
(dp151
g68
I01
sg69
(lp152
Vaptosid-amd64
p153
ass(Vabi
p154
tp155
(dp156
Vabiname
p157
V2.slh.1
p158
ss(Vbase
p159
g27
tp160
(dp161
Vkernel-arch
p162
Vx86
p163
sVfeaturesets
p164
(lp165
Vnone
p166
ag36
ass(Vbase
p167
g12
tp168
(dp169
Vkernel-arch
p170
Vx86
p171
sVfeaturesets
p172
(lp173
g166
ag65
asstp174
Rp175
.