ccopy_reg
_reconstructor
p1
(cdebian_linux.config
ConfigCore
p2
c__builtin__
dict
p3
(dp4
(S'image'
S'amd64'
p5
tp6
(dp7
S'suggests'
p8
S'crda'
p9
sS'configs'
p10
(lp11
S'kernelarch-x86/config'
p12
asS'bootloaders'
p13
(lp14
S'grub-pc'
p15
aS'extlinux'
p16
aS'grub-efi-amd64'
p17
ass(S'description'
g5
NS'aptosid-amd64'
tp18
(dp19
S'hardware'
p20
S'64-bit PCs'
p21
sS'hardware-long'
p22
S'PCs with AMD64 or Intel 64 processors'
p23
ss(S'base'
p24
g5
S'none'
p25
tp26
(dp27
S'implicit-flavour'
p28
I01
sS'flavours'
p29
(lp30
S'aptosid-amd64'
p31
ass(S'image'
g5
NS'aptosid-amd64'
tp32
(dp33
S'configs'
p34
(lp35
S'kernelarch-x86/config-arch-64'
p36
ass(S'base'
g5
tp37
(dp38
S'kernel-arch'
p39
S'x86'
p40
sS'featuresets'
p41
(lp42
g25
ass(S'image'
p43
tp44
(dp45
S'initramfs-generators'
p46
(lp47
S'initramfs-tools'
p48
aS'initramfs-fallback'
p49
asS'type'
p50
S'plain'
p51
ss(S'image'
S'i386'
p52
NS'aptosid-686'
tp53
(dp54
S'configs'
p55
(lp56
S'kernelarch-x86/config-arch-32'
p57
asS'recommends'
p58
S'libc6-i686'
p59
ss(S'description'
g52
NS'aptosid-686'
tp60
(dp61
S'hardware'
p62
S'modern PCs'
p63
sS'hardware-long'
p64
S'PCs with Intel Pentium Pro/II/III/4/4M/D/M, Xeon, Celeron, Core or Atom; AMD Geode LX/NX, Athlon (K7), Duron, Opteron, Sempron, Turion or Phenom; Transmeta Efficeon; VIA C3 "Nehemiah" or C7 processors'
p65
ss(S'base'
p66
g52
tp67
(dp68
S'kernel-arch'
p69
S'x86'
p70
sg41
(lp71
g25
ass(S'version'
p72
tp73
(dp74
S'abiname'
p75
S'3.13-5.slh.6'
p76
sS'source'
p77
V3.13-22
p78
ss(S'abi'
p79
tp80
(dp81
S'abiname'
p82
S'5.slh.6'
p83
ss(S'image'
p84
g52
tp85
(dp86
S'suggests'
p87
S'crda'
p88
sS'configs'
p89
(lp90
S'kernelarch-x86/config'
p91
asS'bootloaders'
p92
(lp93
S'grub-pc'
p94
aS'extlinux'
p95
ass(S'build'
g52
NS'aptosid-686'
tp96
(dp97
S'debug-info'
p98
I00
ss(g24
g52
g25
tp99
(dp100
g28
I01
sg29
(lp101
S'aptosid-686'
p102
ass(S'build'
g5
NS'aptosid-amd64'
tp103
(dp104
S'debug-info'
p105
I00
ss(S'base'
p106
tp107
(dp108
S'arches'
p109
(lp110
S'amd64'
p111
aS'i386'
p112
asS'featuresets'
p113
(lp114
S'none'
p115
asS'compiler'
p116
S'gcc-4.8'
p117
ss(S'relations'
p118
tp119
(dp120
S'initramfs-fallback'
p121
S'linux-initramfs-tool'
p122
sS'lilo'
p123
S'lilo (>= 22.8-8.2~)'
p124
sS'gcc-4.8'
p125
S'gcc-4.8'
p126
sS'initramfs-tools'
p127
S'initramfs-tools (>= 0.110~)'
p128
sS'elilo'
p129
S'elilo (>= 3.12-3.1~)'
p130
sstRp131
.