ccopy_reg
_reconstructor
p0
(cdebian_linux.config
ConfigCore
p1
c__builtin__
dict
p2
(dp3
(Vimage
p4
Vamd64
p5
tp6
(dp7
Vbreaks
p8
Vxserver-xorg-input-vmmouse (<< 1:13.0.99)
p9
sVbootloaders
p10
(lp11
Vgrub-pc
p12
aVextlinux
p13
aVgrub-efi-amd64
p14
asVinstall-stem
p15
Vvmlinuz
p16
sVsuggests
p17
Vcrda
p18
ss(Vimage
p19
Vi386
p20
tp21
(dp22
Vbreaks
p23
Vxserver-xorg-input-vmmouse (<< 1:13.0.99)
p24
sVbootloaders
p25
(lp26
Vgrub-pc
p27
aVextlinux
p28
aVgrub-efi-ia32
p29
asVinstall-stem
p30
Vvmlinuz
p31
sVsuggests
p32
Vcrda
p33
ss(Vxen
p34
g5
Vnone
p35
Vaptosid-amd64
p36
tp37
(dp38
Vflavours
p39
(lp40
Vaptosid-amd64
p41
ass(Vimage
p42
tp43
(dp44
Vinitramfs-generators
p45
(lp46
Vinitramfs-tools
p47
aVinitramfs-fallback
p48
ass(Vbase
p49
g20
tp50
(dp51
Vkernel-arch
p52
Vx86
p53
sVfeaturesets
p54
(lp55
Vnone
p56
aVnone
p57
ass(Vbase
p58
g5
tp59
(dp60
Vkernel-arch
p61
Vx86
p62
sVfeaturesets
p63
(lp64
g56
ag35
ass(Vdescription
p65
tp66
(dp67
Vpart-long-xen
p68
VThis kernel also runs on a Xen hypervisor.\u000aIt supports both privileged (dom0) and unprivileged (domU) operation.
p69
sVpart-long-up
p70
VThis kernel is not suitable for SMP (multi-processor,\u000amulti-core or hyper-threaded) systems.
p71
ss(Vdescription
p72
g20
NVaptosid-686
p73
tp74
(dp75
Vhardware-long
p76
VPCs with Intel Pentium Pro/II/III/4/4M/D/M, Xeon, Celeron, Core or Atom; AMD Geode LX/NX, Athlon (K7), Duron, Opteron, Sempron, Turion or Phenom; Transmeta Efficeon; VIA C3 "Nehemiah" or C7 processors
p77
sVhardware
p78
Vmodern PCs
p79
ss(Vbase
p80
g20
g57
tp81
(dp82
Vflavours
p83
(lp84
Vaptosid-686
p85
asVimplicit-flavour
p86
I01
ss(Vdescription
p87
g5
NVaptosid-amd64
p88
tp89
(dp90
Vhardware-long
p91
VPCs with AMD64 or Intel 64 processors
p92
sVhardware
p93
V64-bit PCs
p94
ss(Vversion
p95
tp96
(dp97
Vsource
p98
V4.7-12
p99
sVabiname
p100
V4.7.0-2.slh.3
p101
sVabiname_base
p102
V4.7.0
p103
sVupstream
p104
V4.7
p105
ss(Vrelations
p106
tp107
(dp108
Vgcc-6
p109
Vgcc-6
p110
sVinitramfs-fallback
p111
Vlinux-initramfs-tool
p112
sVinitramfs-tools
p113
Vinitramfs-tools (>= 0.121~)
p114
ss(Vbase
p115
g5
g35
tp116
(dp117
g83
(lp118
Vaptosid-amd64
p119
asg86
I01
ss(Vbuild
p120
g20
tp121
(dp122
Vimage-file
p123
Varch/x86/boot/bzImage
p124
sVdebug-info
p125
I00
ss(Vbuild
p126
g5
tp127
(dp128
Vimage-file
p129
Varch/x86/boot/bzImage
p130
sVdebug-info
p131
I00
ss(Vabi
p132
tp133
(dp134
Vabiname
p135
V2.slh.3
p136
ss(Vdescription
p137
g5
g35
Vaptosid-amd64
p138
tp139
(dp140
Vparts
p141
(lp142
Vxen
p143
ass(Vbase
p144
tp145
(dp146
Varches
p147
(lp148
Vamd64
p149
aVi386
p150
asVcompiler
p151
Vgcc-6
p152
sVfeaturesets
p153
(lp154
Vnone
p155
asstp156
Rp157
.