ccopy_reg
_reconstructor
p0
(cdebian_linux.config
ConfigCore
p1
c__builtin__
dict
p2
(dp3
(Vbuild
p4
Vi386
p5
tp6
(dp7
Vdebug-info
p8
I00
sVimage-file
p9
Varch/x86/boot/bzImage
p10
ss(Vbuild
p11
Vamd64
p12
tp13
(dp14
Vdebug-info
p15
I00
sVimage-file
p16
Varch/x86/boot/bzImage
p17
ss(Vimage
p18
g5
tp19
(dp20
Vsuggests
p21
Vcrda
p22
sVinstall-stem
p23
Vvmlinuz
p24
sVbreaks
p25
Vxserver-xorg-input-vmmouse (<< 1:13.0.99)
p26
sVbootloaders
p27
(lp28
Vgrub-pc
p29
aVextlinux
p30
aVgrub-efi-ia32
p31
ass(Vbase
p32
g5
tp33
(dp34
Vkernel-arch
p35
Vx86
p36
sVfeaturesets
p37
(lp38
Vnone
p39
aVnone
p40
ass(Vbase
p41
g12
tp42
(dp43
Vkernel-arch
p44
Vx86
p45
sVfeaturesets
p46
(lp47
g39
aVnone
p48
ass(Vdescription
p49
g5
NVaptosid-686
p50
tp51
(dp52
Vhardware-long
p53
VPCs with Intel Pentium Pro/II/III/4/4M/D/M, Xeon, Celeron, Core or Atom; AMD Geode LX/NX, Athlon (K7), Duron, Opteron, Sempron, Turion or Phenom; Transmeta Efficeon; VIA C3 "Nehemiah" or C7 processors
p54
sVhardware
p55
Vmodern PCs
p56
ss(Vdescription
p57
g12
NVaptosid-amd64
p58
tp59
(dp60
Vhardware-long
p61
VPCs with AMD64 or Intel 64 processors
p62
sVhardware
p63
V64-bit PCs
p64
ss(Vdescription
p65
tp66
(dp67
Vpart-long-up
p68
VThis kernel is not suitable for SMP (multi-processor,\u000amulti-core or hyper-threaded) systems.
p69
sVpart-long-xen
p70
VThis kernel also runs on a Xen hypervisor.\u000aIt supports both privileged (dom0) and unprivileged (domU) operation.
p71
ss(Vbase
p72
g5
g40
tp73
(dp74
Vimplicit-flavour
p75
I01
sVflavours
p76
(lp77
Vaptosid-686
p78
ass(Vversion
p79
tp80
(dp81
Vabiname_base
p82
V4.13.0
p83
sVupstream
p84
V4.13
p85
sVsource
p86
V4.13-9
p87
sVabiname
p88
V4.13.0-4.slh.2
p89
ss(Vdescription
p90
g12
g48
Vaptosid-amd64
p91
tp92
(dp93
Vparts
p94
(lp95
Vxen
p96
ass(Vimage
p97
tp98
(dp99
Vinitramfs-generators
p100
(lp101
Vinitramfs-tools
p102
aVinitramfs-fallback
p103
ass(Vimage
p104
g12
tp105
(dp106
Vsuggests
p107
Vcrda
p108
sVinstall-stem
p109
Vvmlinuz
p110
sVbreaks
p111
Vxserver-xorg-input-vmmouse (<< 1:13.0.99)
p112
sVbootloaders
p113
(lp114
Vgrub-pc
p115
aVextlinux
p116
aVgrub-efi-amd64
p117
ass(Vbase
p118
g12
g48
tp119
(dp120
g75
I01
sg76
(lp121
Vaptosid-amd64
p122
ass(Vabi
p123
tp124
(dp125
Vabiname
p126
V4.slh.2
p127
ss(Vrelations
p128
tp129
(dp130
Vinitramfs-tools
p131
Vinitramfs-tools (>= 0.121~)
p132
sVgcc-7
p133
Vgcc-7
p134
sVinitramfs-fallback
p135
Vlinux-initramfs-tool
p136
ss(Vbase
p137
tp138
(dp139
Vcompiler
p140
Vgcc-7
p141
sVfeaturesets
p142
(lp143
Vnone
p144
asVarches
p145
(lp146
Vamd64
p147
aVi386
p148
asstp149
Rp150
.