ccopy_reg
_reconstructor
p0
(cdebian_linux.config
ConfigCore
p1
c__builtin__
dict
p2
(dp3
(Vbase
p4
Vi386
p5
Vnone
p6
tp7
(dp8
Vimplicit-flavour
p9
I01
sVflavours
p10
(lp11
Vaptosid-686
p12
ass(Vdescription
p13
tp14
(dp15
Vpart-long-xen
p16
VThis kernel also runs on a Xen hypervisor.\u000aIt supports both privileged (dom0) and unprivileged (domU) operation.
p17
sVpart-long-up
p18
VThis kernel is not suitable for SMP (multi-processor,\u000amulti-core or hyper-threaded) systems.
p19
ss(Vimage
p20
tp21
(dp22
Vinitramfs-generators
p23
(lp24
Vinitramfs-tools
p25
aVinitramfs-fallback
p26
ass(Vdescription
p27
g5
NVaptosid-686
p28
tp29
(dp30
Vhardware-long
p31
VPCs with Intel Pentium Pro/II/III/4/4M/D/M, Xeon, Celeron, Core or Atom; AMD Geode LX/NX, Athlon (K7), Duron, Opteron, Sempron, Turion or Phenom; Transmeta Efficeon; VIA C3 "Nehemiah" or C7 processors
p32
sVhardware
p33
Vmodern PCs
p34
ss(Vimage
p35
Vamd64
p36
tp37
(dp38
Vbootloaders
p39
(lp40
Vgrub-pc
p41
aVextlinux
p42
aVgrub-efi-amd64
p43
asVbreaks
p44
Vxserver-xorg-input-vmmouse (<< 1:13.0.99)
p45
sVinstall-stem
p46
Vvmlinuz
p47
sVsuggests
p48
Vcrda
p49
ss(Vdescription
p50
g36
Vnone
p51
Vaptosid-amd64
p52
tp53
(dp54
Vparts
p55
(lp56
Vxen
p57
ass(Vbase
p58
g36
tp59
(dp60
Vkernel-arch
p61
Vx86
p62
sVfeaturesets
p63
(lp64
Vnone
p65
ag51
ass(Vrelations
p66
tp67
(dp68
Vgcc-6
p69
Vgcc-6
p70
sVinitramfs-fallback
p71
Vlinux-initramfs-tool
p72
sVinitramfs-tools
p73
Vinitramfs-tools (>= 0.121~)
p74
ss(Vbuild
p75
g5
tp76
(dp77
Vimage-file
p78
Varch/x86/boot/bzImage
p79
sVdebug-info
p80
I00
ss(Vbase
p81
g5
tp82
(dp83
Vkernel-arch
p84
Vx86
p85
sVfeaturesets
p86
(lp87
g65
ag6
ass(Vbuild
p88
g36
tp89
(dp90
Vimage-file
p91
Varch/x86/boot/bzImage
p92
sVdebug-info
p93
I00
ss(Vversion
p94
tp95
(dp96
Vupstream
p97
V4.9
p98
sVabiname
p99
V4.9.0-7.slh.1
p100
sVsource
p101
V4.9-12
p102
sVabiname_base
p103
V4.9.0
p104
ss(Vbase
p105
tp106
(dp107
Vcompiler
p108
Vgcc-6
p109
sVarches
p110
(lp111
Vamd64
p112
aVi386
p113
asVfeaturesets
p114
(lp115
Vnone
p116
ass(Vabi
p117
tp118
(dp119
Vabiname
p120
V7.slh.1
p121
ss(Vbase
p122
g36
g51
tp123
(dp124
g9
I01
sg10
(lp125
Vaptosid-amd64
p126
ass(Vdescription
p127
g36
NVaptosid-amd64
p128
tp129
(dp130
Vhardware-long
p131
VPCs with AMD64 or Intel 64 processors
p132
sVhardware
p133
V64-bit PCs
p134
ss(Vimage
p135
g5
tp136
(dp137
Vbootloaders
p138
(lp139
Vgrub-pc
p140
aVextlinux
p141
aVgrub-efi-ia32
p142
asVbreaks
p143
Vxserver-xorg-input-vmmouse (<< 1:13.0.99)
p144
sVinstall-stem
p145
Vvmlinuz
p146
sVsuggests
p147
Vcrda
p148
sstp149
Rp150
.