ccopy_reg
_reconstructor
p0
(cdebian_linux.config
ConfigCore
p1
c__builtin__
dict
p2
(dp3
(Vbase
p4
Vamd64
p5
tp6
(dp7
Vfeaturesets
p8
(lp9
Vnone
p10
aVnone
p11
asVkernel-arch
p12
Vx86
p13
ss(Vbuild
p14
g5
tp15
(dp16
Vimage-file
p17
Varch/x86/boot/bzImage
p18
sVdebug-info
p19
I00
ss(Vbuild
p20
Vi386
p21
tp22
(dp23
Vimage-file
p24
Varch/x86/boot/bzImage
p25
sVdebug-info
p26
I00
ss(Vdescription
p27
g21
NVaptosid-686
p28
tp29
(dp30
Vhardware-long
p31
VPCs with Intel Pentium Pro/II/III/4/4M/D/M, Xeon, Celeron, Core or Atom; AMD Geode LX/NX, Athlon (K7), Duron, Opteron, Sempron, Turion or Phenom; Transmeta Efficeon; VIA C3 "Nehemiah" or C7 processors
p32
sVhardware
p33
Vmodern PCs
p34
ss(Vbase
p35
g21
tp36
(dp37
Vfeaturesets
p38
(lp39
g10
aVnone
p40
asVkernel-arch
p41
Vx86
p42
ss(Vimage
p43
tp44
(dp45
Vinitramfs-generators
p46
(lp47
Vinitramfs-tools
p48
aVinitramfs-fallback
p49
ass(Vabi
p50
tp51
(dp52
Vabiname
p53
V0.slh.2
p54
ss(Vrelations
p55
tp56
(dp57
Vinitramfs-tools
p58
Vinitramfs-tools (>= 0.121~)
p59
sVgcc-7
p60
Vgcc-7
p61
sVinitramfs-fallback
p62
Vlinux-initramfs-tool
p63
ss(Vimage
p64
g5
tp65
(dp66
Vbreaks
p67
Vxserver-xorg-input-vmmouse (<< 1:13.0.99)
p68
sVsuggests
p69
Vcrda
p70
sVinstall-stem
p71
Vvmlinuz
p72
sVbootloaders
p73
(lp74
Vgrub-pc
p75
aVextlinux
p76
aVgrub-efi-amd64
p77
ass(Vbase
p78
g5
g11
tp79
(dp80
Vimplicit-flavour
p81
I01
sVflavours
p82
(lp83
Vaptosid-amd64
p84
ass(Vbase
p85
tp86
(dp87
Vcompiler
p88
Vgcc-7
p89
sVarches
p90
(lp91
Vamd64
p92
aVi386
p93
asVfeaturesets
p94
(lp95
Vnone
p96
ass(Vdescription
p97
tp98
(dp99
Vpart-long-xen
p100
VThis kernel also runs on a Xen hypervisor.\u000aIt supports both privileged (dom0) and unprivileged (domU) operation.
p101
sVpart-long-up
p102
VThis kernel is not suitable for SMP (multi-processor,\u000amulti-core or hyper-threaded) systems.
p103
ss(Vbase
p104
g21
g40
tp105
(dp106
g81
I01
sg82
(lp107
Vaptosid-686
p108
ass(Vdescription
p109
g5
NVaptosid-amd64
p110
tp111
(dp112
Vhardware-long
p113
VPCs with AMD64 or Intel 64 processors
p114
sVhardware
p115
V64-bit PCs
p116
ss(Vversion
p117
tp118
(dp119
Vabiname
p120
V4.13.0-0.slh.2
p121
sVsource
p122
V4.13-2
p123
sVupstream
p124
V4.13
p125
sVabiname_base
p126
V4.13.0
p127
ss(Vimage
p128
g21
tp129
(dp130
Vbreaks
p131
Vxserver-xorg-input-vmmouse (<< 1:13.0.99)
p132
sVsuggests
p133
Vcrda
p134
sVinstall-stem
p135
Vvmlinuz
p136
sVbootloaders
p137
(lp138
Vgrub-pc
p139
aVextlinux
p140
aVgrub-efi-ia32
p141
ass(Vdescription
p142
g5
g11
Vaptosid-amd64
p143
tp144
(dp145
Vparts
p146
(lp147
Vxen
p148
asstp149
Rp150
.