ccopy_reg
_reconstructor
p0
(cdebian_linux.config
ConfigCore
p1
c__builtin__
dict
p2
(dp3
(Vbase
p4
Vi386
p5
tp6
(dp7
Vkernel-arch
p8
Vx86
p9
sVfeaturesets
p10
(lp11
Vnone
p12
aVnone
p13
ass(Vbase
p14
g5
g13
tp15
(dp16
Vflavours
p17
(lp18
Vaptosid-686
p19
asVimplicit-flavour
p20
I01
ss(Vbase
p21
tp22
(dp23
Varches
p24
(lp25
Vamd64
p26
aVi386
p27
asVcompiler
p28
Vgcc-6
p29
sVfeaturesets
p30
(lp31
Vnone
p32
ass(Vbase
p33
Vamd64
p34
tp35
(dp36
Vkernel-arch
p37
Vx86
p38
sVfeaturesets
p39
(lp40
g12
aVnone
p41
ass(Vdescription
p42
g5
NVaptosid-686
p43
tp44
(dp45
Vhardware
p46
Vmodern PCs
p47
sVhardware-long
p48
VPCs with Intel Pentium Pro/II/III/4/4M/D/M, Xeon, Celeron, Core or Atom; AMD Geode LX/NX, Athlon (K7), Duron, Opteron, Sempron, Turion or Phenom; Transmeta Efficeon; VIA C3 "Nehemiah" or C7 processors
p49
ss(Vbuild
p50
g34
tp51
(dp52
Vdebug-info
p53
I00
sVimage-file
p54
Varch/x86/boot/bzImage
p55
ss(Vdescription
p56
tp57
(dp58
Vpart-long-up
p59
VThis kernel is not suitable for SMP (multi-processor,\u000amulti-core or hyper-threaded) systems.
p60
sVpart-long-xen
p61
VThis kernel also runs on a Xen hypervisor.\u000aIt supports both privileged (dom0) and unprivileged (domU) operation.
p62
ss(Vdescription
p63
g34
g41
Vaptosid-amd64
p64
tp65
(dp66
Vparts
p67
(lp68
Vxen
p69
ass(Vdescription
p70
g34
NVaptosid-amd64
p71
tp72
(dp73
Vhardware
p74
V64-bit PCs
p75
sVhardware-long
p76
VPCs with AMD64 or Intel 64 processors
p77
ss(Vbuild
p78
g5
tp79
(dp80
Vdebug-info
p81
I00
sVimage-file
p82
Varch/x86/boot/bzImage
p83
ss(Vimage
p84
tp85
(dp86
Vinitramfs-generators
p87
(lp88
Vinitramfs-tools
p89
aVinitramfs-fallback
p90
ass(Vversion
p91
tp92
(dp93
Vupstream
p94
V4.10
p95
sVsource
p96
V4.10-6
p97
sVabiname_base
p98
V4.10.0
p99
sVabiname
p100
V4.10.0-2.slh.1
p101
ss(Vbase
p102
g34
g41
tp103
(dp104
g17
(lp105
Vaptosid-amd64
p106
asg20
I01
ss(Vrelations
p107
tp108
(dp109
Vinitramfs-fallback
p110
Vlinux-initramfs-tool
p111
sVinitramfs-tools
p112
Vinitramfs-tools (>= 0.121~)
p113
sVgcc-6
p114
Vgcc-6
p115
ss(Vabi
p116
tp117
(dp118
Vabiname
p119
V2.slh.1
p120
ss(Vimage
p121
g5
tp122
(dp123
Vsuggests
p124
Vcrda
p125
sVbreaks
p126
Vxserver-xorg-input-vmmouse (<< 1:13.0.99)
p127
sVbootloaders
p128
(lp129
Vgrub-pc
p130
aVextlinux
p131
aVgrub-efi-ia32
p132
asVinstall-stem
p133
Vvmlinuz
p134
ss(Vimage
p135
g34
tp136
(dp137
Vsuggests
p138
Vcrda
p139
sVbreaks
p140
Vxserver-xorg-input-vmmouse (<< 1:13.0.99)
p141
sVbootloaders
p142
(lp143
Vgrub-pc
p144
aVextlinux
p145
aVgrub-efi-amd64
p146
asVinstall-stem
p147
Vvmlinuz
p148
sstp149
Rp150
.