ccopy_reg
_reconstructor
p0
(cdebian_linux.config
ConfigCore
p1
c__builtin__
dict
p2
(dp3
(Vbase
p4
tp5
(dp6
Vcompiler
p7
Vgcc-5
p8
sVarches
p9
(lp10
Vamd64
p11
aVi386
p12
asVfeaturesets
p13
(lp14
Vnone
p15
ass(Vimage
p16
Vamd64
p17
tp18
(dp19
Vconfigs
p20
(lp21
sVinstall-stem
p22
Vvmlinuz
p23
sVsuggests
p24
Vcrda
p25
sVbootloaders
p26
(lp27
Vgrub-pc
p28
aVextlinux
p29
aVgrub-efi-amd64
p30
ass(Vimage
p31
Vi386
p32
tp33
(dp34
Vconfigs
p35
(lp36
sVinstall-stem
p37
Vvmlinuz
p38
sVsuggests
p39
Vcrda
p40
sVbootloaders
p41
(lp42
Vgrub-pc
p43
aVextlinux
p44
aVgrub-efi-ia32
p45
ass(Vbuild
p46
g17
tp47
(dp48
Vdebug-info
p49
I00
sVimage-file
p50
Varch/x86/boot/bzImage
p51
ss(Vimage
p52
tp53
(dp54
Vtype
p55
Vplain
p56
sVinitramfs-generators
p57
(lp58
Vinitramfs-tools
p59
aVinitramfs-fallback
p60
ass(Vbase
p61
g17
tp62
(dp63
Vkernel-arch
p64
Vx86
p65
sVfeaturesets
p66
(lp67
Vnone
p68
aVnone
p69
ass(Vrelations
p70
tp71
(dp72
Vinitramfs-fallback
p73
Vlinux-initramfs-tool
p74
sVgcc-5
p75
Vgcc-5
p76
sVinitramfs-tools
p77
Vinitramfs-tools (>= 0.118+c0.aptosid.1~)
p78
ss(Vdescription
p79
tp80
(dp81
Vpart-long-up
p82
VThis kernel is not suitable for SMP (multi-processor,\u000amulti-core or hyper-threaded) systems.
p83
sVpart-long-xen
p84
VThis kernel also runs on a Xen hypervisor.\u000aIt supports both privileged (dom0) and unprivileged (domU) operation.
p85
ss(Vversion
p86
tp87
(dp88
Vupstream
p89
V4.4
p90
sVabiname
p91
V4.4.0-1.slh.1
p92
sVsource
p93
V4.4-5
p94
sVabiname_base
p95
V4.4.0
p96
ss(Vbase
p97
g32
tp98
(dp99
Vkernel-arch
p100
Vx86
p101
sVfeaturesets
p102
(lp103
g68
aVnone
p104
ass(Vxen
p105
g17
g69
Vaptosid-amd64
p106
tp107
(dp108
Vflavours
p109
(lp110
Vaptosid-amd64
p111
ass(Vimage
p112
g17
NVaptosid-amd64
p113
tp114
(dp115
Vconfigs
p116
(lp117
Vkernelarch-x86/config-arch-64
p118
ass(Vabi
p119
tp120
(dp121
Vabiname
p122
V1.slh.1
p123
ss(Vbase
p124
g17
g69
tp125
(dp126
Vflavours
p127
(lp128
Vaptosid-amd64
p129
asVimplicit-flavour
p130
I01
ss(Vimage
p131
g32
NVaptosid-686
p132
tp133
(dp134
Vconfigs
p135
(lp136
Vkernelarch-x86/config-arch-32
p137
asVrecommends
p138
Vlibc6-i686
p139
ss(Vbase
p140
g32
g104
tp141
(dp142
g127
(lp143
Vaptosid-686
p144
asg130
I01
ss(Vdescription
p145
g17
g69
Vaptosid-amd64
p146
tp147
(dp148
Vparts
p149
(lp150
Vxen
p151
ass(Vdescription
p152
g32
NVaptosid-686
p153
tp154
(dp155
Vhardware-long
p156
VPCs with Intel Pentium Pro/II/III/4/4M/D/M, Xeon, Celeron, Core or Atom; AMD Geode LX/NX, Athlon (K7), Duron, Opteron, Sempron, Turion or Phenom; Transmeta Efficeon; VIA C3 "Nehemiah" or C7 processors
p157
sVhardware
p158
Vmodern PCs
p159
ss(Vdescription
p160
g17
NVaptosid-amd64
p161
tp162
(dp163
Vhardware-long
p164
VPCs with AMD64 or Intel 64 processors
p165
sVhardware
p166
V64-bit PCs
p167
ss(Vbuild
p168
g32
tp169
(dp170
Vdebug-info
p171
I00
sVimage-file
p172
Varch/x86/boot/bzImage
p173
sstp174
Rp175
.