ccopy_reg
_reconstructor
p0
(cdebian_linux.config
ConfigCore
p1
c__builtin__
dict
p2
(dp3
(Vdescription
p4
Vamd64
p5
Vnone
p6
Vaptosid-amd64
p7
tp8
(dp9
Vparts
p10
(lp11
Vxen
p12
ass(Vimage
p13
Vi386
p14
tp15
(dp16
Vsuggests
p17
Vcrda
p18
sVinstall-stem
p19
Vvmlinuz
p20
sVbreaks
p21
Vxserver-xorg-input-vmmouse (<< 1:13.0.99)
p22
sVbootloaders
p23
(lp24
Vgrub-pc
p25
aVextlinux
p26
aVgrub-efi-ia32
p27
ass(Vbase
p28
tp29
(dp30
Varches
p31
(lp32
Vamd64
p33
aVi386
p34
asVfeaturesets
p35
(lp36
Vnone
p37
asVcompiler
p38
Vgcc-6
p39
ss(Vrelations
p40
tp41
(dp42
Vinitramfs-tools
p43
Vinitramfs-tools (>= 0.121~)
p44
sVinitramfs-fallback
p45
Vlinux-initramfs-tool
p46
sVgcc-6
p47
Vgcc-6
p48
ss(Vbase
p49
g5
tp50
(dp51
Vfeaturesets
p52
(lp53
Vnone
p54
ag6
asVkernel-arch
p55
Vx86
p56
ss(Vbuild
p57
g5
tp58
(dp59
Vdebug-info
p60
I00
sVimage-file
p61
Varch/x86/boot/bzImage
p62
ss(Vbase
p63
g14
Vnone
p64
tp65
(dp66
Vflavours
p67
(lp68
Vaptosid-686
p69
asVimplicit-flavour
p70
I01
ss(Vdescription
p71
tp72
(dp73
Vpart-long-xen
p74
VThis kernel also runs on a Xen hypervisor.\u000aIt supports both privileged (dom0) and unprivileged (domU) operation.
p75
sVpart-long-up
p76
VThis kernel is not suitable for SMP (multi-processor,\u000amulti-core or hyper-threaded) systems.
p77
ss(Vbase
p78
g14
tp79
(dp80
Vfeaturesets
p81
(lp82
g54
ag64
asVkernel-arch
p83
Vx86
p84
ss(Vdescription
p85
g14
NVaptosid-686
p86
tp87
(dp88
Vhardware-long
p89
VPCs with Intel Pentium Pro/II/III/4/4M/D/M, Xeon, Celeron, Core or Atom; AMD Geode LX/NX, Athlon (K7), Duron, Opteron, Sempron, Turion or Phenom; Transmeta Efficeon; VIA C3 "Nehemiah" or C7 processors
p90
sVhardware
p91
Vmodern PCs
p92
ss(Vimage
p93
g5
tp94
(dp95
Vsuggests
p96
Vcrda
p97
sVinstall-stem
p98
Vvmlinuz
p99
sVbreaks
p100
Vxserver-xorg-input-vmmouse (<< 1:13.0.99)
p101
sVbootloaders
p102
(lp103
Vgrub-pc
p104
aVextlinux
p105
aVgrub-efi-amd64
p106
ass(Vabi
p107
tp108
(dp109
Vabiname
p110
V9.slh.1
p111
ss(Vversion
p112
tp113
(dp114
Vsource
p115
V4.9-14
p116
sVabiname_base
p117
V4.9.0
p118
sVabiname
p119
V4.9.0-9.slh.1
p120
sVupstream
p121
V4.9
p122
ss(Vdescription
p123
g5
NVaptosid-amd64
p124
tp125
(dp126
Vhardware-long
p127
VPCs with AMD64 or Intel 64 processors
p128
sVhardware
p129
V64-bit PCs
p130
ss(Vbuild
p131
g14
tp132
(dp133
Vdebug-info
p134
I00
sVimage-file
p135
Varch/x86/boot/bzImage
p136
ss(Vimage
p137
tp138
(dp139
Vinitramfs-generators
p140
(lp141
Vinitramfs-tools
p142
aVinitramfs-fallback
p143
ass(Vbase
p144
g5
g6
tp145
(dp146
g67
(lp147
Vaptosid-amd64
p148
asg70
I01
sstp149
Rp150
.