ccopy_reg
_reconstructor
p0
(cdebian_linux.config
ConfigCore
p1
c__builtin__
dict
p2
(dp3
(Vdescription
p4
tp5
(dp6
Vpart-long-xen
p7
VThis kernel also runs on a Xen hypervisor.\u000aIt supports both privileged (dom0) and unprivileged (domU) operation.
p8
sVpart-long-up
p9
VThis kernel is not suitable for SMP (multi-processor,\u000amulti-core or hyper-threaded) systems.
p10
ss(Vimage
p11
Vamd64
p12
tp13
(dp14
Vinstall-stem
p15
Vvmlinuz
p16
sVbootloaders
p17
(lp18
Vgrub-pc
p19
aVextlinux
p20
aVgrub-efi-amd64
p21
asVsuggests
p22
Vcrda
p23
sVbreaks
p24
Vxserver-xorg-input-vmmouse (<< 1:13.0.99)
p25
ss(Vimage
p26
tp27
(dp28
Vinitramfs-generators
p29
(lp30
Vinitramfs-tools
p31
aVinitramfs-fallback
p32
ass(Vbase
p33
g12
tp34
(dp35
Vfeaturesets
p36
(lp37
Vnone
p38
aVnone
p39
asVkernel-arch
p40
Vx86
p41
ss(Vdescription
p42
g12
g39
Vaptosid-amd64
p43
tp44
(dp45
Vparts
p46
(lp47
Vxen
p48
ass(Vbase
p49
tp50
(dp51
Vfeaturesets
p52
(lp53
Vnone
p54
asVarches
p55
(lp56
Vamd64
p57
aVi386
p58
asVcompiler
p59
Vgcc-6
p60
ss(Vabi
p61
tp62
(dp63
Vabiname
p64
V9.slh.2
p65
ss(Vbase
p66
Vi386
p67
tp68
(dp69
Vfeaturesets
p70
(lp71
g38
aVnone
p72
asVkernel-arch
p73
Vx86
p74
ss(Vbuild
p75
g12
tp76
(dp77
Vimage-file
p78
Varch/x86/boot/bzImage
p79
sVdebug-info
p80
I00
ss(Vrelations
p81
tp82
(dp83
Vinitramfs-tools
p84
Vinitramfs-tools (>= 0.121~)
p85
sVgcc-6
p86
Vgcc-6
p87
sVinitramfs-fallback
p88
Vlinux-initramfs-tool
p89
ss(Vbase
p90
g67
g72
tp91
(dp92
Vimplicit-flavour
p93
I01
sVflavours
p94
(lp95
Vaptosid-686
p96
ass(Vdescription
p97
g12
NVaptosid-amd64
p98
tp99
(dp100
Vhardware
p101
V64-bit PCs
p102
sVhardware-long
p103
VPCs with AMD64 or Intel 64 processors
p104
ss(Vdescription
p105
g67
NVaptosid-686
p106
tp107
(dp108
Vhardware
p109
Vmodern PCs
p110
sVhardware-long
p111
VPCs with Intel Pentium Pro/II/III/4/4M/D/M, Xeon, Celeron, Core or Atom; AMD Geode LX/NX, Athlon (K7), Duron, Opteron, Sempron, Turion or Phenom; Transmeta Efficeon; VIA C3 "Nehemiah" or C7 processors
p112
ss(Vimage
p113
g67
tp114
(dp115
Vinstall-stem
p116
Vvmlinuz
p117
sVbootloaders
p118
(lp119
Vgrub-pc
p120
aVextlinux
p121
aVgrub-efi-ia32
p122
asVsuggests
p123
Vcrda
p124
sVbreaks
p125
Vxserver-xorg-input-vmmouse (<< 1:13.0.99)
p126
ss(Vversion
p127
tp128
(dp129
Vsource
p130
V4.10-15
p131
sVupstream
p132
V4.10
p133
sVabiname
p134
V4.10.0-9.slh.2
p135
sVabiname_base
p136
V4.10.0
p137
ss(Vbuild
p138
g67
tp139
(dp140
Vimage-file
p141
Varch/x86/boot/bzImage
p142
sVdebug-info
p143
I00
ss(Vbase
p144
g12
g39
tp145
(dp146
g93
I01
sg94
(lp147
Vaptosid-amd64
p148
asstp149
Rp150
.