ccopy_reg
_reconstructor
p0
(cdebian_linux.config
ConfigCore
p1
c__builtin__
dict
p2
(dp3
(Vdescription
p4
Vi386
p5
NVaptosid-686
p6
tp7
(dp8
Vhardware
p9
Vmodern PCs
p10
sVhardware-long
p11
VPCs with Intel Pentium Pro/II/III/4/4M/D/M, Xeon, Celeron, Core or Atom; AMD Geode LX/NX, Athlon (K7), Duron, Opteron, Sempron, Turion or Phenom; Transmeta Efficeon; VIA C3 "Nehemiah" or C7 processors
p12
ss(Vabi
p13
tp14
(dp15
Vabiname
p16
V2.slh.3
p17
ss(Vimage
p18
tp19
(dp20
Vtype
p21
Vplain
p22
sVinitramfs-generators
p23
(lp24
Vinitramfs-tools
p25
aVinitramfs-fallback
p26
ass(Vrelations
p27
tp28
(dp29
Vgcc-5
p30
Vgcc-5
p31
sVinitramfs-tools
p32
Vinitramfs-tools (>= 0.118+c0.aptosid.1~)
p33
sVinitramfs-fallback
p34
Vlinux-initramfs-tool
p35
ss(Vdescription
p36
tp37
(dp38
Vpart-long-up
p39
VThis kernel is not suitable for SMP (multi-processor,\u000amulti-core or hyper-threaded) systems.
p40
sVpart-long-xen
p41
VThis kernel also runs on a Xen hypervisor.\u000aIt supports both privileged (dom0) and unprivileged (domU) operation.
p42
ss(Vdescription
p43
Vamd64
p44
NVaptosid-amd64
p45
tp46
(dp47
Vhardware
p48
V64-bit PCs
p49
sVhardware-long
p50
VPCs with AMD64 or Intel 64 processors
p51
ss(Vbuild
p52
g5
tp53
(dp54
Vdebug-info
p55
I00
sVimage-file
p56
Varch/x86/boot/bzImage
p57
ss(Vimage
p58
g44
tp59
(dp60
Vconfigs
p61
(lp62
sVsuggests
p63
Vcrda
p64
sVbootloaders
p65
(lp66
Vgrub-pc
p67
aVextlinux
p68
aVgrub-efi-amd64
p69
asVinstall-stem
p70
Vvmlinuz
p71
ss(Vbase
p72
tp73
(dp74
Varches
p75
(lp76
Vamd64
p77
aVi386
p78
asVcompiler
p79
Vgcc-5
p80
sVfeaturesets
p81
(lp82
Vnone
p83
ass(Vimage
p84
g44
NVaptosid-amd64
p85
tp86
(dp87
Vconfigs
p88
(lp89
Vkernelarch-x86/config-arch-64
p90
ass(Vbase
p91
g5
tp92
(dp93
Vkernel-arch
p94
Vx86
p95
sVfeaturesets
p96
(lp97
Vnone
p98
aVnone
p99
ass(Vimage
p100
g5
NVaptosid-686
p101
tp102
(dp103
Vconfigs
p104
(lp105
Vkernelarch-x86/config-arch-32
p106
asVrecommends
p107
Vlibc6-i686
p108
ss(Vbase
p109
g44
tp110
(dp111
Vkernel-arch
p112
Vx86
p113
sVfeaturesets
p114
(lp115
g98
aVnone
p116
ass(Vdescription
p117
g44
g116
Vaptosid-amd64
p118
tp119
(dp120
Vparts
p121
(lp122
Vxen
p123
ass(Vbase
p124
g5
g99
tp125
(dp126
Vflavours
p127
(lp128
Vaptosid-686
p129
asVimplicit-flavour
p130
I01
ss(Vimage
p131
g5
tp132
(dp133
Vconfigs
p134
(lp135
sVsuggests
p136
Vcrda
p137
sVbootloaders
p138
(lp139
Vgrub-pc
p140
aVextlinux
p141
aVgrub-efi-ia32
p142
asVinstall-stem
p143
Vvmlinuz
p144
ss(Vversion
p145
tp146
(dp147
Vabiname
p148
V4.3.0-2.slh.3
p149
sVabiname_base
p150
V4.3.0
p151
sVupstream
p152
V4.3
p153
sVsource
p154
V4.3-10
p155
ss(Vbase
p156
g44
g116
tp157
(dp158
g127
(lp159
Vaptosid-amd64
p160
asg130
I01
ss(Vxen
p161
g44
g116
Vaptosid-amd64
p162
tp163
(dp164
Vflavours
p165
(lp166
Vaptosid-amd64
p167
ass(Vbuild
p168
g44
tp169
(dp170
Vdebug-info
p171
I00
sVimage-file
p172
Varch/x86/boot/bzImage
p173
sstp174
Rp175
.