ccopy_reg
_reconstructor
p0
(cdebian_linux.config
ConfigCore
p1
c__builtin__
dict
p2
(dp3
(Vbase
p4
Vamd64
p5
tp6
(dp7
Vkernel-arch
p8
Vx86
p9
sVfeaturesets
p10
(lp11
Vnone
p12
aVnone
p13
ass(Vrelations
p14
tp15
(dp16
Vinitramfs-tools
p17
Vinitramfs-tools (>= 0.121~)
p18
sVinitramfs-fallback
p19
Vlinux-initramfs-tool
p20
sVgcc-6
p21
Vgcc-6
p22
ss(Vabi
p23
tp24
(dp25
Vabiname
p26
V0.slh.3
p27
ss(Vbase
p28
tp29
(dp30
Vcompiler
p31
Vgcc-6
p32
sVfeaturesets
p33
(lp34
Vnone
p35
asVarches
p36
(lp37
Vamd64
p38
aVi386
p39
ass(Vdescription
p40
g5
NVaptosid-amd64
p41
tp42
(dp43
Vhardware
p44
V64-bit PCs
p45
sVhardware-long
p46
VPCs with AMD64 or Intel 64 processors
p47
ss(Vbuild
p48
Vi386
p49
tp50
(dp51
Vimage-file
p52
Varch/x86/boot/bzImage
p53
sVdebug-info
p54
I00
ss(Vversion
p55
tp56
(dp57
Vabiname
p58
V4.10.0-0.slh.3
p59
sVupstream
p60
V4.10
p61
sVsource
p62
V4.10-3
p63
sVabiname_base
p64
V4.10.0
p65
ss(Vimage
p66
g49
tp67
(dp68
Vbreaks
p69
Vxserver-xorg-input-vmmouse (<< 1:13.0.99)
p70
sVinstall-stem
p71
Vvmlinuz
p72
sVsuggests
p73
Vcrda
p74
sVbootloaders
p75
(lp76
Vgrub-pc
p77
aVextlinux
p78
aVgrub-efi-ia32
p79
ass(Vbase
p80
g49
tp81
(dp82
Vkernel-arch
p83
Vx86
p84
sVfeaturesets
p85
(lp86
g12
aVnone
p87
ass(Vbase
p88
g5
g13
tp89
(dp90
Vimplicit-flavour
p91
I01
sVflavours
p92
(lp93
Vaptosid-amd64
p94
ass(Vdescription
p95
g49
NVaptosid-686
p96
tp97
(dp98
Vhardware
p99
Vmodern PCs
p100
sVhardware-long
p101
VPCs with Intel Pentium Pro/II/III/4/4M/D/M, Xeon, Celeron, Core or Atom; AMD Geode LX/NX, Athlon (K7), Duron, Opteron, Sempron, Turion or Phenom; Transmeta Efficeon; VIA C3 "Nehemiah" or C7 processors
p102
ss(Vimage
p103
tp104
(dp105
Vinitramfs-generators
p106
(lp107
Vinitramfs-tools
p108
aVinitramfs-fallback
p109
ass(Vbase
p110
g49
g87
tp111
(dp112
g91
I01
sg92
(lp113
Vaptosid-686
p114
ass(Vbuild
p115
g5
tp116
(dp117
Vimage-file
p118
Varch/x86/boot/bzImage
p119
sVdebug-info
p120
I00
ss(Vimage
p121
g5
tp122
(dp123
Vbreaks
p124
Vxserver-xorg-input-vmmouse (<< 1:13.0.99)
p125
sVinstall-stem
p126
Vvmlinuz
p127
sVsuggests
p128
Vcrda
p129
sVbootloaders
p130
(lp131
Vgrub-pc
p132
aVextlinux
p133
aVgrub-efi-amd64
p134
ass(Vdescription
p135
g5
g13
Vaptosid-amd64
p136
tp137
(dp138
Vparts
p139
(lp140
Vxen
p141
ass(Vdescription
p142
tp143
(dp144
Vpart-long-xen
p145
VThis kernel also runs on a Xen hypervisor.\u000aIt supports both privileged (dom0) and unprivileged (domU) operation.
p146
sVpart-long-up
p147
VThis kernel is not suitable for SMP (multi-processor,\u000amulti-core or hyper-threaded) systems.
p148
sstp149
Rp150
.