ccopy_reg
_reconstructor
p0
(cdebian_linux.config
ConfigCore
p1
c__builtin__
dict
p2
(dp3
(Vbase
p4
Vamd64
p5
Vnone
p6
tp7
(dp8
Vimplicit-flavour
p9
I01
sVflavours
p10
(lp11
Vaptosid-amd64
p12
ass(Vimage
p13
g5
tp14
(dp15
Vsuggests
p16
Vcrda
p17
sVbreaks
p18
Vxserver-xorg-input-vmmouse (<< 1:13.0.99)
p19
sVinstall-stem
p20
Vvmlinuz
p21
sVbootloaders
p22
(lp23
Vgrub-pc
p24
aVextlinux
p25
aVgrub-efi-amd64
p26
ass(Vdescription
p27
tp28
(dp29
Vpart-long-up
p30
VThis kernel is not suitable for SMP (multi-processor,\u000amulti-core or hyper-threaded) systems.
p31
sVpart-long-xen
p32
VThis kernel also runs on a Xen hypervisor.\u000aIt supports both privileged (dom0) and unprivileged (domU) operation.
p33
ss(Vimage
p34
Vi386
p35
tp36
(dp37
Vsuggests
p38
Vcrda
p39
sVbreaks
p40
Vxserver-xorg-input-vmmouse (<< 1:13.0.99)
p41
sVinstall-stem
p42
Vvmlinuz
p43
sVbootloaders
p44
(lp45
Vgrub-pc
p46
aVextlinux
p47
aVgrub-efi-ia32
p48
ass(Vrelations
p49
tp50
(dp51
Vinitramfs-tools
p52
Vinitramfs-tools (>= 0.121~)
p53
sVinitramfs-fallback
p54
Vlinux-initramfs-tool
p55
sVgcc-6
p56
Vgcc-6
p57
ss(Vdescription
p58
g5
g6
Vaptosid-amd64
p59
tp60
(dp61
Vparts
p62
(lp63
Vxen
p64
ass(Vbase
p65
g35
Vnone
p66
tp67
(dp68
g9
I01
sg10
(lp69
Vaptosid-686
p70
ass(Vversion
p71
tp72
(dp73
Vsource
p74
V4.10-12
p75
sVabiname_base
p76
V4.10.0
p77
sVupstream
p78
V4.10
p79
sVabiname
p80
V4.10.0-7.slh.1
p81
ss(Vbase
p82
tp83
(dp84
Vcompiler
p85
Vgcc-6
p86
sVarches
p87
(lp88
Vamd64
p89
aVi386
p90
asVfeaturesets
p91
(lp92
Vnone
p93
ass(Vdescription
p94
g5
NVaptosid-amd64
p95
tp96
(dp97
Vhardware-long
p98
VPCs with AMD64 or Intel 64 processors
p99
sVhardware
p100
V64-bit PCs
p101
ss(Vbuild
p102
g35
tp103
(dp104
Vimage-file
p105
Varch/x86/boot/bzImage
p106
sVdebug-info
p107
I00
ss(Vbase
p108
g5
tp109
(dp110
Vkernel-arch
p111
Vx86
p112
sVfeaturesets
p113
(lp114
Vnone
p115
ag6
ass(Vimage
p116
tp117
(dp118
Vinitramfs-generators
p119
(lp120
Vinitramfs-tools
p121
aVinitramfs-fallback
p122
ass(Vbase
p123
g35
tp124
(dp125
Vkernel-arch
p126
Vx86
p127
sVfeaturesets
p128
(lp129
g115
ag66
ass(Vbuild
p130
g5
tp131
(dp132
Vimage-file
p133
Varch/x86/boot/bzImage
p134
sVdebug-info
p135
I00
ss(Vabi
p136
tp137
(dp138
Vabiname
p139
V7.slh.1
p140
ss(Vdescription
p141
g35
NVaptosid-686
p142
tp143
(dp144
Vhardware-long
p145
VPCs with Intel Pentium Pro/II/III/4/4M/D/M, Xeon, Celeron, Core or Atom; AMD Geode LX/NX, Athlon (K7), Duron, Opteron, Sempron, Turion or Phenom; Transmeta Efficeon; VIA C3 "Nehemiah" or C7 processors
p146
sVhardware
p147
Vmodern PCs
p148
sstp149
Rp150
.