ccopy_reg
_reconstructor
p0
(cdebian_linux.config
ConfigCore
p1
c__builtin__
dict
p2
(dp3
(Vrelations
p4
tp5
(dp6
Vinitramfs-fallback
p7
Vlinux-initramfs-tool
p8
sVgcc-6
p9
Vgcc-6
p10
sVinitramfs-tools
p11
Vinitramfs-tools (>= 0.121~)
p12
ss(Vimage
p13
Vamd64
p14
tp15
(dp16
Vbootloaders
p17
(lp18
Vgrub-pc
p19
aVextlinux
p20
aVgrub-efi-amd64
p21
asVsuggests
p22
Vcrda
p23
sVbreaks
p24
Vxserver-xorg-input-vmmouse (<< 1:13.0.99)
p25
sVinstall-stem
p26
Vvmlinuz
p27
ss(Vbase
p28
g14
Vnone
p29
tp30
(dp31
Vflavours
p32
(lp33
Vaptosid-amd64
p34
asVimplicit-flavour
p35
I01
ss(Vbase
p36
g14
tp37
(dp38
Vkernel-arch
p39
Vx86
p40
sVfeaturesets
p41
(lp42
Vnone
p43
ag29
ass(Vbase
p44
Vi386
p45
Vnone
p46
tp47
(dp48
g32
(lp49
Vaptosid-686
p50
asg35
I01
ss(Vbuild
p51
g45
tp52
(dp53
Vimage-file
p54
Varch/x86/boot/bzImage
p55
sVdebug-info
p56
I00
ss(Vbase
p57
g45
tp58
(dp59
Vkernel-arch
p60
Vx86
p61
sVfeaturesets
p62
(lp63
g43
ag46
ass(Vdescription
p64
tp65
(dp66
Vpart-long-up
p67
VThis kernel is not suitable for SMP (multi-processor,\u000amulti-core or hyper-threaded) systems.
p68
sVpart-long-xen
p69
VThis kernel also runs on a Xen hypervisor.\u000aIt supports both privileged (dom0) and unprivileged (domU) operation.
p70
ss(Vdescription
p71
g14
g29
Vaptosid-amd64
p72
tp73
(dp74
Vparts
p75
(lp76
Vxen
p77
ass(Vbase
p78
tp79
(dp80
Vfeaturesets
p81
(lp82
Vnone
p83
asVcompiler
p84
Vgcc-6
p85
sVarches
p86
(lp87
Vamd64
p88
aVi386
p89
ass(Vabi
p90
tp91
(dp92
Vabiname
p93
V3.slh.1
p94
ss(Vdescription
p95
g45
NVaptosid-686
p96
tp97
(dp98
Vhardware-long
p99
VPCs with Intel Pentium Pro/II/III/4/4M/D/M, Xeon, Celeron, Core or Atom; AMD Geode LX/NX, Athlon (K7), Duron, Opteron, Sempron, Turion or Phenom; Transmeta Efficeon; VIA C3 "Nehemiah" or C7 processors
p100
sVhardware
p101
Vmodern PCs
p102
ss(Vdescription
p103
g14
NVaptosid-amd64
p104
tp105
(dp106
Vhardware-long
p107
VPCs with AMD64 or Intel 64 processors
p108
sVhardware
p109
V64-bit PCs
p110
ss(Vversion
p111
tp112
(dp113
Vupstream
p114
V4.11
p115
sVsource
p116
V4.11-8
p117
sVabiname
p118
V4.11.0-3.slh.1
p119
sVabiname_base
p120
V4.11.0
p121
ss(Vimage
p122
g45
tp123
(dp124
Vbootloaders
p125
(lp126
Vgrub-pc
p127
aVextlinux
p128
aVgrub-efi-ia32
p129
asVsuggests
p130
Vcrda
p131
sVbreaks
p132
Vxserver-xorg-input-vmmouse (<< 1:13.0.99)
p133
sVinstall-stem
p134
Vvmlinuz
p135
ss(Vbuild
p136
g14
tp137
(dp138
Vimage-file
p139
Varch/x86/boot/bzImage
p140
sVdebug-info
p141
I00
ss(Vimage
p142
tp143
(dp144
Vinitramfs-generators
p145
(lp146
Vinitramfs-tools
p147
aVinitramfs-fallback
p148
asstp149
Rp150
.