ccopy_reg
_reconstructor
p0
(cdebian_linux.config
ConfigCore
p1
c__builtin__
dict
p2
(dp3
(Vbuild
p4
Vamd64
p5
tp6
(dp7
Vimage-file
p8
Varch/x86/boot/bzImage
p9
sVdebug-info
p10
I00
ss(Vdescription
p11
tp12
(dp13
Vpart-long-xen
p14
VThis kernel also runs on a Xen hypervisor.\u000aIt supports both privileged (dom0) and unprivileged (domU) operation.
p15
sVpart-long-up
p16
VThis kernel is not suitable for SMP (multi-processor,\u000amulti-core or hyper-threaded) systems.
p17
ss(Vimage
p18
g5
tp19
(dp20
Vinstall-stem
p21
Vvmlinuz
p22
sVbootloaders
p23
(lp24
Vgrub-pc
p25
aVextlinux
p26
aVgrub-efi-amd64
p27
asVbreaks
p28
Vxserver-xorg-input-vmmouse (<< 1:13.0.99)
p29
sVsuggests
p30
Vcrda
p31
ss(Vbase
p32
g5
Vnone
p33
tp34
(dp35
Vimplicit-flavour
p36
I01
sVflavours
p37
(lp38
Vaptosid-amd64
p39
ass(Vbuild
p40
Vi386
p41
tp42
(dp43
Vimage-file
p44
Varch/x86/boot/bzImage
p45
sVdebug-info
p46
I00
ss(Vdescription
p47
g5
NVaptosid-amd64
p48
tp49
(dp50
Vhardware
p51
V64-bit PCs
p52
sVhardware-long
p53
VPCs with AMD64 or Intel 64 processors
p54
ss(Vbase
p55
g5
tp56
(dp57
Vfeaturesets
p58
(lp59
Vnone
p60
ag33
asVkernel-arch
p61
Vx86
p62
ss(Vdescription
p63
g41
NVaptosid-686
p64
tp65
(dp66
Vhardware
p67
Vmodern PCs
p68
sVhardware-long
p69
VPCs with Intel Pentium Pro/II/III/4/4M/D/M, Xeon, Celeron, Core or Atom; AMD Geode LX/NX, Athlon (K7), Duron, Opteron, Sempron, Turion or Phenom; Transmeta Efficeon; VIA C3 "Nehemiah" or C7 processors
p70
ss(Vimage
p71
g41
tp72
(dp73
Vinstall-stem
p74
Vvmlinuz
p75
sVbootloaders
p76
(lp77
Vgrub-pc
p78
aVextlinux
p79
aVgrub-efi-ia32
p80
asVbreaks
p81
Vxserver-xorg-input-vmmouse (<< 1:13.0.99)
p82
sVsuggests
p83
Vcrda
p84
ss(Vabi
p85
tp86
(dp87
Vabiname
p88
V1.slh.2
p89
ss(Vxen
p90
g5
g33
Vaptosid-amd64
p91
tp92
(dp93
Vflavours
p94
(lp95
Vaptosid-amd64
p96
ass(Vversion
p97
tp98
(dp99
Vsource
p100
V4.8-4
p101
sVabiname
p102
V4.8.0-1.slh.2
p103
sVabiname_base
p104
V4.8.0
p105
sVupstream
p106
V4.8
p107
ss(Vbase
p108
g41
tp109
(dp110
Vfeaturesets
p111
(lp112
g60
aVnone
p113
asVkernel-arch
p114
Vx86
p115
ss(Vrelations
p116
tp117
(dp118
Vinitramfs-fallback
p119
Vlinux-initramfs-tool
p120
sVinitramfs-tools
p121
Vinitramfs-tools (>= 0.121~)
p122
sVgcc-6
p123
Vgcc-6
p124
ss(Vbase
p125
g41
g113
tp126
(dp127
g36
I01
sg37
(lp128
Vaptosid-686
p129
ass(Vimage
p130
tp131
(dp132
Vinitramfs-generators
p133
(lp134
Vinitramfs-tools
p135
aVinitramfs-fallback
p136
ass(Vbase
p137
tp138
(dp139
Vfeaturesets
p140
(lp141
Vnone
p142
asVarches
p143
(lp144
Vamd64
p145
aVi386
p146
asVcompiler
p147
Vgcc-6
p148
ss(Vdescription
p149
g5
g33
Vaptosid-amd64
p150
tp151
(dp152
Vparts
p153
(lp154
Vxen
p155
asstp156
Rp157
.