ccopy_reg
_reconstructor
p0
(cdebian_linux.config
ConfigCore
p1
c__builtin__
dict
p2
(dp3
(Vabi
p4
tp5
(dp6
Vabiname
p7
V7.slh.1
p8
ss(Vbase
p9
tp10
(dp11
Varches
p12
(lp13
Vamd64
p14
aVi386
p15
asVcompiler
p16
Vgcc-15
p17
sVfeaturesets
p18
(lp19
Vnone
p20
ass(Vdescription
p21
tp22
(dp23
Vpart-long-up
p24
VThis kernel is not suitable for SMP (multi-processor,\u000amulti-core or hyper-threaded) systems.
p25
sVpart-long-xen
p26
VThis kernel also runs on a Xen hypervisor.\u000aIt supports both privileged (dom0) and unprivileged (domU) operation.
p27
ss(Vimage
p28
tp29
(dp30
Vinitramfs-generators
p31
(lp32
Vinitramfs-tools
p33
aVinitramfs-fallback
p34
ass(Vrelations
p35
tp36
(dp37
Vgcc-15
p38
Vgcc-15
p39
sVinitramfs-fallback
p40
Vlinux-initramfs-tool
p41
sVinitramfs-tools
p42
Vinitramfs-tools (>= 0.121~)
p43
ss(Vbase
p44
Vamd64
p45
tp46
(dp47
Vfeaturesets
p48
(lp49
Vnone
p50
aVnone
p51
asVkernel-arch
p52
Vx86
p53
ss(Vbuild
p54
g45
tp55
(dp56
Vdebug-info
p57
I00
sVimage-file
p58
Varch/x86/boot/bzImage
p59
ss(Vimage
p60
g45
tp61
(dp62
Vbootloaders
p63
(lp64
Vgrub-pc
p65
aVextlinux
p66
aVgrub-efi-amd64
p67
asVinstall-stem
p68
Vvmlinuz
p69
sVbreaks
p70
Vxserver-xorg-input-vmmouse (<< 1:13.0.99)
p71
ss(Vdescription
p72
g45
NVaptosid-amd64
p73
tp74
(dp75
Vhardware
p76
V64-bit PCs
p77
sVhardware-long
p78
VPCs with AMD64 or Intel 64 processors
p79
ss(Vbase
p80
g45
g51
tp81
(dp82
Vflavours
p83
(lp84
Vaptosid-amd64
p85
asVimplicit-flavour
p86
I01
ss(Vdescription
p87
g45
g51
Vaptosid-amd64
p88
tp89
(dp90
Vparts
p91
(lp92
Vxen
p93
ass(Vbase
p94
Vi386
p95
tp96
(dp97
Vfeaturesets
p98
(lp99
g50
aVnone
p100
asVkernel-arch
p101
Vx86
p102
ss(Vbuild
p103
g95
tp104
(dp105
Vdebug-info
p106
I00
sVimage-file
p107
Varch/x86/boot/bzImage
p108
ss(Vimage
p109
g95
tp110
(dp111
Vbootloaders
p112
(lp113
Vgrub-pc
p114
aVextlinux
p115
aVgrub-efi-ia32
p116
asVinstall-stem
p117
Vvmlinuz
p118
sVbreaks
p119
Vxserver-xorg-input-vmmouse (<< 1:13.0.99)
p120
ss(Vdescription
p121
g95
NVaptosid-686
p122
tp123
(dp124
Vhardware
p125
Vmodern PCs
p126
sVhardware-long
p127
VPCs with Intel Pentium Pro/II/III/4/4M/D/M, Xeon, Celeron, Core or Atom; AMD Geode LX/NX, Athlon (K7), Duron, Opteron, Sempron, Turion or Phenom; Transmeta Efficeon; VIA C3 "Nehemiah" or C7 processors
p128
ss(Vbase
p129
g95
g100
tp130
(dp131
g83
(lp132
Vaptosid-686
p133
asg86
I01
ss(Vversion
p134
tp135
(dp136
Vsource
p137
V6.16-11
p138
sVupstream
p139
V6.16
p140
sVabiname_base
p141
V6.16.0
p142
sVabiname
p143
V6.16.0-7.slh.1
p144
sstp145
Rp146
.