ccopy_reg
_reconstructor
p0
(cdebian_linux.config
ConfigCore
p1
c__builtin__
dict
p2
(dp3
(Vabi
p4
tp5
(dp6
Vabiname
p7
V5.slh.1
p8
ss(Vimage
p9
tp10
(dp11
Vinitramfs-generators
p12
(lp13
Vinitramfs-tools
p14
aVinitramfs-fallback
p15
asVtype
p16
Vplain
p17
ss(Vimage
p18
Vamd64
p19
tp20
(dp21
Vconfigs
p22
(lp23
sVinstall-stem
p24
Vvmlinuz
p25
sVsuggests
p26
Vcrda
p27
sVbootloaders
p28
(lp29
Vgrub-pc
p30
aVextlinux
p31
aVgrub-efi-amd64
p32
ass(Vbuild
p33
Vi386
p34
tp35
(dp36
Vdebug-info
p37
I00
sVimage-file
p38
Varch/x86/boot/bzImage
p39
ss(Vdescription
p40
tp41
(dp42
Vpart-long-up
p43
VThis kernel is not suitable for SMP (multi-processor,\u000amulti-core or hyper-threaded) systems.
p44
sVpart-long-xen
p45
VThis kernel also runs on a Xen hypervisor.\u000aIt supports both privileged (dom0) and unprivileged (domU) operation.
p46
ss(Vbuild
p47
g19
tp48
(dp49
Vdebug-info
p50
I00
sVimage-file
p51
Varch/x86/boot/bzImage
p52
ss(Vimage
p53
g34
tp54
(dp55
Vconfigs
p56
(lp57
sVinstall-stem
p58
Vvmlinuz
p59
sVsuggests
p60
Vcrda
p61
sVbootloaders
p62
(lp63
Vgrub-pc
p64
aVextlinux
p65
aVgrub-efi-ia32
p66
ass(Vbase
p67
g19
Vnone
p68
tp69
(dp70
Vimplicit-flavour
p71
I01
sVflavours
p72
(lp73
Vaptosid-amd64
p74
ass(Vversion
p75
tp76
(dp77
Vabiname
p78
V4.4.0-5.slh.1
p79
sVabiname_base
p80
V4.4.0
p81
sVsource
p82
V4.4-17
p83
sVupstream
p84
V4.4
p85
ss(Vimage
p86
g19
NVaptosid-amd64
p87
tp88
(dp89
Vconfigs
p90
(lp91
Vkernelarch-x86/config-arch-64
p92
ass(Vdescription
p93
g19
NVaptosid-amd64
p94
tp95
(dp96
Vhardware-long
p97
VPCs with AMD64 or Intel 64 processors
p98
sVhardware
p99
V64-bit PCs
p100
ss(Vbase
p101
g19
tp102
(dp103
Vfeaturesets
p104
(lp105
Vnone
p106
ag68
asVkernel-arch
p107
Vx86
p108
ss(Vbase
p109
tp110
(dp111
Vfeaturesets
p112
(lp113
Vnone
p114
asVarches
p115
(lp116
Vamd64
p117
aVi386
p118
asVcompiler
p119
Vgcc-5
p120
ss(Vxen
p121
g19
g68
Vaptosid-amd64
p122
tp123
(dp124
Vflavours
p125
(lp126
Vaptosid-amd64
p127
ass(Vdescription
p128
g34
NVaptosid-686
p129
tp130
(dp131
Vhardware-long
p132
VPCs with Intel Pentium Pro/II/III/4/4M/D/M, Xeon, Celeron, Core or Atom; AMD Geode LX/NX, Athlon (K7), Duron, Opteron, Sempron, Turion or Phenom; Transmeta Efficeon; VIA C3 "Nehemiah" or C7 processors
p133
sVhardware
p134
Vmodern PCs
p135
ss(Vimage
p136
g34
NVaptosid-686
p137
tp138
(dp139
Vconfigs
p140
(lp141
Vkernelarch-x86/config-arch-32
p142
asVrecommends
p143
Vlibc6-i686
p144
ss(Vbase
p145
g34
Vnone
p146
tp147
(dp148
g71
I01
sg72
(lp149
Vaptosid-686
p150
ass(Vbase
p151
g34
tp152
(dp153
Vfeaturesets
p154
(lp155
g106
ag146
asVkernel-arch
p156
Vx86
p157
ss(Vrelations
p158
tp159
(dp160
Vinitramfs-fallback
p161
Vlinux-initramfs-tool
p162
sVinitramfs-tools
p163
Vinitramfs-tools (>= 0.118+c0.aptosid.1~)
p164
sVgcc-5
p165
Vgcc-5
p166
ss(Vdescription
p167
g19
g68
Vaptosid-amd64
p168
tp169
(dp170
Vparts
p171
(lp172
Vxen
p173
asstp174
Rp175
.