ccopy_reg
_reconstructor
p0
(cdebian_linux.config
ConfigCore
p1
c__builtin__
dict
p2
(dp3
(Vbase
p4
Vamd64
p5
Vnone
p6
tp7
(dp8
Vimplicit-flavour
p9
I01
sVflavours
p10
(lp11
Vaptosid-amd64
p12
ass(Vabi
p13
tp14
(dp15
Vabiname
p16
V4.slh.4
p17
ss(Vimage
p18
Vi386
p19
tp20
(dp21
Vsuggests
p22
Vcrda
p23
sVconfigs
p24
(lp25
sVinstall-stem
p26
Vvmlinuz
p27
sVbootloaders
p28
(lp29
Vgrub-pc
p30
aVextlinux
p31
aVgrub-efi-ia32
p32
ass(Vbase
p33
tp34
(dp35
Varches
p36
(lp37
Vamd64
p38
aVi386
p39
asVfeaturesets
p40
(lp41
Vnone
p42
asVcompiler
p43
Vgcc-5
p44
ss(Vimage
p45
g5
NVaptosid-amd64
p46
tp47
(dp48
Vconfigs
p49
(lp50
Vkernelarch-x86/config-arch-64
p51
ass(Vdescription
p52
g5
g6
Vaptosid-amd64
p53
tp54
(dp55
Vparts
p56
(lp57
Vxen
p58
ass(Vimage
p59
g5
tp60
(dp61
Vsuggests
p62
Vcrda
p63
sVconfigs
p64
(lp65
sVinstall-stem
p66
Vvmlinuz
p67
sVbootloaders
p68
(lp69
Vgrub-pc
p70
aVextlinux
p71
aVgrub-efi-amd64
p72
ass(Vbuild
p73
g19
tp74
(dp75
Vimage-file
p76
Varch/x86/boot/bzImage
p77
sVdebug-info
p78
I00
ss(Vdescription
p79
g19
NVaptosid-686
p80
tp81
(dp82
Vhardware
p83
Vmodern PCs
p84
sVhardware-long
p85
VPCs with Intel Pentium Pro/II/III/4/4M/D/M, Xeon, Celeron, Core or Atom; AMD Geode LX/NX, Athlon (K7), Duron, Opteron, Sempron, Turion or Phenom; Transmeta Efficeon; VIA C3 "Nehemiah" or C7 processors
p86
ss(Vbase
p87
g19
tp88
(dp89
Vfeaturesets
p90
(lp91
Vnone
p92
aVnone
p93
asVkernel-arch
p94
Vx86
p95
ss(Vdescription
p96
g5
NVaptosid-amd64
p97
tp98
(dp99
Vhardware
p100
V64-bit PCs
p101
sVhardware-long
p102
VPCs with AMD64 or Intel 64 processors
p103
ss(Vbuild
p104
g5
tp105
(dp106
Vimage-file
p107
Varch/x86/boot/bzImage
p108
sVdebug-info
p109
I00
ss(Vdescription
p110
tp111
(dp112
Vpart-long-xen
p113
VThis kernel also runs on a Xen hypervisor.\u000aIt supports both privileged (dom0) and unprivileged (domU) operation.
p114
sVpart-long-up
p115
VThis kernel is not suitable for SMP (multi-processor,\u000amulti-core or hyper-threaded) systems.
p116
ss(Vbase
p117
g5
tp118
(dp119
Vfeaturesets
p120
(lp121
g92
ag6
asVkernel-arch
p122
Vx86
p123
ss(Vrelations
p124
tp125
(dp126
Vgcc-5
p127
Vgcc-5
p128
sVinitramfs-tools
p129
Vinitramfs-tools (>= 0.121~)
p130
sVinitramfs-fallback
p131
Vlinux-initramfs-tool
p132
ss(Vbase
p133
g19
g93
tp134
(dp135
g9
I01
sg10
(lp136
Vaptosid-686
p137
ass(Vimage
p138
g19
NVaptosid-686
p139
tp140
(dp141
Vconfigs
p142
(lp143
Vkernelarch-x86/config-arch-32
p144
asVrecommends
p145
Vlibc6-i686
p146
ss(Vxen
p147
g5
g6
Vaptosid-amd64
p148
tp149
(dp150
Vflavours
p151
(lp152
Vaptosid-amd64
p153
ass(Vimage
p154
tp155
(dp156
Vinitramfs-generators
p157
(lp158
Vinitramfs-tools
p159
aVinitramfs-fallback
p160
asVtype
p161
Vplain
p162
ss(Vversion
p163
tp164
(dp165
Vabiname
p166
V4.6.0-4.slh.4
p167
sVsource
p168
V4.6-15
p169
sVupstream
p170
V4.6
p171
sVabiname_base
p172
V4.6.0
p173
sstp174
Rp175
.