ccopy_reg
_reconstructor
p0
(cdebian_linux.config
ConfigCore
p1
c__builtin__
dict
p2
(dp3
(Vdescription
p4
Vi386
p5
NVaptosid-686
p6
tp7
(dp8
Vhardware-long
p9
VPCs with Intel Pentium Pro/II/III/4/4M/D/M, Xeon, Celeron, Core or Atom; AMD Geode LX/NX, Athlon (K7), Duron, Opteron, Sempron, Turion or Phenom; Transmeta Efficeon; VIA C3 "Nehemiah" or C7 processors
p10
sVhardware
p11
Vmodern PCs
p12
ss(Vbuild
p13
g5
tp14
(dp15
Vdebug-info
p16
I00
sVimage-file
p17
Varch/x86/boot/bzImage
p18
ss(Vbase
p19
Vamd64
p20
tp21
(dp22
Vkernel-arch
p23
Vx86
p24
sVfeaturesets
p25
(lp26
Vnone
p27
aVnone
p28
ass(Vversion
p29
tp30
(dp31
Vabiname
p32
V4.9.0-9.slh.1
p33
sVsource
p34
V4.9-15
p35
sVabiname_base
p36
V4.9.0
p37
sVupstream
p38
V4.9
p39
ss(Vbase
p40
tp41
(dp42
Varches
p43
(lp44
Vamd64
p45
aVi386
p46
asVcompiler
p47
Vgcc-6
p48
sVfeaturesets
p49
(lp50
Vnone
p51
ass(Vbase
p52
g5
tp53
(dp54
Vkernel-arch
p55
Vx86
p56
sVfeaturesets
p57
(lp58
g27
aVnone
p59
ass(Vimage
p60
tp61
(dp62
Vinitramfs-generators
p63
(lp64
Vinitramfs-tools
p65
aVinitramfs-fallback
p66
ass(Vdescription
p67
g20
g28
Vaptosid-amd64
p68
tp69
(dp70
Vparts
p71
(lp72
Vxen
p73
ass(Vbase
p74
g5
g59
tp75
(dp76
Vflavours
p77
(lp78
Vaptosid-686
p79
asVimplicit-flavour
p80
I01
ss(Vdescription
p81
g20
NVaptosid-amd64
p82
tp83
(dp84
Vhardware-long
p85
VPCs with AMD64 or Intel 64 processors
p86
sVhardware
p87
V64-bit PCs
p88
ss(Vdescription
p89
tp90
(dp91
Vpart-long-xen
p92
VThis kernel also runs on a Xen hypervisor.\u000aIt supports both privileged (dom0) and unprivileged (domU) operation.
p93
sVpart-long-up
p94
VThis kernel is not suitable for SMP (multi-processor,\u000amulti-core or hyper-threaded) systems.
p95
ss(Vimage
p96
g5
tp97
(dp98
Vbreaks
p99
Vxserver-xorg-input-vmmouse (<< 1:13.0.99)
p100
sVbootloaders
p101
(lp102
Vgrub-pc
p103
aVextlinux
p104
aVgrub-efi-ia32
p105
asVsuggests
p106
Vcrda
p107
sVinstall-stem
p108
Vvmlinuz
p109
ss(Vrelations
p110
tp111
(dp112
Vinitramfs-tools
p113
Vinitramfs-tools (>= 0.121~)
p114
sVgcc-6
p115
Vgcc-6
p116
sVinitramfs-fallback
p117
Vlinux-initramfs-tool
p118
ss(Vabi
p119
tp120
(dp121
Vabiname
p122
V9.slh.1
p123
ss(Vimage
p124
g20
tp125
(dp126
Vbreaks
p127
Vxserver-xorg-input-vmmouse (<< 1:13.0.99)
p128
sVbootloaders
p129
(lp130
Vgrub-pc
p131
aVextlinux
p132
aVgrub-efi-amd64
p133
asVsuggests
p134
Vcrda
p135
sVinstall-stem
p136
Vvmlinuz
p137
ss(Vbase
p138
g20
g28
tp139
(dp140
g77
(lp141
Vaptosid-amd64
p142
asg80
I01
ss(Vbuild
p143
g20
tp144
(dp145
Vdebug-info
p146
I00
sVimage-file
p147
Varch/x86/boot/bzImage
p148
sstp149
Rp150
.