ccopy_reg
_reconstructor
p0
(cdebian_linux.config
ConfigCore
p1
c__builtin__
dict
p2
(dp3
(Vdescription
p4
Vi386
p5
NVaptosid-686
p6
tp7
(dp8
Vhardware-long
p9
VPCs with Intel Pentium Pro/II/III/4/4M/D/M, Xeon, Celeron, Core or Atom; AMD Geode LX/NX, Athlon (K7), Duron, Opteron, Sempron, Turion or Phenom; Transmeta Efficeon; VIA C3 "Nehemiah" or C7 processors
p10
sVhardware
p11
Vmodern PCs
p12
ss(Vdescription
p13
Vamd64
p14
Vnone
p15
Vaptosid-amd64
p16
tp17
(dp18
Vparts
p19
(lp20
Vxen
p21
ass(Vbase
p22
tp23
(dp24
Varches
p25
(lp26
Vamd64
p27
aVi386
p28
asVcompiler
p29
Vgcc-6
p30
sVfeaturesets
p31
(lp32
Vnone
p33
ass(Vversion
p34
tp35
(dp36
Vabiname
p37
V4.8.0-2.slh.1
p38
sVupstream
p39
V4.8
p40
sVsource
p41
V4.8-5
p42
sVabiname_base
p43
V4.8.0
p44
ss(Vxen
p45
g14
g15
Vaptosid-amd64
p46
tp47
(dp48
Vflavours
p49
(lp50
Vaptosid-amd64
p51
ass(Vimage
p52
tp53
(dp54
Vinitramfs-generators
p55
(lp56
Vinitramfs-tools
p57
aVinitramfs-fallback
p58
ass(Vimage
p59
g14
tp60
(dp61
Vbreaks
p62
Vxserver-xorg-input-vmmouse (<< 1:13.0.99)
p63
sVsuggests
p64
Vcrda
p65
sVinstall-stem
p66
Vvmlinuz
p67
sVbootloaders
p68
(lp69
Vgrub-pc
p70
aVextlinux
p71
aVgrub-efi-amd64
p72
ass(Vrelations
p73
tp74
(dp75
Vinitramfs-tools
p76
Vinitramfs-tools (>= 0.121~)
p77
sVinitramfs-fallback
p78
Vlinux-initramfs-tool
p79
sVgcc-6
p80
Vgcc-6
p81
ss(Vbase
p82
g5
tp83
(dp84
Vkernel-arch
p85
Vx86
p86
sVfeaturesets
p87
(lp88
Vnone
p89
aVnone
p90
ass(Vbuild
p91
g14
tp92
(dp93
Vdebug-info
p94
I00
sVimage-file
p95
Varch/x86/boot/bzImage
p96
ss(Vbase
p97
g5
g90
tp98
(dp99
Vflavours
p100
(lp101
Vaptosid-686
p102
asVimplicit-flavour
p103
I01
ss(Vabi
p104
tp105
(dp106
Vabiname
p107
V2.slh.1
p108
ss(Vdescription
p109
tp110
(dp111
Vpart-long-up
p112
VThis kernel is not suitable for SMP (multi-processor,\u000amulti-core or hyper-threaded) systems.
p113
sVpart-long-xen
p114
VThis kernel also runs on a Xen hypervisor.\u000aIt supports both privileged (dom0) and unprivileged (domU) operation.
p115
ss(Vbase
p116
g14
g15
tp117
(dp118
g100
(lp119
Vaptosid-amd64
p120
asg103
I01
ss(Vbuild
p121
g5
tp122
(dp123
Vdebug-info
p124
I00
sVimage-file
p125
Varch/x86/boot/bzImage
p126
ss(Vdescription
p127
g14
NVaptosid-amd64
p128
tp129
(dp130
Vhardware-long
p131
VPCs with AMD64 or Intel 64 processors
p132
sVhardware
p133
V64-bit PCs
p134
ss(Vbase
p135
g14
tp136
(dp137
Vkernel-arch
p138
Vx86
p139
sVfeaturesets
p140
(lp141
g89
ag15
ass(Vimage
p142
g5
tp143
(dp144
Vbreaks
p145
Vxserver-xorg-input-vmmouse (<< 1:13.0.99)
p146
sVsuggests
p147
Vcrda
p148
sVinstall-stem
p149
Vvmlinuz
p150
sVbootloaders
p151
(lp152
Vgrub-pc
p153
aVextlinux
p154
aVgrub-efi-ia32
p155
asstp156
Rp157
.