ccopy_reg
_reconstructor
p0
(cdebian_linux.config
ConfigCore
p1
c__builtin__
dict
p2
(dp3
(Vimage
p4
tp5
(dp6
Vinitramfs-generators
p7
(lp8
Vinitramfs-tools
p9
aVinitramfs-fallback
p10
asVtype
p11
Vplain
p12
ss(Vrelations
p13
tp14
(dp15
Vgcc-5
p16
Vgcc-5
p17
sVinitramfs-tools
p18
Vinitramfs-tools (>= 0.121~)
p19
sVinitramfs-fallback
p20
Vlinux-initramfs-tool
p21
ss(Vbuild
p22
Vi386
p23
tp24
(dp25
Vimage-file
p26
Varch/x86/boot/bzImage
p27
sVdebug-info
p28
I00
ss(Vdescription
p29
g23
NVaptosid-686
p30
tp31
(dp32
Vhardware
p33
Vmodern PCs
p34
sVhardware-long
p35
VPCs with Intel Pentium Pro/II/III/4/4M/D/M, Xeon, Celeron, Core or Atom; AMD Geode LX/NX, Athlon (K7), Duron, Opteron, Sempron, Turion or Phenom; Transmeta Efficeon; VIA C3 "Nehemiah" or C7 processors
p36
ss(Vxen
p37
Vamd64
p38
Vnone
p39
Vaptosid-amd64
p40
tp41
(dp42
Vflavours
p43
(lp44
Vaptosid-amd64
p45
ass(Vbase
p46
g38
g39
tp47
(dp48
Vimplicit-flavour
p49
I01
sVflavours
p50
(lp51
Vaptosid-amd64
p52
ass(Vdescription
p53
g38
NVaptosid-amd64
p54
tp55
(dp56
Vhardware
p57
V64-bit PCs
p58
sVhardware-long
p59
VPCs with AMD64 or Intel 64 processors
p60
ss(Vdescription
p61
tp62
(dp63
Vpart-long-up
p64
VThis kernel is not suitable for SMP (multi-processor,\u000amulti-core or hyper-threaded) systems.
p65
sVpart-long-xen
p66
VThis kernel also runs on a Xen hypervisor.\u000aIt supports both privileged (dom0) and unprivileged (domU) operation.
p67
ss(Vimage
p68
g23
NVaptosid-686
p69
tp70
(dp71
Vconfigs
p72
(lp73
Vkernelarch-x86/config-arch-32
p74
asVrecommends
p75
Vlibc6-i686
p76
ss(Vbase
p77
g23
tp78
(dp79
Vkernel-arch
p80
Vx86
p81
sVfeaturesets
p82
(lp83
Vnone
p84
aVnone
p85
ass(Vbase
p86
g38
tp87
(dp88
Vkernel-arch
p89
Vx86
p90
sVfeaturesets
p91
(lp92
g84
ag39
ass(Vbuild
p93
g38
tp94
(dp95
Vimage-file
p96
Varch/x86/boot/bzImage
p97
sVdebug-info
p98
I00
ss(Vbase
p99
g23
g85
tp100
(dp101
g49
I01
sg50
(lp102
Vaptosid-686
p103
ass(Vimage
p104
g38
NVaptosid-amd64
p105
tp106
(dp107
Vconfigs
p108
(lp109
Vkernelarch-x86/config-arch-64
p110
ass(Vimage
p111
g23
tp112
(dp113
Vconfigs
p114
(lp115
sVinstall-stem
p116
Vvmlinuz
p117
sVbootloaders
p118
(lp119
Vgrub-pc
p120
aVextlinux
p121
aVgrub-efi-ia32
p122
asVsuggests
p123
Vcrda
p124
ss(Vversion
p125
tp126
(dp127
Vsource
p128
V4.5-11
p129
sVabiname_base
p130
V4.5.0
p131
sVupstream
p132
V4.5
p133
sVabiname
p134
V4.5.0-4.slh.1
p135
ss(Vbase
p136
tp137
(dp138
Varches
p139
(lp140
Vamd64
p141
aVi386
p142
asVfeaturesets
p143
(lp144
Vnone
p145
asVcompiler
p146
Vgcc-5
p147
ss(Vabi
p148
tp149
(dp150
Vabiname
p151
V4.slh.1
p152
ss(Vimage
p153
g38
tp154
(dp155
Vconfigs
p156
(lp157
sVinstall-stem
p158
Vvmlinuz
p159
sVbootloaders
p160
(lp161
Vgrub-pc
p162
aVextlinux
p163
aVgrub-efi-amd64
p164
asVsuggests
p165
Vcrda
p166
ss(Vdescription
p167
g38
g39
Vaptosid-amd64
p168
tp169
(dp170
Vparts
p171
(lp172
Vxen
p173
asstp174
Rp175
.