ccopy_reg
_reconstructor
p0
(cdebian_linux.config
ConfigCore
p1
c__builtin__
dict
p2
(dp3
(Vbuild
p4
Vamd64
p5
tp6
(dp7
Vimage-file
p8
Varch/x86/boot/bzImage
p9
sVdebug-info
p10
I00
ss(Vdescription
p11
g5
NVaptosid-amd64
p12
tp13
(dp14
Vhardware
p15
V64-bit PCs
p16
sVhardware-long
p17
VPCs with AMD64 or Intel 64 processors
p18
ss(Vxen
p19
g5
Vnone
p20
Vaptosid-amd64
p21
tp22
(dp23
Vflavours
p24
(lp25
Vaptosid-amd64
p26
ass(Vimage
p27
Vi386
p28
NVaptosid-686
p29
tp30
(dp31
Vconfigs
p32
(lp33
Vkernelarch-x86/config-arch-32
p34
asVrecommends
p35
Vlibc6-i686
p36
ss(Vimage
p37
g28
tp38
(dp39
Vinstall-stem
p40
Vvmlinuz
p41
sVbootloaders
p42
(lp43
Vgrub-pc
p44
aVextlinux
p45
aVgrub-efi-ia32
p46
asVconfigs
p47
(lp48
sVsuggests
p49
Vcrda
p50
ss(Vbase
p51
g5
g20
tp52
(dp53
Vimplicit-flavour
p54
I01
sVflavours
p55
(lp56
Vaptosid-amd64
p57
ass(Vrelations
p58
tp59
(dp60
Vgcc-5
p61
Vgcc-5
p62
sVinitramfs-tools
p63
Vinitramfs-tools (>= 0.121~)
p64
sVinitramfs-fallback
p65
Vlinux-initramfs-tool
p66
ss(Vbase
p67
g28
tp68
(dp69
Vkernel-arch
p70
Vx86
p71
sVfeaturesets
p72
(lp73
Vnone
p74
aVnone
p75
ass(Vdescription
p76
g28
NVaptosid-686
p77
tp78
(dp79
Vhardware
p80
Vmodern PCs
p81
sVhardware-long
p82
VPCs with Intel Pentium Pro/II/III/4/4M/D/M, Xeon, Celeron, Core or Atom; AMD Geode LX/NX, Athlon (K7), Duron, Opteron, Sempron, Turion or Phenom; Transmeta Efficeon; VIA C3 "Nehemiah" or C7 processors
p83
ss(Vbase
p84
tp85
(dp86
Varches
p87
(lp88
Vamd64
p89
aVi386
p90
asVcompiler
p91
Vgcc-5
p92
sVfeaturesets
p93
(lp94
Vnone
p95
ass(Vdescription
p96
g5
g20
Vaptosid-amd64
p97
tp98
(dp99
Vparts
p100
(lp101
Vxen
p102
ass(Vbuild
p103
g28
tp104
(dp105
Vimage-file
p106
Varch/x86/boot/bzImage
p107
sVdebug-info
p108
I00
ss(Vversion
p109
tp110
(dp111
Vsource
p112
V4.6-5
p113
sVabiname
p114
V4.6.0-1.slh.1
p115
sVupstream
p116
V4.6
p117
sVabiname_base
p118
V4.6.0
p119
ss(Vbase
p120
g5
tp121
(dp122
Vkernel-arch
p123
Vx86
p124
sVfeaturesets
p125
(lp126
g74
ag20
ass(Vimage
p127
g5
NVaptosid-amd64
p128
tp129
(dp130
Vconfigs
p131
(lp132
Vkernelarch-x86/config-arch-64
p133
ass(Vabi
p134
tp135
(dp136
Vabiname
p137
V1.slh.1
p138
ss(Vbase
p139
g28
g75
tp140
(dp141
g54
I01
sg55
(lp142
Vaptosid-686
p143
ass(Vimage
p144
tp145
(dp146
Vinitramfs-generators
p147
(lp148
Vinitramfs-tools
p149
aVinitramfs-fallback
p150
asVtype
p151
Vplain
p152
ss(Vdescription
p153
tp154
(dp155
Vpart-long-up
p156
VThis kernel is not suitable for SMP (multi-processor,\u000amulti-core or hyper-threaded) systems.
p157
sVpart-long-xen
p158
VThis kernel also runs on a Xen hypervisor.\u000aIt supports both privileged (dom0) and unprivileged (domU) operation.
p159
ss(Vimage
p160
g5
tp161
(dp162
Vinstall-stem
p163
Vvmlinuz
p164
sVbootloaders
p165
(lp166
Vgrub-pc
p167
aVextlinux
p168
aVgrub-efi-amd64
p169
asVconfigs
p170
(lp171
sVsuggests
p172
Vcrda
p173
sstp174
Rp175
.