ccopy_reg
_reconstructor
p0
(cdebian_linux.config
ConfigCore
p1
c__builtin__
dict
p2
(dp3
(Vxen
p4
Vamd64
p5
Vnone
p6
Vaptosid-amd64
p7
tp8
(dp9
Vflavours
p10
(lp11
Vaptosid-amd64
p12
ass(Vbase
p13
g5
g6
tp14
(dp15
Vimplicit-flavour
p16
I01
sVflavours
p17
(lp18
Vaptosid-amd64
p19
ass(Vimage
p20
Vi386
p21
NVaptosid-686
p22
tp23
(dp24
Vrecommends
p25
Vlibc6-i686
p26
sVconfigs
p27
(lp28
Vkernelarch-x86/config-arch-32
p29
ass(Vabi
p30
tp31
(dp32
Vabiname
p33
V1.slh.2
p34
ss(Vbase
p35
g21
Vnone
p36
tp37
(dp38
g16
I01
sg17
(lp39
Vaptosid-686
p40
ass(Vimage
p41
tp42
(dp43
Vtype
p44
Vplain
p45
sVinitramfs-generators
p46
(lp47
Vinitramfs-tools
p48
aVinitramfs-fallback
p49
ass(Vversion
p50
tp51
(dp52
Vupstream
p53
V4.3
p54
sVabiname
p55
V4.3.0-1.slh.2
p56
sVsource
p57
V4.3-7
p58
sVabiname_base
p59
V4.3.0
p60
ss(Vdescription
p61
g21
NVaptosid-686
p62
tp63
(dp64
Vhardware
p65
Vmodern PCs
p66
sVhardware-long
p67
VPCs with Intel Pentium Pro/II/III/4/4M/D/M, Xeon, Celeron, Core or Atom; AMD Geode LX/NX, Athlon (K7), Duron, Opteron, Sempron, Turion or Phenom; Transmeta Efficeon; VIA C3 "Nehemiah" or C7 processors
p68
ss(Vbase
p69
tp70
(dp71
Varches
p72
(lp73
Vamd64
p74
aVi386
p75
asVcompiler
p76
Vgcc-5
p77
sVfeaturesets
p78
(lp79
Vnone
p80
ass(Vimage
p81
g21
tp82
(dp83
Vsuggests
p84
Vcrda
p85
sVbootloaders
p86
(lp87
Vgrub-pc
p88
aVextlinux
p89
aVgrub-efi-ia32
p90
asVconfigs
p91
(lp92
sVinstall-stem
p93
Vvmlinuz
p94
ss(Vbuild
p95
g5
tp96
(dp97
Vdebug-info
p98
I00
sVimage-file
p99
Varch/x86/boot/bzImage
p100
ss(Vbase
p101
g5
tp102
(dp103
Vfeaturesets
p104
(lp105
Vnone
p106
ag6
asVkernel-arch
p107
Vx86
p108
ss(Vbuild
p109
g21
tp110
(dp111
Vdebug-info
p112
I00
sVimage-file
p113
Varch/x86/boot/bzImage
p114
ss(Vimage
p115
g5
NVaptosid-amd64
p116
tp117
(dp118
Vconfigs
p119
(lp120
Vkernelarch-x86/config-arch-64
p121
ass(Vdescription
p122
g5
NVaptosid-amd64
p123
tp124
(dp125
Vhardware
p126
V64-bit PCs
p127
sVhardware-long
p128
VPCs with AMD64 or Intel 64 processors
p129
ss(Vbase
p130
g21
tp131
(dp132
Vfeaturesets
p133
(lp134
g106
ag36
asVkernel-arch
p135
Vx86
p136
ss(Vdescription
p137
tp138
(dp139
Vpart-long-xen
p140
VThis kernel also runs on a Xen hypervisor.\u000aIt supports both privileged (dom0) and unprivileged (domU) operation.
p141
sVpart-long-up
p142
VThis kernel is not suitable for SMP (multi-processor,\u000amulti-core or hyper-threaded) systems.
p143
ss(Vrelations
p144
tp145
(dp146
Vinitramfs-tools
p147
Vinitramfs-tools (>= 0.118+c0.aptosid.1~)
p148
sVinitramfs-fallback
p149
Vlinux-initramfs-tool
p150
sVgcc-5
p151
Vgcc-5
p152
ss(Vdescription
p153
g5
g6
Vaptosid-amd64
p154
tp155
(dp156
Vparts
p157
(lp158
Vxen
p159
ass(Vimage
p160
g5
tp161
(dp162
Vsuggests
p163
Vcrda
p164
sVbootloaders
p165
(lp166
Vgrub-pc
p167
aVextlinux
p168
aVgrub-efi-amd64
p169
asVconfigs
p170
(lp171
sVinstall-stem
p172
Vvmlinuz
p173
sstp174
Rp175
.