ccopy_reg
_reconstructor
p0
(cdebian_linux.config
ConfigCore
p1
c__builtin__
dict
p2
(dp3
(Vbase
p4
Vi386
p5
Vnone
p6
tp7
(dp8
Vflavours
p9
(lp10
Vaptosid-686
p11
asVimplicit-flavour
p12
I01
ss(Vimage
p13
Vamd64
p14
tp15
(dp16
Vsuggests
p17
Vcrda
p18
sVbootloaders
p19
(lp20
Vgrub-pc
p21
aVextlinux
p22
aVgrub-efi-amd64
p23
asVbreaks
p24
Vxserver-xorg-input-vmmouse (<< 1:13.0.99)
p25
sVinstall-stem
p26
Vvmlinuz
p27
ss(Vdescription
p28
tp29
(dp30
Vpart-long-xen
p31
VThis kernel also runs on a Xen hypervisor.\u000aIt supports both privileged (dom0) and unprivileged (domU) operation.
p32
sVpart-long-up
p33
VThis kernel is not suitable for SMP (multi-processor,\u000amulti-core or hyper-threaded) systems.
p34
ss(Vimage
p35
tp36
(dp37
Vinitramfs-generators
p38
(lp39
Vinitramfs-tools
p40
aVinitramfs-fallback
p41
ass(Vbase
p42
tp43
(dp44
Varches
p45
(lp46
Vamd64
p47
aVi386
p48
asVcompiler
p49
Vgcc-6
p50
sVfeaturesets
p51
(lp52
Vnone
p53
ass(Vversion
p54
tp55
(dp56
Vabiname_base
p57
V4.8.0
p58
sVsource
p59
V4.8-7
p60
sVupstream
p61
V4.8
p62
sVabiname
p63
V4.8.0-4.slh.1
p64
ss(Vxen
p65
g14
Vnone
p66
Vaptosid-amd64
p67
tp68
(dp69
Vflavours
p70
(lp71
Vaptosid-amd64
p72
ass(Vdescription
p73
g14
g66
Vaptosid-amd64
p74
tp75
(dp76
Vparts
p77
(lp78
Vxen
p79
ass(Vbuild
p80
g14
tp81
(dp82
Vimage-file
p83
Varch/x86/boot/bzImage
p84
sVdebug-info
p85
I00
ss(Vbase
p86
g5
tp87
(dp88
Vkernel-arch
p89
Vx86
p90
sVfeaturesets
p91
(lp92
Vnone
p93
ag6
ass(Vbase
p94
g14
g66
tp95
(dp96
g9
(lp97
Vaptosid-amd64
p98
asg12
I01
ss(Vimage
p99
g5
tp100
(dp101
Vsuggests
p102
Vcrda
p103
sVbootloaders
p104
(lp105
Vgrub-pc
p106
aVextlinux
p107
aVgrub-efi-ia32
p108
asVbreaks
p109
Vxserver-xorg-input-vmmouse (<< 1:13.0.99)
p110
sVinstall-stem
p111
Vvmlinuz
p112
ss(Vbase
p113
g14
tp114
(dp115
Vkernel-arch
p116
Vx86
p117
sVfeaturesets
p118
(lp119
g93
ag66
ass(Vabi
p120
tp121
(dp122
Vabiname
p123
V4.slh.1
p124
ss(Vbuild
p125
g5
tp126
(dp127
Vimage-file
p128
Varch/x86/boot/bzImage
p129
sVdebug-info
p130
I00
ss(Vdescription
p131
g5
NVaptosid-686
p132
tp133
(dp134
Vhardware-long
p135
VPCs with Intel Pentium Pro/II/III/4/4M/D/M, Xeon, Celeron, Core or Atom; AMD Geode LX/NX, Athlon (K7), Duron, Opteron, Sempron, Turion or Phenom; Transmeta Efficeon; VIA C3 "Nehemiah" or C7 processors
p136
sVhardware
p137
Vmodern PCs
p138
ss(Vrelations
p139
tp140
(dp141
Vgcc-6
p142
Vgcc-6
p143
sVinitramfs-tools
p144
Vinitramfs-tools (>= 0.121~)
p145
sVinitramfs-fallback
p146
Vlinux-initramfs-tool
p147
ss(Vdescription
p148
g14
NVaptosid-amd64
p149
tp150
(dp151
Vhardware-long
p152
VPCs with AMD64 or Intel 64 processors
p153
sVhardware
p154
V64-bit PCs
p155
sstp156
Rp157
.