ccopy_reg
_reconstructor
p0
(cdebian_linux.config
ConfigCore
p1
c__builtin__
dict
p2
(dp3
(Vbase
p4
Vi386
p5
Vnone
p6
tp7
(dp8
Vimplicit-flavour
p9
I01
sVflavours
p10
(lp11
Vaptosid-686
p12
ass(Vdescription
p13
Vamd64
p14
Vnone
p15
Vaptosid-amd64
p16
tp17
(dp18
Vparts
p19
(lp20
Vxen
p21
ass(Vbase
p22
g14
g15
tp23
(dp24
g9
I01
sg10
(lp25
Vaptosid-amd64
p26
ass(Vdescription
p27
g14
NVaptosid-amd64
p28
tp29
(dp30
Vhardware-long
p31
VPCs with AMD64 or Intel 64 processors
p32
sVhardware
p33
V64-bit PCs
p34
ss(Vdescription
p35
tp36
(dp37
Vpart-long-up
p38
VThis kernel is not suitable for SMP (multi-processor,\u000amulti-core or hyper-threaded) systems.
p39
sVpart-long-xen
p40
VThis kernel also runs on a Xen hypervisor.\u000aIt supports both privileged (dom0) and unprivileged (domU) operation.
p41
ss(Vbase
p42
tp43
(dp44
Varches
p45
(lp46
Vamd64
p47
aVi386
p48
asVcompiler
p49
Vgcc-6
p50
sVfeaturesets
p51
(lp52
Vnone
p53
ass(Vrelations
p54
tp55
(dp56
Vgcc-6
p57
Vgcc-6
p58
sVinitramfs-tools
p59
Vinitramfs-tools (>= 0.121~)
p60
sVinitramfs-fallback
p61
Vlinux-initramfs-tool
p62
ss(Vbase
p63
g14
tp64
(dp65
Vkernel-arch
p66
Vx86
p67
sVfeaturesets
p68
(lp69
Vnone
p70
ag15
ass(Vimage
p71
g14
tp72
(dp73
Vsuggests
p74
Vcrda
p75
sVbreaks
p76
Vxserver-xorg-input-vmmouse (<< 1:13.0.99)
p77
sVinstall-stem
p78
Vvmlinuz
p79
sVbootloaders
p80
(lp81
Vgrub-pc
p82
aVextlinux
p83
aVgrub-efi-amd64
p84
ass(Vbuild
p85
g5
tp86
(dp87
Vdebug-info
p88
I00
sVimage-file
p89
Varch/x86/boot/bzImage
p90
ss(Vbuild
p91
g14
tp92
(dp93
Vdebug-info
p94
I00
sVimage-file
p95
Varch/x86/boot/bzImage
p96
ss(Vimage
p97
g5
tp98
(dp99
Vsuggests
p100
Vcrda
p101
sVbreaks
p102
Vxserver-xorg-input-vmmouse (<< 1:13.0.99)
p103
sVinstall-stem
p104
Vvmlinuz
p105
sVbootloaders
p106
(lp107
Vgrub-pc
p108
aVextlinux
p109
aVgrub-efi-ia32
p110
ass(Vabi
p111
tp112
(dp113
Vabiname
p114
V1.slh.1
p115
ss(Vimage
p116
tp117
(dp118
Vinitramfs-generators
p119
(lp120
Vinitramfs-tools
p121
aVinitramfs-fallback
p122
ass(Vbase
p123
g5
tp124
(dp125
Vkernel-arch
p126
Vx86
p127
sVfeaturesets
p128
(lp129
g70
ag6
ass(Vdescription
p130
g5
NVaptosid-686
p131
tp132
(dp133
Vhardware-long
p134
VPCs with Intel Pentium Pro/II/III/4/4M/D/M, Xeon, Celeron, Core or Atom; AMD Geode LX/NX, Athlon (K7), Duron, Opteron, Sempron, Turion or Phenom; Transmeta Efficeon; VIA C3 "Nehemiah" or C7 processors
p135
sVhardware
p136
Vmodern PCs
p137
ss(Vversion
p138
tp139
(dp140
Vupstream
p141
V4.12
p142
sVsource
p143
V4.12-3
p144
sVabiname_base
p145
V4.12.0
p146
sVabiname
p147
V4.12.0-1.slh.1
p148
sstp149
Rp150
.