ccopy_reg
_reconstructor
p0
(cdebian_linux.config
ConfigCore
p1
c__builtin__
dict
p2
(dp3
(Vdescription
p4
Vi386
p5
NVaptosid-686
p6
tp7
(dp8
Vhardware
p9
Vmodern PCs
p10
sVhardware-long
p11
VPCs with Intel Pentium Pro/II/III/4/4M/D/M, Xeon, Celeron, Core or Atom; AMD Geode LX/NX, Athlon (K7), Duron, Opteron, Sempron, Turion or Phenom; Transmeta Efficeon; VIA C3 "Nehemiah" or C7 processors
p12
ss(Vimage
p13
tp14
(dp15
Vinitramfs-generators
p16
(lp17
Vinitramfs-tools
p18
aVinitramfs-fallback
p19
ass(Vbase
p20
tp21
(dp22
Vcompiler
p23
Vgcc-6
p24
sVfeaturesets
p25
(lp26
Vnone
p27
asVarches
p28
(lp29
Vamd64
p30
aVi386
p31
ass(Vbase
p32
Vamd64
p33
tp34
(dp35
Vfeaturesets
p36
(lp37
Vnone
p38
aVnone
p39
asVkernel-arch
p40
Vx86
p41
ss(Vbase
p42
g5
Vnone
p43
tp44
(dp45
Vimplicit-flavour
p46
I01
sVflavours
p47
(lp48
Vaptosid-686
p49
ass(Vdescription
p50
g33
NVaptosid-amd64
p51
tp52
(dp53
Vhardware
p54
V64-bit PCs
p55
sVhardware-long
p56
VPCs with AMD64 or Intel 64 processors
p57
ss(Vrelations
p58
tp59
(dp60
Vinitramfs-fallback
p61
Vlinux-initramfs-tool
p62
sVinitramfs-tools
p63
Vinitramfs-tools (>= 0.121~)
p64
sVgcc-6
p65
Vgcc-6
p66
ss(Vbuild
p67
g33
tp68
(dp69
Vimage-file
p70
Varch/x86/boot/bzImage
p71
sVdebug-info
p72
I00
ss(Vxen
p73
g33
g39
Vaptosid-amd64
p74
tp75
(dp76
Vflavours
p77
(lp78
Vaptosid-amd64
p79
ass(Vbase
p80
g5
tp81
(dp82
Vfeaturesets
p83
(lp84
g38
ag43
asVkernel-arch
p85
Vx86
p86
ss(Vbuild
p87
g5
tp88
(dp89
Vimage-file
p90
Varch/x86/boot/bzImage
p91
sVdebug-info
p92
I00
ss(Vdescription
p93
g33
g39
Vaptosid-amd64
p94
tp95
(dp96
Vparts
p97
(lp98
Vxen
p99
ass(Vbase
p100
g33
g39
tp101
(dp102
g46
I01
sg47
(lp103
Vaptosid-amd64
p104
ass(Vabi
p105
tp106
(dp107
Vabiname
p108
V6.slh.1
p109
ss(Vdescription
p110
tp111
(dp112
Vpart-long-xen
p113
VThis kernel also runs on a Xen hypervisor.\u000aIt supports both privileged (dom0) and unprivileged (domU) operation.
p114
sVpart-long-up
p115
VThis kernel is not suitable for SMP (multi-processor,\u000amulti-core or hyper-threaded) systems.
p116
ss(Vimage
p117
g33
tp118
(dp119
Vbreaks
p120
Vxserver-xorg-input-vmmouse (<< 1:13.0.99)
p121
sVsuggests
p122
Vcrda
p123
sVinstall-stem
p124
Vvmlinuz
p125
sVbootloaders
p126
(lp127
Vgrub-pc
p128
aVextlinux
p129
aVgrub-efi-amd64
p130
ass(Vversion
p131
tp132
(dp133
Vabiname
p134
V4.8.0-6.slh.1
p135
sVupstream
p136
V4.8
p137
sVsource
p138
V4.8-10
p139
sVabiname_base
p140
V4.8.0
p141
ss(Vimage
p142
g5
tp143
(dp144
Vbreaks
p145
Vxserver-xorg-input-vmmouse (<< 1:13.0.99)
p146
sVsuggests
p147
Vcrda
p148
sVinstall-stem
p149
Vvmlinuz
p150
sVbootloaders
p151
(lp152
Vgrub-pc
p153
aVextlinux
p154
aVgrub-efi-ia32
p155
asstp156
Rp157
.