ccopy_reg
_reconstructor
p0
(cdebian_linux.config
ConfigCore
p1
c__builtin__
dict
p2
(dp3
(Vbase
p4
tp5
(dp6
Varches
p7
(lp8
Vamd64
p9
aVi386
p10
asVfeaturesets
p11
(lp12
Vnone
p13
asVcompiler
p14
Vgcc-6
p15
ss(Vrelations
p16
tp17
(dp18
Vinitramfs-tools
p19
Vinitramfs-tools (>= 0.121~)
p20
sVgcc-6
p21
Vgcc-6
p22
sVinitramfs-fallback
p23
Vlinux-initramfs-tool
p24
ss(Vbase
p25
Vamd64
p26
tp27
(dp28
Vkernel-arch
p29
Vx86
p30
sVfeaturesets
p31
(lp32
Vnone
p33
aVnone
p34
ass(Vbase
p35
Vi386
p36
tp37
(dp38
Vkernel-arch
p39
Vx86
p40
sVfeaturesets
p41
(lp42
g33
aVnone
p43
ass(Vbase
p44
g36
g43
tp45
(dp46
Vimplicit-flavour
p47
I01
sVflavours
p48
(lp49
Vaptosid-686
p50
ass(Vdescription
p51
g36
NVaptosid-686
p52
tp53
(dp54
Vhardware-long
p55
VPCs with Intel Pentium Pro/II/III/4/4M/D/M, Xeon, Celeron, Core or Atom; AMD Geode LX/NX, Athlon (K7), Duron, Opteron, Sempron, Turion or Phenom; Transmeta Efficeon; VIA C3 "Nehemiah" or C7 processors
p56
sVhardware
p57
Vmodern PCs
p58
ss(Vdescription
p59
g26
NVaptosid-amd64
p60
tp61
(dp62
Vhardware-long
p63
VPCs with AMD64 or Intel 64 processors
p64
sVhardware
p65
V64-bit PCs
p66
ss(Vimage
p67
g26
tp68
(dp69
Vsuggests
p70
Vcrda
p71
sVbootloaders
p72
(lp73
Vgrub-pc
p74
aVextlinux
p75
aVgrub-efi-amd64
p76
asVbreaks
p77
Vxserver-xorg-input-vmmouse (<< 1:13.0.99)
p78
sVinstall-stem
p79
Vvmlinuz
p80
ss(Vdescription
p81
g26
g34
Vaptosid-amd64
p82
tp83
(dp84
Vparts
p85
(lp86
Vxen
p87
ass(Vversion
p88
tp89
(dp90
Vupstream
p91
V4.10
p92
sVabiname
p93
V4.10.0-1.slh.2
p94
sVsource
p95
V4.10-5
p96
sVabiname_base
p97
V4.10.0
p98
ss(Vimage
p99
g36
tp100
(dp101
Vsuggests
p102
Vcrda
p103
sVbootloaders
p104
(lp105
Vgrub-pc
p106
aVextlinux
p107
aVgrub-efi-ia32
p108
asVbreaks
p109
Vxserver-xorg-input-vmmouse (<< 1:13.0.99)
p110
sVinstall-stem
p111
Vvmlinuz
p112
ss(Vimage
p113
tp114
(dp115
Vinitramfs-generators
p116
(lp117
Vinitramfs-tools
p118
aVinitramfs-fallback
p119
ass(Vbase
p120
g26
g34
tp121
(dp122
g47
I01
sg48
(lp123
Vaptosid-amd64
p124
ass(Vabi
p125
tp126
(dp127
Vabiname
p128
V1.slh.2
p129
ss(Vbuild
p130
g36
tp131
(dp132
Vdebug-info
p133
I00
sVimage-file
p134
Varch/x86/boot/bzImage
p135
ss(Vbuild
p136
g26
tp137
(dp138
Vdebug-info
p139
I00
sVimage-file
p140
Varch/x86/boot/bzImage
p141
ss(Vdescription
p142
tp143
(dp144
Vpart-long-xen
p145
VThis kernel also runs on a Xen hypervisor.\u000aIt supports both privileged (dom0) and unprivileged (domU) operation.
p146
sVpart-long-up
p147
VThis kernel is not suitable for SMP (multi-processor,\u000amulti-core or hyper-threaded) systems.
p148
sstp149
Rp150
.