ccopy_reg
_reconstructor
p0
(cdebian_linux.config
ConfigCore
p1
c__builtin__
dict
p2
(dp3
(Vbuild
p4
Vi386
p5
tp6
(dp7
Vdebug-info
p8
I00
sVimage-file
p9
Varch/x86/boot/bzImage
p10
ss(Vabi
p11
tp12
(dp13
Vabiname
p14
V7.slh.1
p15
ss(Vbase
p16
tp17
(dp18
Varches
p19
(lp20
Vamd64
p21
aVi386
p22
asVfeaturesets
p23
(lp24
Vnone
p25
asVcompiler
p26
Vgcc-6
p27
ss(Vdescription
p28
g5
NVaptosid-686
p29
tp30
(dp31
Vhardware-long
p32
VPCs with Intel Pentium Pro/II/III/4/4M/D/M, Xeon, Celeron, Core or Atom; AMD Geode LX/NX, Athlon (K7), Duron, Opteron, Sempron, Turion or Phenom; Transmeta Efficeon; VIA C3 "Nehemiah" or C7 processors
p33
sVhardware
p34
Vmodern PCs
p35
ss(Vbase
p36
g5
tp37
(dp38
Vfeaturesets
p39
(lp40
Vnone
p41
aVnone
p42
asVkernel-arch
p43
Vx86
p44
ss(Vimage
p45
Vamd64
p46
tp47
(dp48
Vinstall-stem
p49
Vvmlinuz
p50
sVbreaks
p51
Vxserver-xorg-input-vmmouse (<< 1:13.0.99)
p52
sVsuggests
p53
Vcrda
p54
sVbootloaders
p55
(lp56
Vgrub-pc
p57
aVextlinux
p58
aVgrub-efi-amd64
p59
ass(Vdescription
p60
tp61
(dp62
Vpart-long-up
p63
VThis kernel is not suitable for SMP (multi-processor,\u000amulti-core or hyper-threaded) systems.
p64
sVpart-long-xen
p65
VThis kernel also runs on a Xen hypervisor.\u000aIt supports both privileged (dom0) and unprivileged (domU) operation.
p66
ss(Vbase
p67
g46
Vnone
p68
tp69
(dp70
Vimplicit-flavour
p71
I01
sVflavours
p72
(lp73
Vaptosid-amd64
p74
ass(Vimage
p75
g5
tp76
(dp77
Vinstall-stem
p78
Vvmlinuz
p79
sVbreaks
p80
Vxserver-xorg-input-vmmouse (<< 1:13.0.99)
p81
sVsuggests
p82
Vcrda
p83
sVbootloaders
p84
(lp85
Vgrub-pc
p86
aVextlinux
p87
aVgrub-efi-ia32
p88
ass(Vdescription
p89
g46
g68
Vaptosid-amd64
p90
tp91
(dp92
Vparts
p93
(lp94
Vxen
p95
ass(Vversion
p96
tp97
(dp98
Vabiname
p99
V4.9.0-7.slh.1
p100
sVabiname_base
p101
V4.9.0
p102
sVsource
p103
V4.9-12
p104
sVupstream
p105
V4.9
p106
ss(Vdescription
p107
g46
NVaptosid-amd64
p108
tp109
(dp110
Vhardware-long
p111
VPCs with AMD64 or Intel 64 processors
p112
sVhardware
p113
V64-bit PCs
p114
ss(Vbase
p115
g46
tp116
(dp117
Vfeaturesets
p118
(lp119
g41
ag68
asVkernel-arch
p120
Vx86
p121
ss(Vimage
p122
tp123
(dp124
Vinitramfs-generators
p125
(lp126
Vinitramfs-tools
p127
aVinitramfs-fallback
p128
ass(Vbase
p129
g5
g42
tp130
(dp131
g71
I01
sg72
(lp132
Vaptosid-686
p133
ass(Vbuild
p134
g46
tp135
(dp136
Vdebug-info
p137
I00
sVimage-file
p138
Varch/x86/boot/bzImage
p139
ss(Vrelations
p140
tp141
(dp142
Vgcc-6
p143
Vgcc-6
p144
sVinitramfs-tools
p145
Vinitramfs-tools (>= 0.121~)
p146
sVinitramfs-fallback
p147
Vlinux-initramfs-tool
p148
sstp149
Rp150
.