ccopy_reg
_reconstructor
p0
(cdebian_linux.config
ConfigCore
p1
c__builtin__
dict
p2
(dp3
(Vbase
p4
Vamd64
p5
tp6
(dp7
Vfeaturesets
p8
(lp9
Vnone
p10
aVnone
p11
asVkernel-arch
p12
Vx86
p13
ss(Vdescription
p14
g5
NVaptosid-amd64
p15
tp16
(dp17
Vhardware
p18
V64-bit PCs
p19
sVhardware-long
p20
VPCs with AMD64 or Intel 64 processors
p21
ss(Vrelations
p22
tp23
(dp24
Vinitramfs-tools
p25
Vinitramfs-tools (>= 0.121~)
p26
sVinitramfs-fallback
p27
Vlinux-initramfs-tool
p28
sVgcc-6
p29
Vgcc-6
p30
ss(Vbase
p31
g5
g11
tp32
(dp33
Vflavours
p34
(lp35
Vaptosid-amd64
p36
asVimplicit-flavour
p37
I01
ss(Vabi
p38
tp39
(dp40
Vabiname
p41
V6.slh.1
p42
ss(Vdescription
p43
Vi386
p44
NVaptosid-686
p45
tp46
(dp47
Vhardware
p48
Vmodern PCs
p49
sVhardware-long
p50
VPCs with Intel Pentium Pro/II/III/4/4M/D/M, Xeon, Celeron, Core or Atom; AMD Geode LX/NX, Athlon (K7), Duron, Opteron, Sempron, Turion or Phenom; Transmeta Efficeon; VIA C3 "Nehemiah" or C7 processors
p51
ss(Vbase
p52
g44
Vnone
p53
tp54
(dp55
g34
(lp56
Vaptosid-686
p57
asg37
I01
ss(Vimage
p58
g44
tp59
(dp60
Vbreaks
p61
Vxserver-xorg-input-vmmouse (<< 1:13.0.99)
p62
sVinstall-stem
p63
Vvmlinuz
p64
sVsuggests
p65
Vcrda
p66
sVbootloaders
p67
(lp68
Vgrub-pc
p69
aVextlinux
p70
aVgrub-efi-ia32
p71
ass(Vversion
p72
tp73
(dp74
Vupstream
p75
V4.10
p76
sVsource
p77
V4.10-11
p78
sVabiname
p79
V4.10.0-6.slh.1
p80
sVabiname_base
p81
V4.10.0
p82
ss(Vimage
p83
tp84
(dp85
Vinitramfs-generators
p86
(lp87
Vinitramfs-tools
p88
aVinitramfs-fallback
p89
ass(Vdescription
p90
g5
g11
Vaptosid-amd64
p91
tp92
(dp93
Vparts
p94
(lp95
Vxen
p96
ass(Vbase
p97
g44
tp98
(dp99
Vfeaturesets
p100
(lp101
g10
ag53
asVkernel-arch
p102
Vx86
p103
ss(Vbuild
p104
g5
tp105
(dp106
Vdebug-info
p107
I00
sVimage-file
p108
Varch/x86/boot/bzImage
p109
ss(Vimage
p110
g5
tp111
(dp112
Vbreaks
p113
Vxserver-xorg-input-vmmouse (<< 1:13.0.99)
p114
sVinstall-stem
p115
Vvmlinuz
p116
sVsuggests
p117
Vcrda
p118
sVbootloaders
p119
(lp120
Vgrub-pc
p121
aVextlinux
p122
aVgrub-efi-amd64
p123
ass(Vbuild
p124
g44
tp125
(dp126
Vdebug-info
p127
I00
sVimage-file
p128
Varch/x86/boot/bzImage
p129
ss(Vbase
p130
tp131
(dp132
Vfeaturesets
p133
(lp134
Vnone
p135
asVcompiler
p136
Vgcc-6
p137
sVarches
p138
(lp139
Vamd64
p140
aVi386
p141
ass(Vdescription
p142
tp143
(dp144
Vpart-long-xen
p145
VThis kernel also runs on a Xen hypervisor.\u000aIt supports both privileged (dom0) and unprivileged (domU) operation.
p146
sVpart-long-up
p147
VThis kernel is not suitable for SMP (multi-processor,\u000amulti-core or hyper-threaded) systems.
p148
sstp149
Rp150
.