ccopy_reg
_reconstructor
p0
(cdebian_linux.config
ConfigCore
p1
c__builtin__
dict
p2
(dp3
(Vbase
p4
Vamd64
p5
tp6
(dp7
Vfeaturesets
p8
(lp9
Vnone
p10
aVnone
p11
asVkernel-arch
p12
Vx86
p13
ss(Vrelations
p14
tp15
(dp16
Vgcc-6
p17
Vgcc-6
p18
sVinitramfs-fallback
p19
Vlinux-initramfs-tool
p20
sVinitramfs-tools
p21
Vinitramfs-tools (>= 0.121~)
p22
ss(Vbuild
p23
g5
tp24
(dp25
Vimage-file
p26
Varch/x86/boot/bzImage
p27
sVdebug-info
p28
I00
ss(Vbase
p29
Vi386
p30
Vnone
p31
tp32
(dp33
Vflavours
p34
(lp35
Vaptosid-686
p36
asVimplicit-flavour
p37
I01
ss(Vbuild
p38
g30
tp39
(dp40
Vimage-file
p41
Varch/x86/boot/bzImage
p42
sVdebug-info
p43
I00
ss(Vimage
p44
g30
tp45
(dp46
Vbreaks
p47
Vxserver-xorg-input-vmmouse (<< 1:13.0.99)
p48
sVinstall-stem
p49
Vvmlinuz
p50
sVsuggests
p51
Vcrda
p52
sVbootloaders
p53
(lp54
Vgrub-pc
p55
aVextlinux
p56
aVgrub-efi-ia32
p57
ass(Vbase
p58
tp59
(dp60
Vcompiler
p61
Vgcc-6
p62
sVfeaturesets
p63
(lp64
Vnone
p65
asVarches
p66
(lp67
Vamd64
p68
aVi386
p69
ass(Vdescription
p70
g5
g11
Vaptosid-amd64
p71
tp72
(dp73
Vparts
p74
(lp75
Vxen
p76
ass(Vimage
p77
g5
tp78
(dp79
Vbreaks
p80
Vxserver-xorg-input-vmmouse (<< 1:13.0.99)
p81
sVinstall-stem
p82
Vvmlinuz
p83
sVsuggests
p84
Vcrda
p85
sVbootloaders
p86
(lp87
Vgrub-pc
p88
aVextlinux
p89
aVgrub-efi-amd64
p90
ass(Vimage
p91
tp92
(dp93
Vinitramfs-generators
p94
(lp95
Vinitramfs-tools
p96
aVinitramfs-fallback
p97
ass(Vversion
p98
tp99
(dp100
Vsource
p101
V4.9-7
p102
sVabiname_base
p103
V4.9.0
p104
sVupstream
p105
V4.9
p106
sVabiname
p107
V4.9.0-3.slh.1
p108
ss(Vdescription
p109
g5
NVaptosid-amd64
p110
tp111
(dp112
Vhardware-long
p113
VPCs with AMD64 or Intel 64 processors
p114
sVhardware
p115
V64-bit PCs
p116
ss(Vbase
p117
g30
tp118
(dp119
Vfeaturesets
p120
(lp121
g10
ag31
asVkernel-arch
p122
Vx86
p123
ss(Vabi
p124
tp125
(dp126
Vabiname
p127
V3.slh.1
p128
ss(Vdescription
p129
g30
NVaptosid-686
p130
tp131
(dp132
Vhardware-long
p133
VPCs with Intel Pentium Pro/II/III/4/4M/D/M, Xeon, Celeron, Core or Atom; AMD Geode LX/NX, Athlon (K7), Duron, Opteron, Sempron, Turion or Phenom; Transmeta Efficeon; VIA C3 "Nehemiah" or C7 processors
p134
sVhardware
p135
Vmodern PCs
p136
ss(Vbase
p137
g5
g11
tp138
(dp139
g34
(lp140
Vaptosid-amd64
p141
asg37
I01
ss(Vdescription
p142
tp143
(dp144
Vpart-long-up
p145
VThis kernel is not suitable for SMP (multi-processor,\u000amulti-core or hyper-threaded) systems.
p146
sVpart-long-xen
p147
VThis kernel also runs on a Xen hypervisor.\u000aIt supports both privileged (dom0) and unprivileged (domU) operation.
p148
sstp149
Rp150
.