ccopy_reg
_reconstructor
p0
(cdebian_linux.config
ConfigCore
p1
c__builtin__
dict
p2
(dp3
(Vbuild
p4
Vamd64
p5
tp6
(dp7
Vimage-file
p8
Varch/x86/boot/bzImage
p9
sVdebug-info
p10
I00
ss(Vimage
p11
tp12
(dp13
Vinitramfs-generators
p14
(lp15
Vinitramfs-tools
p16
aVinitramfs-fallback
p17
ass(Vbase
p18
tp19
(dp20
Vfeaturesets
p21
(lp22
Vnone
p23
asVarches
p24
(lp25
Vamd64
p26
aVi386
p27
asVcompiler
p28
Vgcc-6
p29
ss(Vimage
p30
g5
tp31
(dp32
Vbootloaders
p33
(lp34
Vgrub-pc
p35
aVextlinux
p36
aVgrub-efi-amd64
p37
asVinstall-stem
p38
Vvmlinuz
p39
sVsuggests
p40
Vcrda
p41
sVbreaks
p42
Vxserver-xorg-input-vmmouse (<< 1:13.0.99)
p43
ss(Vbase
p44
Vi386
p45
tp46
(dp47
Vfeaturesets
p48
(lp49
Vnone
p50
aVnone
p51
asVkernel-arch
p52
Vx86
p53
ss(Vbuild
p54
g45
tp55
(dp56
Vimage-file
p57
Varch/x86/boot/bzImage
p58
sVdebug-info
p59
I00
ss(Vdescription
p60
tp61
(dp62
Vpart-long-xen
p63
VThis kernel also runs on a Xen hypervisor.\u000aIt supports both privileged (dom0) and unprivileged (domU) operation.
p64
sVpart-long-up
p65
VThis kernel is not suitable for SMP (multi-processor,\u000amulti-core or hyper-threaded) systems.
p66
ss(Vdescription
p67
g5
Vnone
p68
Vaptosid-amd64
p69
tp70
(dp71
Vparts
p72
(lp73
Vxen
p74
ass(Vrelations
p75
tp76
(dp77
Vinitramfs-tools
p78
Vinitramfs-tools (>= 0.121~)
p79
sVinitramfs-fallback
p80
Vlinux-initramfs-tool
p81
sVgcc-6
p82
Vgcc-6
p83
ss(Vabi
p84
tp85
(dp86
Vabiname
p87
V5.slh.1
p88
ss(Vimage
p89
g45
tp90
(dp91
Vbootloaders
p92
(lp93
Vgrub-pc
p94
aVextlinux
p95
aVgrub-efi-ia32
p96
asVinstall-stem
p97
Vvmlinuz
p98
sVsuggests
p99
Vcrda
p100
sVbreaks
p101
Vxserver-xorg-input-vmmouse (<< 1:13.0.99)
p102
ss(Vdescription
p103
g45
NVaptosid-686
p104
tp105
(dp106
Vhardware
p107
Vmodern PCs
p108
sVhardware-long
p109
VPCs with Intel Pentium Pro/II/III/4/4M/D/M, Xeon, Celeron, Core or Atom; AMD Geode LX/NX, Athlon (K7), Duron, Opteron, Sempron, Turion or Phenom; Transmeta Efficeon; VIA C3 "Nehemiah" or C7 processors
p110
ss(Vdescription
p111
g5
NVaptosid-amd64
p112
tp113
(dp114
Vhardware
p115
V64-bit PCs
p116
sVhardware-long
p117
VPCs with AMD64 or Intel 64 processors
p118
ss(Vversion
p119
tp120
(dp121
Vabiname_base
p122
V4.11.0
p123
sVabiname
p124
V4.11.0-5.slh.1
p125
sVupstream
p126
V4.11
p127
sVsource
p128
V4.11-12
p129
ss(Vbase
p130
g5
g68
tp131
(dp132
Vflavours
p133
(lp134
Vaptosid-amd64
p135
asVimplicit-flavour
p136
I01
ss(Vbase
p137
g5
tp138
(dp139
Vfeaturesets
p140
(lp141
g50
ag68
asVkernel-arch
p142
Vx86
p143
ss(Vbase
p144
g45
g51
tp145
(dp146
g133
(lp147
Vaptosid-686
p148
asg136
I01
sstp149
Rp150
.