ccopy_reg
_reconstructor
p0
(cdebian_linux.config
ConfigCore
p1
c__builtin__
dict
p2
(dp3
(Vimage
p4
Vamd64
p5
NVaptosid-amd64
p6
tp7
(dp8
Vconfigs
p9
(lp10
Vkernelarch-x86/config-arch-64
p11
ass(Vbase
p12
Vi386
p13
tp14
(dp15
Vfeaturesets
p16
(lp17
Vnone
p18
aVnone
p19
asVkernel-arch
p20
Vx86
p21
ss(Vrelations
p22
tp23
(dp24
Vinitramfs-tools
p25
Vinitramfs-tools (>= 0.118+c0.aptosid.1~)
p26
sVgcc-5
p27
Vgcc-5
p28
sVinitramfs-fallback
p29
Vlinux-initramfs-tool
p30
ss(Vabi
p31
tp32
(dp33
Vabiname
p34
V5.slh.1
p35
ss(Vbase
p36
g5
Vnone
p37
tp38
(dp39
Vflavours
p40
(lp41
Vaptosid-amd64
p42
asVimplicit-flavour
p43
I01
ss(Vimage
p44
tp45
(dp46
Vinitramfs-generators
p47
(lp48
Vinitramfs-tools
p49
aVinitramfs-fallback
p50
asVtype
p51
Vplain
p52
ss(Vbase
p53
tp54
(dp55
Vfeaturesets
p56
(lp57
Vnone
p58
asVarches
p59
(lp60
Vamd64
p61
aVi386
p62
asVcompiler
p63
Vgcc-5
p64
ss(Vdescription
p65
g5
g37
Vaptosid-amd64
p66
tp67
(dp68
Vparts
p69
(lp70
Vxen
p71
ass(Vbuild
p72
g5
tp73
(dp74
Vimage-file
p75
Varch/x86/boot/bzImage
p76
sVdebug-info
p77
I00
ss(Vdescription
p78
tp79
(dp80
Vpart-long-xen
p81
VThis kernel also runs on a Xen hypervisor.\u000aIt supports both privileged (dom0) and unprivileged (domU) operation.
p82
sVpart-long-up
p83
VThis kernel is not suitable for SMP (multi-processor,\u000amulti-core or hyper-threaded) systems.
p84
ss(Vbase
p85
g13
g19
tp86
(dp87
g40
(lp88
Vaptosid-686
p89
asg43
I01
ss(Vimage
p90
g13
NVaptosid-686
p91
tp92
(dp93
Vrecommends
p94
Vlibc6-i686
p95
sVconfigs
p96
(lp97
Vkernelarch-x86/config-arch-32
p98
ass(Vdescription
p99
g13
NVaptosid-686
p100
tp101
(dp102
Vhardware
p103
Vmodern PCs
p104
sVhardware-long
p105
VPCs with Intel Pentium Pro/II/III/4/4M/D/M, Xeon, Celeron, Core or Atom; AMD Geode LX/NX, Athlon (K7), Duron, Opteron, Sempron, Turion or Phenom; Transmeta Efficeon; VIA C3 "Nehemiah" or C7 processors
p106
ss(Vimage
p107
g13
tp108
(dp109
Vbootloaders
p110
(lp111
Vgrub-pc
p112
aVextlinux
p113
aVgrub-efi-ia32
p114
asVconfigs
p115
(lp116
sVsuggests
p117
Vcrda
p118
sVinstall-stem
p119
Vvmlinuz
p120
ss(Vxen
p121
g5
g37
Vaptosid-amd64
p122
tp123
(dp124
Vflavours
p125
(lp126
Vaptosid-amd64
p127
ass(Vimage
p128
g5
tp129
(dp130
Vbootloaders
p131
(lp132
Vgrub-pc
p133
aVextlinux
p134
aVgrub-efi-amd64
p135
asVconfigs
p136
(lp137
sVsuggests
p138
Vcrda
p139
sVinstall-stem
p140
Vvmlinuz
p141
ss(Vbase
p142
g5
tp143
(dp144
Vfeaturesets
p145
(lp146
g18
ag37
asVkernel-arch
p147
Vx86
p148
ss(Vversion
p149
tp150
(dp151
Vabiname
p152
V4.4.0-5.slh.1
p153
sVsource
p154
V4.4-17
p155
sVupstream
p156
V4.4
p157
sVabiname_base
p158
V4.4.0
p159
ss(Vbuild
p160
g13
tp161
(dp162
Vimage-file
p163
Varch/x86/boot/bzImage
p164
sVdebug-info
p165
I00
ss(Vdescription
p166
g5
NVaptosid-amd64
p167
tp168
(dp169
Vhardware
p170
V64-bit PCs
p171
sVhardware-long
p172
VPCs with AMD64 or Intel 64 processors
p173
sstp174
Rp175
.