ccopy_reg
_reconstructor
p0
(cdebian_linux.config
ConfigCore
p1
c__builtin__
dict
p2
(dp3
(Vdescription
p4
Vamd64
p5
NVaptosid-amd64
p6
tp7
(dp8
Vhardware
p9
V64-bit PCs
p10
sVhardware-long
p11
VPCs with AMD64 or Intel 64 processors
p12
ss(Vbase
p13
g5
Vnone
p14
tp15
(dp16
Vflavours
p17
(lp18
Vaptosid-amd64
p19
asVimplicit-flavour
p20
I01
ss(Vimage
p21
tp22
(dp23
Vinitramfs-generators
p24
(lp25
Vinitramfs-tools
p26
aVinitramfs-fallback
p27
asVtype
p28
Vplain
p29
ss(Vbuild
p30
Vi386
p31
tp32
(dp33
Vdebug-info
p34
I00
sVimage-file
p35
Varch/x86/boot/bzImage
p36
ss(Vbase
p37
g5
tp38
(dp39
Vfeaturesets
p40
(lp41
Vnone
p42
ag14
asVkernel-arch
p43
Vx86
p44
ss(Vabi
p45
tp46
(dp47
Vabiname
p48
V4.slh.2
p49
ss(Vimage
p50
g5
tp51
(dp52
Vsuggests
p53
Vcrda
p54
sVinstall-stem
p55
Vvmlinuz
p56
sVbootloaders
p57
(lp58
Vgrub-pc
p59
aVextlinux
p60
aVgrub-efi-amd64
p61
asVconfigs
p62
(lp63
ss(Vbuild
p64
g5
tp65
(dp66
Vdebug-info
p67
I00
sVimage-file
p68
Varch/x86/boot/bzImage
p69
ss(Vbase
p70
g31
Vnone
p71
tp72
(dp73
g17
(lp74
Vaptosid-686
p75
asg20
I01
ss(Vbase
p76
tp77
(dp78
Varches
p79
(lp80
Vamd64
p81
aVi386
p82
asVfeaturesets
p83
(lp84
Vnone
p85
asVcompiler
p86
Vgcc-5
p87
ss(Vimage
p88
g31
NVaptosid-686
p89
tp90
(dp91
Vrecommends
p92
Vlibc6-i686
p93
sVconfigs
p94
(lp95
Vkernelarch-x86/config-arch-32
p96
ass(Vxen
p97
g5
g14
Vaptosid-amd64
p98
tp99
(dp100
Vflavours
p101
(lp102
Vaptosid-amd64
p103
ass(Vdescription
p104
g5
g14
Vaptosid-amd64
p105
tp106
(dp107
Vparts
p108
(lp109
Vxen
p110
ass(Vrelations
p111
tp112
(dp113
Vinitramfs-tools
p114
Vinitramfs-tools (>= 0.118+c0.aptosid.1~)
p115
sVinitramfs-fallback
p116
Vlinux-initramfs-tool
p117
sVgcc-5
p118
Vgcc-5
p119
ss(Vdescription
p120
tp121
(dp122
Vpart-long-up
p123
VThis kernel is not suitable for SMP (multi-processor,\u000amulti-core or hyper-threaded) systems.
p124
sVpart-long-xen
p125
VThis kernel also runs on a Xen hypervisor.\u000aIt supports both privileged (dom0) and unprivileged (domU) operation.
p126
ss(Vimage
p127
g5
NVaptosid-amd64
p128
tp129
(dp130
Vconfigs
p131
(lp132
Vkernelarch-x86/config-arch-64
p133
ass(Vversion
p134
tp135
(dp136
Vabiname
p137
V4.4.0-4.slh.2
p138
sVabiname_base
p139
V4.4.0
p140
sVupstream
p141
V4.4
p142
sVsource
p143
V4.4-16
p144
ss(Vimage
p145
g31
tp146
(dp147
Vsuggests
p148
Vcrda
p149
sVinstall-stem
p150
Vvmlinuz
p151
sVbootloaders
p152
(lp153
Vgrub-pc
p154
aVextlinux
p155
aVgrub-efi-ia32
p156
asVconfigs
p157
(lp158
ss(Vbase
p159
g31
tp160
(dp161
Vfeaturesets
p162
(lp163
g42
ag71
asVkernel-arch
p164
Vx86
p165
ss(Vdescription
p166
g31
NVaptosid-686
p167
tp168
(dp169
Vhardware
p170
Vmodern PCs
p171
sVhardware-long
p172
VPCs with Intel Pentium Pro/II/III/4/4M/D/M, Xeon, Celeron, Core or Atom; AMD Geode LX/NX, Athlon (K7), Duron, Opteron, Sempron, Turion or Phenom; Transmeta Efficeon; VIA C3 "Nehemiah" or C7 processors
p173
sstp174
Rp175
.