ccopy_reg
_reconstructor
p0
(cdebian_linux.config
ConfigCore
p1
c__builtin__
dict
p2
(dp3
(Vdescription
p4
Vamd64
p5
NVaptosid-amd64
p6
tp7
(dp8
Vhardware
p9
V64-bit PCs
p10
sVhardware-long
p11
VPCs with AMD64 or Intel 64 processors
p12
ss(Vbuild
p13
g5
tp14
(dp15
Vimage-file
p16
Varch/x86/boot/bzImage
p17
sVdebug-info
p18
I00
ss(Vversion
p19
tp20
(dp21
Vsource
p22
V4.9-18
p23
sVabiname_base
p24
V4.9.0
p25
sVupstream
p26
V4.9
p27
sVabiname
p28
V4.9.0-11.slh.1
p29
ss(Vrelations
p30
tp31
(dp32
Vinitramfs-tools
p33
Vinitramfs-tools (>= 0.121~)
p34
sVinitramfs-fallback
p35
Vlinux-initramfs-tool
p36
sVgcc-6
p37
Vgcc-6
p38
ss(Vbase
p39
tp40
(dp41
Varches
p42
(lp43
Vamd64
p44
aVi386
p45
asVfeaturesets
p46
(lp47
Vnone
p48
asVcompiler
p49
Vgcc-6
p50
ss(Vbase
p51
Vi386
p52
tp53
(dp54
Vfeaturesets
p55
(lp56
Vnone
p57
aVnone
p58
asVkernel-arch
p59
Vx86
p60
ss(Vdescription
p61
g52
NVaptosid-686
p62
tp63
(dp64
Vhardware
p65
Vmodern PCs
p66
sVhardware-long
p67
VPCs with Intel Pentium Pro/II/III/4/4M/D/M, Xeon, Celeron, Core or Atom; AMD Geode LX/NX, Athlon (K7), Duron, Opteron, Sempron, Turion or Phenom; Transmeta Efficeon; VIA C3 "Nehemiah" or C7 processors
p68
ss(Vimage
p69
g5
tp70
(dp71
Vbootloaders
p72
(lp73
Vgrub-pc
p74
aVextlinux
p75
aVgrub-efi-amd64
p76
asVbreaks
p77
Vxserver-xorg-input-vmmouse (<< 1:13.0.99)
p78
sVsuggests
p79
Vcrda
p80
sVinstall-stem
p81
Vvmlinuz
p82
ss(Vabi
p83
tp84
(dp85
Vabiname
p86
V11.slh.1
p87
ss(Vbase
p88
g5
tp89
(dp90
Vfeaturesets
p91
(lp92
g57
aVnone
p93
asVkernel-arch
p94
Vx86
p95
ss(Vimage
p96
g52
tp97
(dp98
Vbootloaders
p99
(lp100
Vgrub-pc
p101
aVextlinux
p102
aVgrub-efi-ia32
p103
asVbreaks
p104
Vxserver-xorg-input-vmmouse (<< 1:13.0.99)
p105
sVsuggests
p106
Vcrda
p107
sVinstall-stem
p108
Vvmlinuz
p109
ss(Vimage
p110
tp111
(dp112
Vinitramfs-generators
p113
(lp114
Vinitramfs-tools
p115
aVinitramfs-fallback
p116
ass(Vbase
p117
g5
g93
tp118
(dp119
Vimplicit-flavour
p120
I01
sVflavours
p121
(lp122
Vaptosid-amd64
p123
ass(Vbuild
p124
g52
tp125
(dp126
Vimage-file
p127
Varch/x86/boot/bzImage
p128
sVdebug-info
p129
I00
ss(Vdescription
p130
g5
g93
Vaptosid-amd64
p131
tp132
(dp133
Vparts
p134
(lp135
Vxen
p136
ass(Vbase
p137
g52
g58
tp138
(dp139
g120
I01
sg121
(lp140
Vaptosid-686
p141
ass(Vdescription
p142
tp143
(dp144
Vpart-long-up
p145
VThis kernel is not suitable for SMP (multi-processor,\u000amulti-core or hyper-threaded) systems.
p146
sVpart-long-xen
p147
VThis kernel also runs on a Xen hypervisor.\u000aIt supports both privileged (dom0) and unprivileged (domU) operation.
p148
sstp149
Rp150
.