ccopy_reg
_reconstructor
p0
(cdebian_linux.config
ConfigCore
p1
c__builtin__
dict
p2
(dp3
(Vbase
p4
Vi386
p5
tp6
(dp7
Vfeaturesets
p8
(lp9
Vnone
p10
aVnone
p11
asVkernel-arch
p12
Vx86
p13
ss(Vimage
p14
tp15
(dp16
Vinitramfs-generators
p17
(lp18
Vinitramfs-tools
p19
aVinitramfs-fallback
p20
ass(Vrelations
p21
tp22
(dp23
Vinitramfs-tools
p24
Vinitramfs-tools (>= 0.121~)
p25
sVgcc-6
p26
Vgcc-6
p27
sVinitramfs-fallback
p28
Vlinux-initramfs-tool
p29
ss(Vabi
p30
tp31
(dp32
Vabiname
p33
V2.slh.1
p34
ss(Vimage
p35
Vamd64
p36
tp37
(dp38
Vinstall-stem
p39
Vvmlinuz
p40
sVbreaks
p41
Vxserver-xorg-input-vmmouse (<< 1:13.0.99)
p42
sVbootloaders
p43
(lp44
Vgrub-pc
p45
aVextlinux
p46
aVgrub-efi-amd64
p47
asVsuggests
p48
Vcrda
p49
ss(Vdescription
p50
tp51
(dp52
Vpart-long-up
p53
VThis kernel is not suitable for SMP (multi-processor,\u000amulti-core or hyper-threaded) systems.
p54
sVpart-long-xen
p55
VThis kernel also runs on a Xen hypervisor.\u000aIt supports both privileged (dom0) and unprivileged (domU) operation.
p56
ss(Vbase
p57
g5
g11
tp58
(dp59
Vflavours
p60
(lp61
Vaptosid-686
p62
asVimplicit-flavour
p63
I01
ss(Vbase
p64
g36
tp65
(dp66
Vfeaturesets
p67
(lp68
g10
aVnone
p69
asVkernel-arch
p70
Vx86
p71
ss(Vbase
p72
g36
g69
tp73
(dp74
g60
(lp75
Vaptosid-amd64
p76
asg63
I01
ss(Vdescription
p77
g36
g69
Vaptosid-amd64
p78
tp79
(dp80
Vparts
p81
(lp82
Vxen
p83
ass(Vimage
p84
g5
tp85
(dp86
Vinstall-stem
p87
Vvmlinuz
p88
sVbreaks
p89
Vxserver-xorg-input-vmmouse (<< 1:13.0.99)
p90
sVbootloaders
p91
(lp92
Vgrub-pc
p93
aVextlinux
p94
aVgrub-efi-ia32
p95
asVsuggests
p96
Vcrda
p97
ss(Vbuild
p98
g5
tp99
(dp100
Vdebug-info
p101
I00
sVimage-file
p102
Varch/x86/boot/bzImage
p103
ss(Vdescription
p104
g5
NVaptosid-686
p105
tp106
(dp107
Vhardware-long
p108
VPCs with Intel Pentium Pro/II/III/4/4M/D/M, Xeon, Celeron, Core or Atom; AMD Geode LX/NX, Athlon (K7), Duron, Opteron, Sempron, Turion or Phenom; Transmeta Efficeon; VIA C3 "Nehemiah" or C7 processors
p109
sVhardware
p110
Vmodern PCs
p111
ss(Vdescription
p112
g36
NVaptosid-amd64
p113
tp114
(dp115
Vhardware-long
p116
VPCs with AMD64 or Intel 64 processors
p117
sVhardware
p118
V64-bit PCs
p119
ss(Vversion
p120
tp121
(dp122
Vupstream
p123
V4.11
p124
sVabiname_base
p125
V4.11.0
p126
sVsource
p127
V4.11-7
p128
sVabiname
p129
V4.11.0-2.slh.1
p130
ss(Vbuild
p131
g36
tp132
(dp133
Vdebug-info
p134
I00
sVimage-file
p135
Varch/x86/boot/bzImage
p136
ss(Vbase
p137
tp138
(dp139
Varches
p140
(lp141
Vamd64
p142
aVi386
p143
asVcompiler
p144
Vgcc-6
p145
sVfeaturesets
p146
(lp147
Vnone
p148
asstp149
Rp150
.