ccopy_reg
_reconstructor
p0
(cdebian_linux.config
ConfigCore
p1
c__builtin__
dict
p2
(dp3
(Vdescription
p4
tp5
(dp6
Vpart-long-xen
p7
VThis kernel also runs on a Xen hypervisor.\u000aIt supports both privileged (dom0) and unprivileged (domU) operation.
p8
sVpart-long-up
p9
VThis kernel is not suitable for SMP (multi-processor,\u000amulti-core or hyper-threaded) systems.
p10
ss(Vimage
p11
tp12
(dp13
Vinitramfs-generators
p14
(lp15
Vinitramfs-tools
p16
aVinitramfs-fallback
p17
ass(Vrelations
p18
tp19
(dp20
Vgcc-6
p21
Vgcc-6
p22
sVinitramfs-fallback
p23
Vlinux-initramfs-tool
p24
sVinitramfs-tools
p25
Vinitramfs-tools (>= 0.121~)
p26
ss(Vimage
p27
Vamd64
p28
tp29
(dp30
Vinstall-stem
p31
Vvmlinuz
p32
sVbreaks
p33
Vxserver-xorg-input-vmmouse (<< 1:13.0.99)
p34
sVbootloaders
p35
(lp36
Vgrub-pc
p37
aVextlinux
p38
aVgrub-efi-amd64
p39
asVsuggests
p40
Vcrda
p41
ss(Vbuild
p42
Vi386
p43
tp44
(dp45
Vdebug-info
p46
I00
sVimage-file
p47
Varch/x86/boot/bzImage
p48
ss(Vversion
p49
tp50
(dp51
Vabiname
p52
V4.9.0-5.slh.1
p53
sVsource
p54
V4.9-10
p55
sVupstream
p56
V4.9
p57
sVabiname_base
p58
V4.9.0
p59
ss(Vdescription
p60
g28
NVaptosid-amd64
p61
tp62
(dp63
Vhardware-long
p64
VPCs with AMD64 or Intel 64 processors
p65
sVhardware
p66
V64-bit PCs
p67
ss(Vbuild
p68
g28
tp69
(dp70
Vdebug-info
p71
I00
sVimage-file
p72
Varch/x86/boot/bzImage
p73
ss(Vbase
p74
g28
tp75
(dp76
Vfeaturesets
p77
(lp78
Vnone
p79
aVnone
p80
asVkernel-arch
p81
Vx86
p82
ss(Vabi
p83
tp84
(dp85
Vabiname
p86
V5.slh.1
p87
ss(Vdescription
p88
g43
NVaptosid-686
p89
tp90
(dp91
Vhardware-long
p92
VPCs with Intel Pentium Pro/II/III/4/4M/D/M, Xeon, Celeron, Core or Atom; AMD Geode LX/NX, Athlon (K7), Duron, Opteron, Sempron, Turion or Phenom; Transmeta Efficeon; VIA C3 "Nehemiah" or C7 processors
p93
sVhardware
p94
Vmodern PCs
p95
ss(Vbase
p96
g28
g80
tp97
(dp98
Vimplicit-flavour
p99
I01
sVflavours
p100
(lp101
Vaptosid-amd64
p102
ass(Vbase
p103
g43
tp104
(dp105
Vfeaturesets
p106
(lp107
g79
aVnone
p108
asVkernel-arch
p109
Vx86
p110
ss(Vimage
p111
g43
tp112
(dp113
Vinstall-stem
p114
Vvmlinuz
p115
sVbreaks
p116
Vxserver-xorg-input-vmmouse (<< 1:13.0.99)
p117
sVbootloaders
p118
(lp119
Vgrub-pc
p120
aVextlinux
p121
aVgrub-efi-ia32
p122
asVsuggests
p123
Vcrda
p124
ss(Vbase
p125
g43
g108
tp126
(dp127
g99
I01
sg100
(lp128
Vaptosid-686
p129
ass(Vbase
p130
tp131
(dp132
Vcompiler
p133
Vgcc-6
p134
sVarches
p135
(lp136
Vamd64
p137
aVi386
p138
asVfeaturesets
p139
(lp140
Vnone
p141
ass(Vdescription
p142
g28
g80
Vaptosid-amd64
p143
tp144
(dp145
Vparts
p146
(lp147
Vxen
p148
asstp149
Rp150
.