ccopy_reg
_reconstructor
p0
(cdebian_linux.config
ConfigCore
p1
c__builtin__
dict
p2
(dp3
(Vabi
p4
tp5
(dp6
Vabiname
p7
V3.slh.1
p8
ss(Vbase
p9
Vamd64
p10
Vnone
p11
tp12
(dp13
Vflavours
p14
(lp15
Vaptosid-amd64
p16
asVimplicit-flavour
p17
I01
ss(Vbuild
p18
g10
tp19
(dp20
Vdebug-info
p21
I00
sVimage-file
p22
Varch/x86/boot/bzImage
p23
ss(Vdescription
p24
tp25
(dp26
Vpart-long-up
p27
VThis kernel is not suitable for SMP (multi-processor,\u000amulti-core or hyper-threaded) systems.
p28
sVpart-long-xen
p29
VThis kernel also runs on a Xen hypervisor.\u000aIt supports both privileged (dom0) and unprivileged (domU) operation.
p30
ss(Vbase
p31
Vi386
p32
Vnone
p33
tp34
(dp35
g14
(lp36
Vaptosid-686
p37
asg17
I01
ss(Vbase
p38
g10
tp39
(dp40
Vfeaturesets
p41
(lp42
Vnone
p43
ag11
asVkernel-arch
p44
Vx86
p45
ss(Vimage
p46
tp47
(dp48
Vinitramfs-generators
p49
(lp50
Vinitramfs-tools
p51
aVinitramfs-fallback
p52
ass(Vbuild
p53
g32
tp54
(dp55
Vdebug-info
p56
I00
sVimage-file
p57
Varch/x86/boot/bzImage
p58
ss(Vbase
p59
tp60
(dp61
Vfeaturesets
p62
(lp63
Vnone
p64
asVcompiler
p65
Vgcc-6
p66
sVarches
p67
(lp68
Vamd64
p69
aVi386
p70
ass(Vbase
p71
g32
tp72
(dp73
Vfeaturesets
p74
(lp75
g43
ag33
asVkernel-arch
p76
Vx86
p77
ss(Vrelations
p78
tp79
(dp80
Vgcc-6
p81
Vgcc-6
p82
sVinitramfs-fallback
p83
Vlinux-initramfs-tool
p84
sVinitramfs-tools
p85
Vinitramfs-tools (>= 0.121~)
p86
ss(Vimage
p87
g32
tp88
(dp89
Vsuggests
p90
Vcrda
p91
sVbootloaders
p92
(lp93
Vgrub-pc
p94
aVextlinux
p95
aVgrub-efi-ia32
p96
asVbreaks
p97
Vxserver-xorg-input-vmmouse (<< 1:13.0.99)
p98
sVinstall-stem
p99
Vvmlinuz
p100
ss(Vdescription
p101
g10
g11
Vaptosid-amd64
p102
tp103
(dp104
Vparts
p105
(lp106
Vxen
p107
ass(Vdescription
p108
g10
NVaptosid-amd64
p109
tp110
(dp111
Vhardware-long
p112
VPCs with AMD64 or Intel 64 processors
p113
sVhardware
p114
V64-bit PCs
p115
ss(Vversion
p116
tp117
(dp118
Vabiname_base
p119
V4.11.0
p120
sVupstream
p121
V4.11
p122
sVsource
p123
V4.11-8
p124
sVabiname
p125
V4.11.0-3.slh.1
p126
ss(Vdescription
p127
g32
NVaptosid-686
p128
tp129
(dp130
Vhardware-long
p131
VPCs with Intel Pentium Pro/II/III/4/4M/D/M, Xeon, Celeron, Core or Atom; AMD Geode LX/NX, Athlon (K7), Duron, Opteron, Sempron, Turion or Phenom; Transmeta Efficeon; VIA C3 "Nehemiah" or C7 processors
p132
sVhardware
p133
Vmodern PCs
p134
ss(Vimage
p135
g10
tp136
(dp137
Vsuggests
p138
Vcrda
p139
sVbootloaders
p140
(lp141
Vgrub-pc
p142
aVextlinux
p143
aVgrub-efi-amd64
p144
asVbreaks
p145
Vxserver-xorg-input-vmmouse (<< 1:13.0.99)
p146
sVinstall-stem
p147
Vvmlinuz
p148
sstp149
Rp150
.