ccopy_reg
_reconstructor
p0
(cdebian_linux.config
ConfigCore
p1
c__builtin__
dict
p2
(dp3
(Vdescription
p4
Vamd64
p5
NVaptosid-amd64
p6
tp7
(dp8
Vhardware-long
p9
VPCs with AMD64 or Intel 64 processors
p10
sVhardware
p11
V64-bit PCs
p12
ss(Vdescription
p13
tp14
(dp15
Vpart-long-up
p16
VThis kernel is not suitable for SMP (multi-processor,\u000amulti-core or hyper-threaded) systems.
p17
sVpart-long-xen
p18
VThis kernel also runs on a Xen hypervisor.\u000aIt supports both privileged (dom0) and unprivileged (domU) operation.
p19
ss(Vbase
p20
Vi386
p21
tp22
(dp23
Vfeaturesets
p24
(lp25
Vnone
p26
aVnone
p27
asVkernel-arch
p28
Vx86
p29
ss(Vabi
p30
tp31
(dp32
Vabiname
p33
V0.slh.2
p34
ss(Vbuild
p35
g21
tp36
(dp37
Vimage-file
p38
Varch/x86/boot/bzImage
p39
sVdebug-info
p40
I00
ss(Vbase
p41
g5
Vnone
p42
tp43
(dp44
Vimplicit-flavour
p45
I01
sVflavours
p46
(lp47
Vaptosid-amd64
p48
ass(Vbase
p49
g21
g27
tp50
(dp51
g45
I01
sg46
(lp52
Vaptosid-686
p53
ass(Vimage
p54
g5
tp55
(dp56
Vbreaks
p57
Vxserver-xorg-input-vmmouse (<< 1:13.0.99)
p58
sVsuggests
p59
Vcrda
p60
sVbootloaders
p61
(lp62
Vgrub-pc
p63
aVextlinux
p64
aVgrub-efi-amd64
p65
asVinstall-stem
p66
Vvmlinuz
p67
ss(Vversion
p68
tp69
(dp70
Vabiname_base
p71
V4.7.0
p72
sVsource
p73
V4.7-5
p74
sVupstream
p75
V4.7
p76
sVabiname
p77
V4.7.0-0.slh.2
p78
ss(Vxen
p79
g5
g42
Vaptosid-amd64
p80
tp81
(dp82
Vflavours
p83
(lp84
Vaptosid-amd64
p85
ass(Vbuild
p86
g5
tp87
(dp88
Vimage-file
p89
Varch/x86/boot/bzImage
p90
sVdebug-info
p91
I00
ss(Vdescription
p92
g21
NVaptosid-686
p93
tp94
(dp95
Vhardware-long
p96
VPCs with Intel Pentium Pro/II/III/4/4M/D/M, Xeon, Celeron, Core or Atom; AMD Geode LX/NX, Athlon (K7), Duron, Opteron, Sempron, Turion or Phenom; Transmeta Efficeon; VIA C3 "Nehemiah" or C7 processors
p97
sVhardware
p98
Vmodern PCs
p99
ss(Vimage
p100
g21
tp101
(dp102
Vbreaks
p103
Vxserver-xorg-input-vmmouse (<< 1:13.0.99)
p104
sVsuggests
p105
Vcrda
p106
sVbootloaders
p107
(lp108
Vgrub-pc
p109
aVextlinux
p110
aVgrub-efi-ia32
p111
asVinstall-stem
p112
Vvmlinuz
p113
ss(Vbase
p114
tp115
(dp116
Vfeaturesets
p117
(lp118
Vnone
p119
asVarches
p120
(lp121
Vamd64
p122
aVi386
p123
asVcompiler
p124
Vgcc-6
p125
ss(Vbase
p126
g5
tp127
(dp128
Vfeaturesets
p129
(lp130
g26
ag42
asVkernel-arch
p131
Vx86
p132
ss(Vrelations
p133
tp134
(dp135
Vgcc-6
p136
Vgcc-6
p137
sVinitramfs-fallback
p138
Vlinux-initramfs-tool
p139
sVinitramfs-tools
p140
Vinitramfs-tools (>= 0.121~)
p141
ss(Vimage
p142
tp143
(dp144
Vinitramfs-generators
p145
(lp146
Vinitramfs-tools
p147
aVinitramfs-fallback
p148
ass(Vdescription
p149
g5
g42
Vaptosid-amd64
p150
tp151
(dp152
Vparts
p153
(lp154
Vxen
p155
asstp156
Rp157
.