ccopy_reg
_reconstructor
p0
(cdebian_linux.config
ConfigCore
p1
c__builtin__
dict
p2
(dp3
(Vbase
p4
Vi386
p5
Vnone
p6
tp7
(dp8
Vimplicit-flavour
p9
I01
sVflavours
p10
(lp11
Vaptosid-686
p12
ass(Vbase
p13
tp14
(dp15
Varches
p16
(lp17
Vamd64
p18
aVi386
p19
asVfeaturesets
p20
(lp21
Vnone
p22
asVcompiler
p23
Vgcc-5
p24
ss(Vbase
p25
g5
tp26
(dp27
Vfeaturesets
p28
(lp29
Vnone
p30
ag6
asVkernel-arch
p31
Vx86
p32
ss(Vbase
p33
Vamd64
p34
tp35
(dp36
Vfeaturesets
p37
(lp38
g30
aVnone
p39
asVkernel-arch
p40
Vx86
p41
ss(Vimage
p42
g34
tp43
(dp44
Vsuggests
p45
Vcrda
p46
sVinstall-stem
p47
Vvmlinuz
p48
sVbootloaders
p49
(lp50
Vgrub-pc
p51
aVextlinux
p52
aVgrub-efi-amd64
p53
asVconfigs
p54
(lp55
ss(Vdescription
p56
g34
NVaptosid-amd64
p57
tp58
(dp59
Vhardware
p60
V64-bit PCs
p61
sVhardware-long
p62
VPCs with AMD64 or Intel 64 processors
p63
ss(Vbuild
p64
g5
tp65
(dp66
Vimage-file
p67
Varch/x86/boot/bzImage
p68
sVdebug-info
p69
I00
ss(Vxen
p70
g34
g39
Vaptosid-amd64
p71
tp72
(dp73
Vflavours
p74
(lp75
Vaptosid-amd64
p76
ass(Vimage
p77
g5
NVaptosid-686
p78
tp79
(dp80
Vrecommends
p81
Vlibc6-i686
p82
sVconfigs
p83
(lp84
Vkernelarch-x86/config-arch-32
p85
ass(Vimage
p86
g34
NVaptosid-amd64
p87
tp88
(dp89
Vconfigs
p90
(lp91
Vkernelarch-x86/config-arch-64
p92
ass(Vimage
p93
tp94
(dp95
Vtype
p96
Vplain
p97
sVinitramfs-generators
p98
(lp99
Vinitramfs-tools
p100
aVinitramfs-fallback
p101
ass(Vabi
p102
tp103
(dp104
Vabiname
p105
V1.slh.5
p106
ss(Vdescription
p107
g34
g39
Vaptosid-amd64
p108
tp109
(dp110
Vparts
p111
(lp112
Vxen
p113
ass(Vrelations
p114
tp115
(dp116
Vinitramfs-fallback
p117
Vlinux-initramfs-tool
p118
sVgcc-5
p119
Vgcc-5
p120
sVinitramfs-tools
p121
Vinitramfs-tools (>= 0.118+c0.aptosid.1~)
p122
ss(Vdescription
p123
g5
NVaptosid-686
p124
tp125
(dp126
Vhardware
p127
Vmodern PCs
p128
sVhardware-long
p129
VPCs with Intel Pentium Pro/II/III/4/4M/D/M, Xeon, Celeron, Core or Atom; AMD Geode LX/NX, Athlon (K7), Duron, Opteron, Sempron, Turion or Phenom; Transmeta Efficeon; VIA C3 "Nehemiah" or C7 processors
p130
ss(Vbuild
p131
g34
tp132
(dp133
Vimage-file
p134
Varch/x86/boot/bzImage
p135
sVdebug-info
p136
I00
ss(Vdescription
p137
tp138
(dp139
Vpart-long-up
p140
VThis kernel is not suitable for SMP (multi-processor,\u000amulti-core or hyper-threaded) systems.
p141
sVpart-long-xen
p142
VThis kernel also runs on a Xen hypervisor.\u000aIt supports both privileged (dom0) and unprivileged (domU) operation.
p143
ss(Vbase
p144
g34
g39
tp145
(dp146
g9
I01
sg10
(lp147
Vaptosid-amd64
p148
ass(Vimage
p149
g5
tp150
(dp151
Vsuggests
p152
Vcrda
p153
sVinstall-stem
p154
Vvmlinuz
p155
sVbootloaders
p156
(lp157
Vgrub-pc
p158
aVextlinux
p159
aVgrub-efi-ia32
p160
asVconfigs
p161
(lp162
ss(Vversion
p163
tp164
(dp165
Vabiname_base
p166
V4.4.0
p167
sVupstream
p168
V4.4
p169
sVsource
p170
V4.4-9
p171
sVabiname
p172
V4.4.0-1.slh.5
p173
sstp174
Rp175
.