ccopy_reg
_reconstructor
p1
(cdebian_linux.config
ConfigCore
p2
c__builtin__
dict
p3
(dp4
(S'image'
S'i386'
p5
NS'aptosid-686'
tp6
(dp7
S'configs'
p8
(lp9
S'kernelarch-x86/config-arch-32'
p10
asS'recommends'
p11
S'libc6-i686'
p12
ss(S'image'
S'amd64'
p13
tp14
(dp15
S'suggests'
p16
S'crda'
p17
sS'configs'
p18
(lp19
S'kernelarch-x86/config'
p20
asS'bootloaders'
p21
(lp22
S'grub-pc'
p23
aS'extlinux'
p24
aS'grub-efi-amd64'
p25
ass(S'description'
g5
NS'aptosid-686'
tp26
(dp27
S'hardware'
p28
S'modern PCs'
p29
sS'hardware-long'
p30
S'PCs with Intel Pentium Pro/II/III/4/4M/D/M, Xeon, Celeron, Core or Atom; AMD Geode LX/NX, Athlon (K7), Duron, Opteron, Sempron, Turion or Phenom; Transmeta Efficeon; VIA C3 "Nehemiah" or C7 processors'
p31
ss(S'image'
g13
NS'aptosid-amd64'
tp32
(dp33
S'configs'
p34
(lp35
S'kernelarch-x86/config-arch-64'
p36
ass(S'base'
g13
tp37
(dp38
S'kernel-arch'
p39
S'x86'
p40
sS'featuresets'
p41
(lp42
S'none'
p43
ass(S'image'
p44
tp45
(dp46
S'initramfs-generators'
p47
(lp48
S'initramfs-tools'
p49
aS'initramfs-fallback'
p50
asS'type'
p51
S'plain'
p52
ss(S'build'
g5
NS'aptosid-686'
tp53
(dp54
S'debug-info'
p55
I00
ss(S'version'
p56
tp57
(dp58
S'abiname'
p59
S'3.13-1.slh.3'
p60
sS'source'
p61
V3.13-6
p62
ss(S'base'
p63
g5
tp64
(dp65
S'kernel-arch'
p66
S'x86'
p67
sg41
(lp68
g43
ass(S'build'
g13
NS'aptosid-amd64'
tp69
(dp70
S'debug-info'
p71
I00
ss(S'abi'
p72
tp73
(dp74
S'abiname'
p75
S'1.slh.3'
p76
ss(S'image'
p77
g5
tp78
(dp79
S'suggests'
p80
S'crda'
p81
sS'configs'
p82
(lp83
S'kernelarch-x86/config'
p84
asS'bootloaders'
p85
(lp86
S'grub-pc'
p87
aS'extlinux'
p88
ass(S'base'
p89
g5
g43
tp90
(dp91
S'implicit-flavour'
p92
I01
sS'flavours'
p93
(lp94
S'aptosid-686'
p95
ass(S'description'
g13
NS'aptosid-amd64'
tp96
(dp97
S'hardware'
p98
S'64-bit PCs'
p99
sS'hardware-long'
p100
S'PCs with AMD64 or Intel 64 processors'
p101
ss(g89
g13
g43
tp102
(dp103
g92
I01
sg93
(lp104
S'aptosid-amd64'
p105
ass(S'base'
p106
tp107
(dp108
S'arches'
p109
(lp110
S'amd64'
p111
aS'i386'
p112
asS'featuresets'
p113
(lp114
S'none'
p115
asS'compiler'
p116
S'gcc-4.8'
p117
ss(S'relations'
p118
tp119
(dp120
S'initramfs-fallback'
p121
S'linux-initramfs-tool'
p122
sS'lilo'
p123
S'lilo (>= 22.8-8.2~)'
p124
sS'gcc-4.8'
p125
S'gcc-4.8'
p126
sS'initramfs-tools'
p127
S'initramfs-tools (>= 0.110~)'
p128
sS'elilo'
p129
S'elilo (>= 3.12-3.1~)'
p130
sstRp131
.