ccopy_reg
_reconstructor
p0
(cdebian_linux.config
ConfigCore
p1
c__builtin__
dict
p2
(dp3
(Vdescription
p4
tp5
(dp6
Vpart-long-up
p7
VThis kernel is not suitable for SMP (multi-processor,\u000amulti-core or hyper-threaded) systems.
p8
sVpart-long-xen
p9
VThis kernel also runs on a Xen hypervisor.\u000aIt supports both privileged (dom0) and unprivileged (domU) operation.
p10
ss(Vabi
p11
tp12
(dp13
Vabiname
p14
V4.slh.3
p15
ss(Vbase
p16
Vamd64
p17
tp18
(dp19
Vkernel-arch
p20
Vx86
p21
sVfeaturesets
p22
(lp23
Vnone
p24
aVnone
p25
ass(Vdescription
p26
g17
g25
Vaptosid-amd64
p27
tp28
(dp29
Vparts
p30
(lp31
Vxen
p32
ass(Vxen
p33
g17
g25
Vaptosid-amd64
p34
tp35
(dp36
Vflavours
p37
(lp38
Vaptosid-amd64
p39
ass(Vbase
p40
Vi386
p41
Vnone
p42
tp43
(dp44
Vflavours
p45
(lp46
Vaptosid-686
p47
asVimplicit-flavour
p48
I01
ss(Vimage
p49
g41
NVaptosid-686
p50
tp51
(dp52
Vconfigs
p53
(lp54
Vkernelarch-x86/config-arch-32
p55
asVrecommends
p56
Vlibc6-i686
p57
ss(Vimage
p58
g41
tp59
(dp60
Vconfigs
p61
(lp62
sVsuggests
p63
Vcrda
p64
sVinstall-stem
p65
Vvmlinuz
p66
sVbootloaders
p67
(lp68
Vgrub-pc
p69
aVextlinux
p70
aVgrub-efi-ia32
p71
ass(Vversion
p72
tp73
(dp74
Vupstream
p75
V4.6
p76
sVabiname
p77
V4.6.0-4.slh.3
p78
sVabiname_base
p79
V4.6.0
p80
sVsource
p81
V4.6-14
p82
ss(Vimage
p83
g17
NVaptosid-amd64
p84
tp85
(dp86
Vconfigs
p87
(lp88
Vkernelarch-x86/config-arch-64
p89
ass(Vbase
p90
g41
tp91
(dp92
Vkernel-arch
p93
Vx86
p94
sVfeaturesets
p95
(lp96
g24
ag42
ass(Vimage
p97
tp98
(dp99
Vinitramfs-generators
p100
(lp101
Vinitramfs-tools
p102
aVinitramfs-fallback
p103
asVtype
p104
Vplain
p105
ss(Vrelations
p106
tp107
(dp108
Vinitramfs-fallback
p109
Vlinux-initramfs-tool
p110
sVgcc-5
p111
Vgcc-5
p112
sVinitramfs-tools
p113
Vinitramfs-tools (>= 0.121~)
p114
ss(Vbase
p115
g17
g25
tp116
(dp117
g45
(lp118
Vaptosid-amd64
p119
asg48
I01
ss(Vimage
p120
g17
tp121
(dp122
Vconfigs
p123
(lp124
sVsuggests
p125
Vcrda
p126
sVinstall-stem
p127
Vvmlinuz
p128
sVbootloaders
p129
(lp130
Vgrub-pc
p131
aVextlinux
p132
aVgrub-efi-amd64
p133
ass(Vbuild
p134
g41
tp135
(dp136
Vdebug-info
p137
I00
sVimage-file
p138
Varch/x86/boot/bzImage
p139
ss(Vbuild
p140
g17
tp141
(dp142
Vdebug-info
p143
I00
sVimage-file
p144
Varch/x86/boot/bzImage
p145
ss(Vdescription
p146
g17
NVaptosid-amd64
p147
tp148
(dp149
Vhardware-long
p150
VPCs with AMD64 or Intel 64 processors
p151
sVhardware
p152
V64-bit PCs
p153
ss(Vdescription
p154
g41
NVaptosid-686
p155
tp156
(dp157
Vhardware-long
p158
VPCs with Intel Pentium Pro/II/III/4/4M/D/M, Xeon, Celeron, Core or Atom; AMD Geode LX/NX, Athlon (K7), Duron, Opteron, Sempron, Turion or Phenom; Transmeta Efficeon; VIA C3 "Nehemiah" or C7 processors
p159
sVhardware
p160
Vmodern PCs
p161
ss(Vbase
p162
tp163
(dp164
Varches
p165
(lp166
Vamd64
p167
aVi386
p168
asVcompiler
p169
Vgcc-5
p170
sVfeaturesets
p171
(lp172
Vnone
p173
asstp174
Rp175
.