ccopy_reg
_reconstructor
p0
(cdebian_linux.config
ConfigCore
p1
c__builtin__
dict
p2
(dp3
(Vdescription
p4
tp5
(dp6
Vpart-long-up
p7
VThis kernel is not suitable for SMP (multi-processor,\u000amulti-core or hyper-threaded) systems.
p8
sVpart-long-xen
p9
VThis kernel also runs on a Xen hypervisor.\u000aIt supports both privileged (dom0) and unprivileged (domU) operation.
p10
ss(Vdescription
p11
Vamd64
p12
Vnone
p13
Vaptosid-amd64
p14
tp15
(dp16
Vparts
p17
(lp18
Vxen
p19
ass(Vbase
p20
Vi386
p21
tp22
(dp23
Vfeaturesets
p24
(lp25
Vnone
p26
aVnone
p27
asVkernel-arch
p28
Vx86
p29
ss(Vbase
p30
g12
g13
tp31
(dp32
Vimplicit-flavour
p33
I01
sVflavours
p34
(lp35
Vaptosid-amd64
p36
ass(Vbuild
p37
g12
tp38
(dp39
Vimage-file
p40
Varch/x86/boot/bzImage
p41
sVdebug-info
p42
I00
ss(Vimage
p43
g12
tp44
(dp45
Vsuggests
p46
Vcrda
p47
sVbootloaders
p48
(lp49
Vgrub-pc
p50
aVextlinux
p51
aVgrub-efi-amd64
p52
asVinstall-stem
p53
Vvmlinuz
p54
sVbreaks
p55
Vxserver-xorg-input-vmmouse (<< 1:13.0.99)
p56
ss(Vimage
p57
tp58
(dp59
Vinitramfs-generators
p60
(lp61
Vinitramfs-tools
p62
aVinitramfs-fallback
p63
ass(Vabi
p64
tp65
(dp66
Vabiname
p67
V3.slh.2
p68
ss(Vdescription
p69
g12
NVaptosid-amd64
p70
tp71
(dp72
Vhardware
p73
V64-bit PCs
p74
sVhardware-long
p75
VPCs with AMD64 or Intel 64 processors
p76
ss(Vrelations
p77
tp78
(dp79
Vinitramfs-tools
p80
Vinitramfs-tools (>= 0.121~)
p81
sVinitramfs-fallback
p82
Vlinux-initramfs-tool
p83
sVgcc-6
p84
Vgcc-6
p85
ss(Vdescription
p86
g21
NVaptosid-686
p87
tp88
(dp89
Vhardware
p90
Vmodern PCs
p91
sVhardware-long
p92
VPCs with Intel Pentium Pro/II/III/4/4M/D/M, Xeon, Celeron, Core or Atom; AMD Geode LX/NX, Athlon (K7), Duron, Opteron, Sempron, Turion or Phenom; Transmeta Efficeon; VIA C3 "Nehemiah" or C7 processors
p93
ss(Vbase
p94
g12
tp95
(dp96
Vfeaturesets
p97
(lp98
g26
ag13
asVkernel-arch
p99
Vx86
p100
ss(Vbase
p101
g21
g27
tp102
(dp103
g33
I01
sg34
(lp104
Vaptosid-686
p105
ass(Vbuild
p106
g21
tp107
(dp108
Vimage-file
p109
Varch/x86/boot/bzImage
p110
sVdebug-info
p111
I00
ss(Vimage
p112
g21
tp113
(dp114
Vsuggests
p115
Vcrda
p116
sVbootloaders
p117
(lp118
Vgrub-pc
p119
aVextlinux
p120
aVgrub-efi-ia32
p121
asVinstall-stem
p122
Vvmlinuz
p123
sVbreaks
p124
Vxserver-xorg-input-vmmouse (<< 1:13.0.99)
p125
ss(Vversion
p126
tp127
(dp128
Vsource
p129
V4.7-15
p130
sVabiname
p131
V4.7.0-3.slh.2
p132
sVupstream
p133
V4.7
p134
sVabiname_base
p135
V4.7.0
p136
ss(Vxen
p137
g12
g13
Vaptosid-amd64
p138
tp139
(dp140
Vflavours
p141
(lp142
Vaptosid-amd64
p143
ass(Vbase
p144
tp145
(dp146
Vfeaturesets
p147
(lp148
Vnone
p149
asVarches
p150
(lp151
Vamd64
p152
aVi386
p153
asVcompiler
p154
Vgcc-6
p155
sstp156
Rp157
.