ccopy_reg
_reconstructor
p0
(cdebian_linux.config
ConfigCore
p1
c__builtin__
dict
p2
(dp3
(Vdescription
p4
tp5
(dp6
Vpart-long-up
p7
VThis kernel is not suitable for SMP (multi-processor,\u000amulti-core or hyper-threaded) systems.
p8
sVpart-long-xen
p9
VThis kernel also runs on a Xen hypervisor.\u000aIt supports both privileged (dom0) and unprivileged (domU) operation.
p10
ss(Vxen
p11
Vamd64
p12
Vnone
p13
Vaptosid-amd64
p14
tp15
(dp16
Vflavours
p17
(lp18
Vaptosid-amd64
p19
ass(Vdescription
p20
Vi386
p21
NVaptosid-686
p22
tp23
(dp24
Vhardware
p25
Vmodern PCs
p26
sVhardware-long
p27
VPCs with Intel Pentium Pro/II/III/4/4M/D/M, Xeon, Celeron, Core or Atom; AMD Geode LX/NX, Athlon (K7), Duron, Opteron, Sempron, Turion or Phenom; Transmeta Efficeon; VIA C3 "Nehemiah" or C7 processors
p28
ss(Vbase
p29
g21
tp30
(dp31
Vfeaturesets
p32
(lp33
Vnone
p34
aVnone
p35
asVkernel-arch
p36
Vx86
p37
ss(Vbuild
p38
g12
tp39
(dp40
Vimage-file
p41
Varch/x86/boot/bzImage
p42
sVdebug-info
p43
I00
ss(Vbase
p44
g12
tp45
(dp46
Vfeaturesets
p47
(lp48
g34
ag13
asVkernel-arch
p49
Vx86
p50
ss(Vdescription
p51
g12
NVaptosid-amd64
p52
tp53
(dp54
Vhardware
p55
V64-bit PCs
p56
sVhardware-long
p57
VPCs with AMD64 or Intel 64 processors
p58
ss(Vbase
p59
g21
g35
tp60
(dp61
Vflavours
p62
(lp63
Vaptosid-686
p64
asVimplicit-flavour
p65
I01
ss(Vimage
p66
tp67
(dp68
Vinitramfs-generators
p69
(lp70
Vinitramfs-tools
p71
aVinitramfs-fallback
p72
ass(Vimage
p73
g12
tp74
(dp75
Vsuggests
p76
Vcrda
p77
sVinstall-stem
p78
Vvmlinuz
p79
sVbootloaders
p80
(lp81
Vgrub-pc
p82
aVextlinux
p83
aVgrub-efi-amd64
p84
asVbreaks
p85
Vxserver-xorg-input-vmmouse (<< 1:13.0.99)
p86
ss(Vimage
p87
g21
tp88
(dp89
Vsuggests
p90
Vcrda
p91
sVinstall-stem
p92
Vvmlinuz
p93
sVbootloaders
p94
(lp95
Vgrub-pc
p96
aVextlinux
p97
aVgrub-efi-ia32
p98
asVbreaks
p99
Vxserver-xorg-input-vmmouse (<< 1:13.0.99)
p100
ss(Vrelations
p101
tp102
(dp103
Vgcc-6
p104
Vgcc-6
p105
sVinitramfs-fallback
p106
Vlinux-initramfs-tool
p107
sVinitramfs-tools
p108
Vinitramfs-tools (>= 0.121~)
p109
ss(Vversion
p110
tp111
(dp112
Vabiname_base
p113
V4.8.0
p114
sVabiname
p115
V4.8.0-11.slh.2
p116
sVsource
p117
V4.8-18
p118
sVupstream
p119
V4.8
p120
ss(Vbase
p121
tp122
(dp123
Varches
p124
(lp125
Vamd64
p126
aVi386
p127
asVfeaturesets
p128
(lp129
Vnone
p130
asVcompiler
p131
Vgcc-6
p132
ss(Vbase
p133
g12
g13
tp134
(dp135
g62
(lp136
Vaptosid-amd64
p137
asg65
I01
ss(Vabi
p138
tp139
(dp140
Vabiname
p141
V11.slh.2
p142
ss(Vdescription
p143
g12
g13
Vaptosid-amd64
p144
tp145
(dp146
Vparts
p147
(lp148
Vxen
p149
ass(Vbuild
p150
g21
tp151
(dp152
Vimage-file
p153
Varch/x86/boot/bzImage
p154
sVdebug-info
p155
I00
sstp156
Rp157
.