ccopy_reg
_reconstructor
p0
(cdebian_linux.config
ConfigCore
p1
c__builtin__
dict
p2
(dp3
(Vimage
p4
Vamd64
p5
NVaptosid-amd64
p6
tp7
(dp8
Vconfigs
p9
(lp10
Vkernelarch-x86/config-arch-64
p11
ass(Vbase
p12
g5
Vnone
p13
tp14
(dp15
Vflavours
p16
(lp17
Vaptosid-amd64
p18
asVimplicit-flavour
p19
I01
ss(Vdescription
p20
g5
NVaptosid-amd64
p21
tp22
(dp23
Vhardware
p24
V64-bit PCs
p25
sVhardware-long
p26
VPCs with AMD64 or Intel 64 processors
p27
ss(Vbase
p28
tp29
(dp30
Vfeaturesets
p31
(lp32
Vnone
p33
asVarches
p34
(lp35
Vamd64
p36
aVi386
p37
asVcompiler
p38
Vgcc-5
p39
ss(Vrelations
p40
tp41
(dp42
Vinitramfs-fallback
p43
Vlinux-initramfs-tool
p44
sVgcc-5
p45
Vgcc-5
p46
sVinitramfs-tools
p47
Vinitramfs-tools (>= 0.121~)
p48
ss(Vxen
p49
g5
g13
Vaptosid-amd64
p50
tp51
(dp52
Vflavours
p53
(lp54
Vaptosid-amd64
p55
ass(Vbase
p56
g5
tp57
(dp58
Vkernel-arch
p59
Vx86
p60
sVfeaturesets
p61
(lp62
Vnone
p63
ag13
ass(Vdescription
p64
g5
g13
Vaptosid-amd64
p65
tp66
(dp67
Vparts
p68
(lp69
Vxen
p70
ass(Vimage
p71
Vi386
p72
NVaptosid-686
p73
tp74
(dp75
Vrecommends
p76
Vlibc6-i686
p77
sVconfigs
p78
(lp79
Vkernelarch-x86/config-arch-32
p80
ass(Vbuild
p81
g5
tp82
(dp83
Vimage-file
p84
Varch/x86/boot/bzImage
p85
sVdebug-info
p86
I00
ss(Vdescription
p87
tp88
(dp89
Vpart-long-xen
p90
VThis kernel also runs on a Xen hypervisor.\u000aIt supports both privileged (dom0) and unprivileged (domU) operation.
p91
sVpart-long-up
p92
VThis kernel is not suitable for SMP (multi-processor,\u000amulti-core or hyper-threaded) systems.
p93
ss(Vabi
p94
tp95
(dp96
Vabiname
p97
V4.slh.2
p98
ss(Vbase
p99
g72
Vnone
p100
tp101
(dp102
g16
(lp103
Vaptosid-686
p104
asg19
I01
ss(Vbase
p105
g72
tp106
(dp107
Vkernel-arch
p108
Vx86
p109
sVfeaturesets
p110
(lp111
g63
ag100
ass(Vimage
p112
tp113
(dp114
Vtype
p115
Vplain
p116
sVinitramfs-generators
p117
(lp118
Vinitramfs-tools
p119
aVinitramfs-fallback
p120
ass(Vimage
p121
g72
tp122
(dp123
Vbootloaders
p124
(lp125
Vgrub-pc
p126
aVextlinux
p127
aVgrub-efi-ia32
p128
asVsuggests
p129
Vcrda
p130
sVinstall-stem
p131
Vvmlinuz
p132
sVconfigs
p133
(lp134
ss(Vbuild
p135
g72
tp136
(dp137
Vimage-file
p138
Varch/x86/boot/bzImage
p139
sVdebug-info
p140
I00
ss(Vdescription
p141
g72
NVaptosid-686
p142
tp143
(dp144
Vhardware
p145
Vmodern PCs
p146
sVhardware-long
p147
VPCs with Intel Pentium Pro/II/III/4/4M/D/M, Xeon, Celeron, Core or Atom; AMD Geode LX/NX, Athlon (K7), Duron, Opteron, Sempron, Turion or Phenom; Transmeta Efficeon; VIA C3 "Nehemiah" or C7 processors
p148
ss(Vimage
p149
g5
tp150
(dp151
Vbootloaders
p152
(lp153
Vgrub-pc
p154
aVextlinux
p155
aVgrub-efi-amd64
p156
asVsuggests
p157
Vcrda
p158
sVinstall-stem
p159
Vvmlinuz
p160
sVconfigs
p161
(lp162
ss(Vversion
p163
tp164
(dp165
Vabiname
p166
V4.6.0-4.slh.2
p167
sVsource
p168
V4.6-13
p169
sVabiname_base
p170
V4.6.0
p171
sVupstream
p172
V4.6
p173
sstp174
Rp175
.