ccopy_reg
_reconstructor
p0
(cdebian_linux.config
ConfigCore
p1
c__builtin__
dict
p2
(dp3
(Vbase
p4
Vamd64
p5
tp6
(dp7
Vkernel-arch
p8
Vx86
p9
sVfeaturesets
p10
(lp11
Vnone
p12
aVnone
p13
ass(Vbase
p14
Vi386
p15
Vnone
p16
tp17
(dp18
Vflavours
p19
(lp20
Vaptosid-686
p21
asVimplicit-flavour
p22
I01
ss(Vbuild
p23
g15
tp24
(dp25
Vimage-file
p26
Varch/x86/boot/bzImage
p27
sVdebug-info
p28
I00
ss(Vimage
p29
tp30
(dp31
Vinitramfs-generators
p32
(lp33
Vinitramfs-tools
p34
aVinitramfs-fallback
p35
ass(Vdescription
p36
g15
NVaptosid-686
p37
tp38
(dp39
Vhardware-long
p40
VPCs with Intel Pentium Pro/II/III/4/4M/D/M, Xeon, Celeron, Core or Atom; AMD Geode LX/NX, Athlon (K7), Duron, Opteron, Sempron, Turion or Phenom; Transmeta Efficeon; VIA C3 "Nehemiah" or C7 processors
p41
sVhardware
p42
Vmodern PCs
p43
ss(Vrelations
p44
tp45
(dp46
Vinitramfs-tools
p47
Vinitramfs-tools (>= 0.121~)
p48
sVinitramfs-fallback
p49
Vlinux-initramfs-tool
p50
sVgcc-6
p51
Vgcc-6
p52
ss(Vbase
p53
g15
tp54
(dp55
Vkernel-arch
p56
Vx86
p57
sVfeaturesets
p58
(lp59
g12
ag16
ass(Vbase
p60
g5
g13
tp61
(dp62
g19
(lp63
Vaptosid-amd64
p64
asg22
I01
ss(Vbuild
p65
g5
tp66
(dp67
Vimage-file
p68
Varch/x86/boot/bzImage
p69
sVdebug-info
p70
I00
ss(Vversion
p71
tp72
(dp73
Vabiname_base
p74
V4.10.0
p75
sVabiname
p76
V4.10.0-0.slh.2
p77
sVupstream
p78
V4.10
p79
sVsource
p80
V4.10-2
p81
ss(Vabi
p82
tp83
(dp84
Vabiname
p85
V0.slh.2
p86
ss(Vdescription
p87
g5
g13
Vaptosid-amd64
p88
tp89
(dp90
Vparts
p91
(lp92
Vxen
p93
ass(Vimage
p94
g5
tp95
(dp96
Vbreaks
p97
Vxserver-xorg-input-vmmouse (<< 1:13.0.99)
p98
sVinstall-stem
p99
Vvmlinuz
p100
sVbootloaders
p101
(lp102
Vgrub-pc
p103
aVextlinux
p104
aVgrub-efi-amd64
p105
asVsuggests
p106
Vcrda
p107
ss(Vbase
p108
tp109
(dp110
Varches
p111
(lp112
Vamd64
p113
aVi386
p114
asVcompiler
p115
Vgcc-6
p116
sVfeaturesets
p117
(lp118
Vnone
p119
ass(Vdescription
p120
tp121
(dp122
Vpart-long-up
p123
VThis kernel is not suitable for SMP (multi-processor,\u000amulti-core or hyper-threaded) systems.
p124
sVpart-long-xen
p125
VThis kernel also runs on a Xen hypervisor.\u000aIt supports both privileged (dom0) and unprivileged (domU) operation.
p126
ss(Vimage
p127
g15
tp128
(dp129
Vbreaks
p130
Vxserver-xorg-input-vmmouse (<< 1:13.0.99)
p131
sVinstall-stem
p132
Vvmlinuz
p133
sVbootloaders
p134
(lp135
Vgrub-pc
p136
aVextlinux
p137
aVgrub-efi-ia32
p138
asVsuggests
p139
Vcrda
p140
ss(Vdescription
p141
g5
NVaptosid-amd64
p142
tp143
(dp144
Vhardware-long
p145
VPCs with AMD64 or Intel 64 processors
p146
sVhardware
p147
V64-bit PCs
p148
sstp149
Rp150
.