ccopy_reg
_reconstructor
p1
(cdebian_linux.config
ConfigCore
p2
c__builtin__
dict
p3
(dp4
(S'image'
S'amd64'
p5
tp6
(dp7
S'suggests'
p8
S'crda'
p9
sS'configs'
p10
(lp11
S'kernelarch-x86/config'
p12
asS'bootloaders'
p13
(lp14
S'grub-pc'
p15
aS'extlinux'
p16
aS'grub-efi-amd64'
p17
ass(S'base'
p18
g5
S'none'
p19
tp20
(dp21
S'implicit-flavour'
p22
I01
sS'flavours'
p23
(lp24
S'aptosid-amd64'
p25
ass(S'base'
g5
tp26
(dp27
S'kernel-arch'
p28
S'x86'
p29
sS'featuresets'
p30
(lp31
g19
ass(S'image'
p32
tp33
(dp34
S'initramfs-generators'
p35
(lp36
S'initramfs-tools'
p37
aS'initramfs-fallback'
p38
asS'type'
p39
S'plain'
p40
ss(S'image'
g5
NS'aptosid-amd64'
tp41
(dp42
S'configs'
p43
(lp44
S'kernelarch-x86/config-arch-64'
p45
ass(S'build'
g5
NS'aptosid-amd64'
tp46
(dp47
S'debug-info'
p48
I00
ss(S'version'
p49
tp50
(dp51
S'abiname'
p52
S'3.8-7.slh.4'
p53
sS'source'
p54
V3.8-24
p55
ss(S'description'
S'i386'
p56
NS'aptosid-686'
tp57
(dp58
S'hardware'
p59
S'modern PCs'
p60
sS'hardware-long'
p61
S'PCs with Intel Pentium Pro/II/III/4/4M/D/M, Xeon, Celeron, Core or Atom; AMD Geode LX/NX, Athlon (K7), Duron, Opteron, Sempron, Turion or Phenom; Transmeta Efficeon; VIA C3 "Nehemiah" or C7 processors'
p62
ss(S'base'
p63
g56
tp64
(dp65
S'kernel-arch'
p66
S'x86'
p67
sg30
(lp68
g19
ass(S'image'
g56
NS'aptosid-686'
tp69
(dp70
S'configs'
p71
(lp72
S'kernelarch-x86/config-arch-32'
p73
asS'recommends'
p74
S'libc6-i686'
p75
ss(S'description'
g5
NS'aptosid-amd64'
tp76
(dp77
S'hardware'
p78
S'64-bit PCs'
p79
sS'hardware-long'
p80
S'PCs with AMD64 or Intel 64 processors'
p81
ss(S'abi'
p82
tp83
(dp84
S'abiname'
p85
S'7.slh.4'
p86
ss(S'image'
p87
g56
tp88
(dp89
S'suggests'
p90
S'crda'
p91
sS'configs'
p92
(lp93
S'kernelarch-x86/config'
p94
asS'bootloaders'
p95
(lp96
S'grub-pc'
p97
aS'extlinux'
p98
ass(S'build'
g56
NS'aptosid-686'
tp99
(dp100
S'debug-info'
p101
I00
ss(g18
g56
g19
tp102
(dp103
g22
I01
sg23
(lp104
S'aptosid-686'
p105
ass(S'base'
p106
tp107
(dp108
S'arches'
p109
(lp110
S'amd64'
p111
aS'i386'
p112
asS'featuresets'
p113
(lp114
S'none'
p115
asS'compiler'
p116
S'gcc-4.7'
p117
ss(S'relations'
p118
tp119
(dp120
S'initramfs-fallback'
p121
S'linux-initramfs-tool'
p122
sS'lilo'
p123
S'lilo (>= 22.8-8.2~)'
p124
sS'gcc-4.7'
p125
S'gcc-4.7'
p126
sS'initramfs-tools'
p127
S'initramfs-tools (>= 0.110~)'
p128
sS'elilo'
p129
S'elilo (>= 3.12-3.1~)'
p130
sstRp131
.