ccopy_reg
_reconstructor
p0
(cdebian_linux.config
ConfigCore
p1
c__builtin__
dict
p2
(dp3
(Vabi
p4
tp5
(dp6
Vabiname
p7
V13.slh.1
p8
ss(Vbase
p9
tp10
(dp11
Varches
p12
(lp13
Vamd64
p14
aVi386
p15
asVcompiler
p16
Vgcc-7
p17
sVfeaturesets
p18
(lp19
Vnone
p20
ass(Vdescription
p21
tp22
(dp23
Vpart-long-up
p24
VThis kernel is not suitable for SMP (multi-processor,\u000amulti-core or hyper-threaded) systems.
p25
sVpart-long-xen
p26
VThis kernel also runs on a Xen hypervisor.\u000aIt supports both privileged (dom0) and unprivileged (domU) operation.
p27
ss(Vimage
p28
tp29
(dp30
Vinitramfs-generators
p31
(lp32
Vinitramfs-tools
p33
aVinitramfs-fallback
p34
ass(Vrelations
p35
tp36
(dp37
Vgcc-7
p38
Vgcc-7
p39
sVinitramfs-fallback
p40
Vlinux-initramfs-tool
p41
sVinitramfs-tools
p42
Vinitramfs-tools (>= 0.121~)
p43
ss(Vbase
p44
Vamd64
p45
tp46
(dp47
Vfeaturesets
p48
(lp49
Vnone
p50
aVnone
p51
asVkernel-arch
p52
Vx86
p53
ss(Vbuild
p54
g45
tp55
(dp56
Vdebug-info
p57
I00
sVimage-file
p58
Varch/x86/boot/bzImage
p59
ss(Vimage
p60
g45
tp61
(dp62
Vbootloaders
p63
(lp64
Vgrub-pc
p65
aVextlinux
p66
aVgrub-efi-amd64
p67
asVinstall-stem
p68
Vvmlinuz
p69
sVsuggests
p70
Vcrda
p71
sVbreaks
p72
Vxserver-xorg-input-vmmouse (<< 1:13.0.99)
p73
ss(Vdescription
p74
g45
NVaptosid-amd64
p75
tp76
(dp77
Vhardware
p78
V64-bit PCs
p79
sVhardware-long
p80
VPCs with AMD64 or Intel 64 processors
p81
ss(Vbase
p82
g45
g51
tp83
(dp84
Vflavours
p85
(lp86
Vaptosid-amd64
p87
asVimplicit-flavour
p88
I01
ss(Vdescription
p89
g45
g51
Vaptosid-amd64
p90
tp91
(dp92
Vparts
p93
(lp94
Vxen
p95
ass(Vbase
p96
Vi386
p97
tp98
(dp99
Vfeaturesets
p100
(lp101
g50
aVnone
p102
asVkernel-arch
p103
Vx86
p104
ss(Vbuild
p105
g97
tp106
(dp107
Vdebug-info
p108
I00
sVimage-file
p109
Varch/x86/boot/bzImage
p110
ss(Vimage
p111
g97
tp112
(dp113
Vbootloaders
p114
(lp115
Vgrub-pc
p116
aVextlinux
p117
aVgrub-efi-ia32
p118
asVinstall-stem
p119
Vvmlinuz
p120
sVsuggests
p121
Vcrda
p122
sVbreaks
p123
Vxserver-xorg-input-vmmouse (<< 1:13.0.99)
p124
ss(Vdescription
p125
g97
NVaptosid-686
p126
tp127
(dp128
Vhardware
p129
Vmodern PCs
p130
sVhardware-long
p131
VPCs with Intel Pentium Pro/II/III/4/4M/D/M, Xeon, Celeron, Core or Atom; AMD Geode LX/NX, Athlon (K7), Duron, Opteron, Sempron, Turion or Phenom; Transmeta Efficeon; VIA C3 "Nehemiah" or C7 processors
p132
ss(Vbase
p133
g97
g102
tp134
(dp135
g85
(lp136
Vaptosid-686
p137
asg88
I01
ss(Vversion
p138
tp139
(dp140
Vsource
p141
V4.14-21
p142
sVupstream
p143
V4.14
p144
sVabiname_base
p145
V4.14.0
p146
sVabiname
p147
V4.14.0-13.slh.1
p148
sstp149
Rp150
.