ccopy_reg
_reconstructor
p1
(cdebian_linux.config
ConfigCore
p2
c__builtin__
dict
p3
(dp4
(S'image'
S'amd64'
p5
tp6
(dp7
S'suggests'
p8
S'crda'
p9
sS'configs'
p10
(lp11
S'kernelarch-x86/config'
p12
asS'bootloaders'
p13
(lp14
S'grub-pc'
p15
aS'extlinux'
p16
aS'grub-efi-amd64'
p17
ass(S'base'
p18
g5
S'none'
p19
tp20
(dp21
S'implicit-flavour'
p22
I01
sS'flavours'
p23
(lp24
S'aptosid-amd64'
p25
ass(S'image'
g5
NS'aptosid-amd64'
tp26
(dp27
S'configs'
p28
(lp29
S'kernelarch-x86/config-arch-64'
p30
ass(S'base'
g5
tp31
(dp32
S'kernel-arch'
p33
S'x86'
p34
sS'featuresets'
p35
(lp36
g19
ass(S'image'
p37
tp38
(dp39
S'initramfs-generators'
p40
(lp41
S'initramfs-tools'
p42
aS'initramfs-fallback'
p43
asS'type'
p44
S'plain'
p45
ss(S'version'
p46
tp47
(dp48
S'abiname'
p49
S'3.8-1.slh.2'
p50
sS'source'
p51
V3.8-5
p52
ss(S'base'
p53
S'i386'
p54
tp55
(dp56
S'kernel-arch'
p57
S'x86'
p58
sg35
(lp59
g19
ass(S'description'
g5
NS'aptosid-amd64'
tp60
(dp61
S'hardware'
p62
S'64-bit PCs'
p63
sS'hardware-long'
p64
S'PCs with AMD64 or Intel 64 processors'
p65
ss(S'build'
g54
NS'aptosid-686'
tp66
(dp67
S'debug-info'
p68
I00
ss(S'abi'
p69
tp70
(dp71
S'abiname'
p72
S'1.slh.2'
p73
ss(S'image'
p74
g54
tp75
(dp76
S'suggests'
p77
S'crda'
p78
sS'configs'
p79
(lp80
S'kernelarch-x86/config'
p81
asS'bootloaders'
p82
(lp83
S'grub-pc'
p84
aS'extlinux'
p85
ass(g18
g54
g19
tp86
(dp87
g22
I01
sg23
(lp88
S'aptosid-686'
p89
ass(S'build'
g5
NS'aptosid-amd64'
tp90
(dp91
S'debug-info'
p92
I00
ss(S'description'
g54
NS'aptosid-686'
tp93
(dp94
S'hardware'
p95
S'modern PCs'
p96
sS'hardware-long'
p97
S'PCs with Intel Pentium Pro/II/III/4/4M/D/M, Xeon, Celeron, Core or Atom; AMD Geode LX/NX, Athlon (K7), Duron, Opteron, Sempron, Turion or Phenom; Transmeta Efficeon; VIA C3 "Nehemiah" or C7 processors'
p98
ss(S'base'
p99
tp100
(dp101
S'arches'
p102
(lp103
S'amd64'
p104
aS'i386'
p105
asS'featuresets'
p106
(lp107
S'none'
p108
asS'compiler'
p109
S'gcc-4.7'
p110
ss(S'relations'
p111
tp112
(dp113
S'initramfs-fallback'
p114
S'linux-initramfs-tool'
p115
sS'lilo'
p116
S'lilo (>= 22.8-8.2~)'
p117
sS'gcc-4.7'
p118
S'gcc-4.7'
p119
sS'initramfs-tools'
p120
S'initramfs-tools (>= 0.110~)'
p121
sS'elilo'
p122
S'elilo (>= 3.12-3.1~)'
p123
ss(S'image'
g54
NS'aptosid-686'
tp124
(dp125
S'configs'
p126
(lp127
S'kernelarch-x86/config-arch-32'
p128
asS'recommends'
p129
S'libc6-i686'
p130
sstRp131
.