ccopy_reg
_reconstructor
p0
(cdebian_linux.config
ConfigCore
p1
c__builtin__
dict
p2
(dp3
(Vimage
p4
Vi386
p5
tp6
(dp7
Vbootloaders
p8
(lp9
Vgrub-pc
p10
aVextlinux
p11
aVgrub-efi-ia32
p12
asVbreaks
p13
Vxserver-xorg-input-vmmouse (<< 1:13.0.99)
p14
sVinstall-stem
p15
Vvmlinuz
p16
sVsuggests
p17
Vcrda
p18
ss(Vbase
p19
Vamd64
p20
Vnone
p21
tp22
(dp23
Vflavours
p24
(lp25
Vaptosid-amd64
p26
asVimplicit-flavour
p27
I01
ss(Vversion
p28
tp29
(dp30
Vabiname_base
p31
V4.8.0
p32
sVupstream
p33
V4.8
p34
sVsource
p35
V4.8-21
p36
sVabiname
p37
V4.8.0-12.slh.2
p38
ss(Vdescription
p39
g20
NVaptosid-amd64
p40
tp41
(dp42
Vhardware-long
p43
VPCs with AMD64 or Intel 64 processors
p44
sVhardware
p45
V64-bit PCs
p46
ss(Vbase
p47
tp48
(dp49
Vcompiler
p50
Vgcc-6
p51
sVarches
p52
(lp53
Vamd64
p54
aVi386
p55
asVfeaturesets
p56
(lp57
Vnone
p58
ass(Vabi
p59
tp60
(dp61
Vabiname
p62
V12.slh.2
p63
ss(Vbase
p64
g20
tp65
(dp66
Vfeaturesets
p67
(lp68
Vnone
p69
ag21
asVkernel-arch
p70
Vx86
p71
ss(Vbase
p72
g5
tp73
(dp74
Vfeaturesets
p75
(lp76
g69
aVnone
p77
asVkernel-arch
p78
Vx86
p79
ss(Vdescription
p80
g20
g21
Vaptosid-amd64
p81
tp82
(dp83
Vparts
p84
(lp85
Vxen
p86
ass(Vrelations
p87
tp88
(dp89
Vgcc-6
p90
Vgcc-6
p91
sVinitramfs-tools
p92
Vinitramfs-tools (>= 0.121~)
p93
sVinitramfs-fallback
p94
Vlinux-initramfs-tool
p95
ss(Vbase
p96
g5
g77
tp97
(dp98
g24
(lp99
Vaptosid-686
p100
asg27
I01
ss(Vbuild
p101
g20
tp102
(dp103
Vdebug-info
p104
I00
sVimage-file
p105
Varch/x86/boot/bzImage
p106
ss(Vimage
p107
tp108
(dp109
Vinitramfs-generators
p110
(lp111
Vinitramfs-tools
p112
aVinitramfs-fallback
p113
ass(Vxen
p114
g20
g21
Vaptosid-amd64
p115
tp116
(dp117
Vflavours
p118
(lp119
Vaptosid-amd64
p120
ass(Vbuild
p121
g5
tp122
(dp123
Vdebug-info
p124
I00
sVimage-file
p125
Varch/x86/boot/bzImage
p126
ss(Vdescription
p127
g5
NVaptosid-686
p128
tp129
(dp130
Vhardware-long
p131
VPCs with Intel Pentium Pro/II/III/4/4M/D/M, Xeon, Celeron, Core or Atom; AMD Geode LX/NX, Athlon (K7), Duron, Opteron, Sempron, Turion or Phenom; Transmeta Efficeon; VIA C3 "Nehemiah" or C7 processors
p132
sVhardware
p133
Vmodern PCs
p134
ss(Vdescription
p135
tp136
(dp137
Vpart-long-up
p138
VThis kernel is not suitable for SMP (multi-processor,\u000amulti-core or hyper-threaded) systems.
p139
sVpart-long-xen
p140
VThis kernel also runs on a Xen hypervisor.\u000aIt supports both privileged (dom0) and unprivileged (domU) operation.
p141
ss(Vimage
p142
g20
tp143
(dp144
Vbootloaders
p145
(lp146
Vgrub-pc
p147
aVextlinux
p148
aVgrub-efi-amd64
p149
asVbreaks
p150
Vxserver-xorg-input-vmmouse (<< 1:13.0.99)
p151
sVinstall-stem
p152
Vvmlinuz
p153
sVsuggests
p154
Vcrda
p155
sstp156
Rp157
.