ccopy_reg
_reconstructor
p0
(cdebian_linux.config
ConfigCore
p1
c__builtin__
dict
p2
(dp3
(Vdescription
p4
Vamd64
p5
NVaptosid-amd64
p6
tp7
(dp8
Vhardware-long
p9
VPCs with AMD64 or Intel 64 processors
p10
sVhardware
p11
V64-bit PCs
p12
ss(Vbase
p13
Vi386
p14
Vnone
p15
tp16
(dp17
Vimplicit-flavour
p18
I01
sVflavours
p19
(lp20
Vaptosid-686
p21
ass(Vimage
p22
g5
tp23
(dp24
Vbreaks
p25
Vxserver-xorg-input-vmmouse (<< 1:13.0.99)
p26
sVinstall-stem
p27
Vvmlinuz
p28
sVbootloaders
p29
(lp30
Vgrub-pc
p31
aVextlinux
p32
aVgrub-efi-amd64
p33
asVsuggests
p34
Vcrda
p35
ss(Vbase
p36
g14
tp37
(dp38
Vfeaturesets
p39
(lp40
Vnone
p41
ag15
asVkernel-arch
p42
Vx86
p43
ss(Vabi
p44
tp45
(dp46
Vabiname
p47
V9.slh.2
p48
ss(Vrelations
p49
tp50
(dp51
Vinitramfs-tools
p52
Vinitramfs-tools (>= 0.121~)
p53
sVgcc-6
p54
Vgcc-6
p55
sVinitramfs-fallback
p56
Vlinux-initramfs-tool
p57
ss(Vbuild
p58
g14
tp59
(dp60
Vdebug-info
p61
I00
sVimage-file
p62
Varch/x86/boot/bzImage
p63
ss(Vdescription
p64
tp65
(dp66
Vpart-long-up
p67
VThis kernel is not suitable for SMP (multi-processor,\u000amulti-core or hyper-threaded) systems.
p68
sVpart-long-xen
p69
VThis kernel also runs on a Xen hypervisor.\u000aIt supports both privileged (dom0) and unprivileged (domU) operation.
p70
ss(Vversion
p71
tp72
(dp73
Vabiname
p74
V4.10.0-9.slh.2
p75
sVabiname_base
p76
V4.10.0
p77
sVsource
p78
V4.10-15
p79
sVupstream
p80
V4.10
p81
ss(Vbuild
p82
g5
tp83
(dp84
Vdebug-info
p85
I00
sVimage-file
p86
Varch/x86/boot/bzImage
p87
ss(Vbase
p88
g5
Vnone
p89
tp90
(dp91
g18
I01
sg19
(lp92
Vaptosid-amd64
p93
ass(Vbase
p94
tp95
(dp96
Varches
p97
(lp98
Vamd64
p99
aVi386
p100
asVcompiler
p101
Vgcc-6
p102
sVfeaturesets
p103
(lp104
Vnone
p105
ass(Vdescription
p106
g14
NVaptosid-686
p107
tp108
(dp109
Vhardware-long
p110
VPCs with Intel Pentium Pro/II/III/4/4M/D/M, Xeon, Celeron, Core or Atom; AMD Geode LX/NX, Athlon (K7), Duron, Opteron, Sempron, Turion or Phenom; Transmeta Efficeon; VIA C3 "Nehemiah" or C7 processors
p111
sVhardware
p112
Vmodern PCs
p113
ss(Vimage
p114
tp115
(dp116
Vinitramfs-generators
p117
(lp118
Vinitramfs-tools
p119
aVinitramfs-fallback
p120
ass(Vbase
p121
g5
tp122
(dp123
Vfeaturesets
p124
(lp125
g41
ag89
asVkernel-arch
p126
Vx86
p127
ss(Vimage
p128
g14
tp129
(dp130
Vbreaks
p131
Vxserver-xorg-input-vmmouse (<< 1:13.0.99)
p132
sVinstall-stem
p133
Vvmlinuz
p134
sVbootloaders
p135
(lp136
Vgrub-pc
p137
aVextlinux
p138
aVgrub-efi-ia32
p139
asVsuggests
p140
Vcrda
p141
ss(Vdescription
p142
g5
g89
Vaptosid-amd64
p143
tp144
(dp145
Vparts
p146
(lp147
Vxen
p148
asstp149
Rp150
.