ccopy_reg
_reconstructor
p0
(cdebian_linux.config
ConfigCore
p1
c__builtin__
dict
p2
(dp3
(Vimage
p4
tp5
(dp6
Vinitramfs-generators
p7
(lp8
Vinitramfs-tools
p9
aVinitramfs-fallback
p10
ass(Vdescription
p11
Vamd64
p12
NVaptosid-amd64
p13
tp14
(dp15
Vhardware
p16
V64-bit PCs
p17
sVhardware-long
p18
VPCs with AMD64 or Intel 64 processors
p19
ss(Vabi
p20
tp21
(dp22
Vabiname
p23
V5.slh.2
p24
ss(Vimage
p25
g12
tp26
(dp27
Vinstall-stem
p28
Vvmlinuz
p29
sVbootloaders
p30
(lp31
Vgrub-pc
p32
aVextlinux
p33
aVgrub-efi-amd64
p34
asVsuggests
p35
Vcrda
p36
sVbreaks
p37
Vxserver-xorg-input-vmmouse (<< 1:13.0.99)
p38
ss(Vbase
p39
g12
tp40
(dp41
Vkernel-arch
p42
Vx86
p43
sVfeaturesets
p44
(lp45
Vnone
p46
aVnone
p47
ass(Vversion
p48
tp49
(dp50
Vabiname
p51
V4.12.0-5.slh.2
p52
sVabiname_base
p53
V4.12.0
p54
sVsource
p55
V4.12-12
p56
sVupstream
p57
V4.12
p58
ss(Vbase
p59
Vi386
p60
tp61
(dp62
Vkernel-arch
p63
Vx86
p64
sVfeaturesets
p65
(lp66
g46
aVnone
p67
ass(Vimage
p68
g60
tp69
(dp70
Vinstall-stem
p71
Vvmlinuz
p72
sVbootloaders
p73
(lp74
Vgrub-pc
p75
aVextlinux
p76
aVgrub-efi-ia32
p77
asVsuggests
p78
Vcrda
p79
sVbreaks
p80
Vxserver-xorg-input-vmmouse (<< 1:13.0.99)
p81
ss(Vdescription
p82
g12
g47
Vaptosid-amd64
p83
tp84
(dp85
Vparts
p86
(lp87
Vxen
p88
ass(Vdescription
p89
tp90
(dp91
Vpart-long-up
p92
VThis kernel is not suitable for SMP (multi-processor,\u000amulti-core or hyper-threaded) systems.
p93
sVpart-long-xen
p94
VThis kernel also runs on a Xen hypervisor.\u000aIt supports both privileged (dom0) and unprivileged (domU) operation.
p95
ss(Vbase
p96
tp97
(dp98
Vfeaturesets
p99
(lp100
Vnone
p101
asVcompiler
p102
Vgcc-7
p103
sVarches
p104
(lp105
Vamd64
p106
aVi386
p107
ass(Vdescription
p108
g60
NVaptosid-686
p109
tp110
(dp111
Vhardware
p112
Vmodern PCs
p113
sVhardware-long
p114
VPCs with Intel Pentium Pro/II/III/4/4M/D/M, Xeon, Celeron, Core or Atom; AMD Geode LX/NX, Athlon (K7), Duron, Opteron, Sempron, Turion or Phenom; Transmeta Efficeon; VIA C3 "Nehemiah" or C7 processors
p115
ss(Vbuild
p116
g12
tp117
(dp118
Vimage-file
p119
Varch/x86/boot/bzImage
p120
sVdebug-info
p121
I00
ss(Vbase
p122
g60
g67
tp123
(dp124
Vflavours
p125
(lp126
Vaptosid-686
p127
asVimplicit-flavour
p128
I01
ss(Vrelations
p129
tp130
(dp131
Vinitramfs-tools
p132
Vinitramfs-tools (>= 0.121~)
p133
sVgcc-7
p134
Vgcc-7
p135
sVinitramfs-fallback
p136
Vlinux-initramfs-tool
p137
ss(Vbuild
p138
g60
tp139
(dp140
Vimage-file
p141
Varch/x86/boot/bzImage
p142
sVdebug-info
p143
I00
ss(Vbase
p144
g12
g47
tp145
(dp146
g125
(lp147
Vaptosid-amd64
p148
asg128
I01
sstp149
Rp150
.