ccopy_reg
_reconstructor
p0
(cdebian_linux.config
ConfigCore
p1
c__builtin__
dict
p2
(dp3
(Vbase
p4
Vamd64
p5
tp6
(dp7
Vfeaturesets
p8
(lp9
Vnone
p10
aVnone
p11
asVkernel-arch
p12
Vx86
p13
ss(Vabi
p14
tp15
(dp16
Vabiname
p17
V1.slh.2
p18
ss(Vbase
p19
Vi386
p20
Vnone
p21
tp22
(dp23
Vimplicit-flavour
p24
I01
sVflavours
p25
(lp26
Vaptosid-686
p27
ass(Vdescription
p28
tp29
(dp30
Vpart-long-up
p31
VThis kernel is not suitable for SMP (multi-processor,\u000amulti-core or hyper-threaded) systems.
p32
sVpart-long-xen
p33
VThis kernel also runs on a Xen hypervisor.\u000aIt supports both privileged (dom0) and unprivileged (domU) operation.
p34
ss(Vrelations
p35
tp36
(dp37
Vinitramfs-tools
p38
Vinitramfs-tools (>= 0.121~)
p39
sVgcc-7
p40
Vgcc-7
p41
sVinitramfs-fallback
p42
Vlinux-initramfs-tool
p43
ss(Vimage
p44
tp45
(dp46
Vinitramfs-generators
p47
(lp48
Vinitramfs-tools
p49
aVinitramfs-fallback
p50
ass(Vdescription
p51
g5
NVaptosid-amd64
p52
tp53
(dp54
Vhardware
p55
V64-bit PCs
p56
sVhardware-long
p57
VPCs with AMD64 or Intel 64 processors
p58
ss(Vbuild
p59
g5
tp60
(dp61
Vimage-file
p62
Varch/x86/boot/bzImage
p63
sVdebug-info
p64
I00
ss(Vversion
p65
tp66
(dp67
Vabiname_base
p68
V4.13.0
p69
sVsource
p70
V4.13-4
p71
sVupstream
p72
V4.13
p73
sVabiname
p74
V4.13.0-1.slh.2
p75
ss(Vbuild
p76
g20
tp77
(dp78
Vimage-file
p79
Varch/x86/boot/bzImage
p80
sVdebug-info
p81
I00
ss(Vimage
p82
g5
tp83
(dp84
Vbootloaders
p85
(lp86
Vgrub-pc
p87
aVextlinux
p88
aVgrub-efi-amd64
p89
asVbreaks
p90
Vxserver-xorg-input-vmmouse (<< 1:13.0.99)
p91
sVsuggests
p92
Vcrda
p93
sVinstall-stem
p94
Vvmlinuz
p95
ss(Vbase
p96
g20
tp97
(dp98
Vfeaturesets
p99
(lp100
g10
ag21
asVkernel-arch
p101
Vx86
p102
ss(Vdescription
p103
g5
g11
Vaptosid-amd64
p104
tp105
(dp106
Vparts
p107
(lp108
Vxen
p109
ass(Vimage
p110
g20
tp111
(dp112
Vbootloaders
p113
(lp114
Vgrub-pc
p115
aVextlinux
p116
aVgrub-efi-ia32
p117
asVbreaks
p118
Vxserver-xorg-input-vmmouse (<< 1:13.0.99)
p119
sVsuggests
p120
Vcrda
p121
sVinstall-stem
p122
Vvmlinuz
p123
ss(Vbase
p124
g5
g11
tp125
(dp126
g24
I01
sg25
(lp127
Vaptosid-amd64
p128
ass(Vbase
p129
tp130
(dp131
Varches
p132
(lp133
Vamd64
p134
aVi386
p135
asVfeaturesets
p136
(lp137
Vnone
p138
asVcompiler
p139
Vgcc-7
p140
ss(Vdescription
p141
g20
NVaptosid-686
p142
tp143
(dp144
Vhardware
p145
Vmodern PCs
p146
sVhardware-long
p147
VPCs with Intel Pentium Pro/II/III/4/4M/D/M, Xeon, Celeron, Core or Atom; AMD Geode LX/NX, Athlon (K7), Duron, Opteron, Sempron, Turion or Phenom; Transmeta Efficeon; VIA C3 "Nehemiah" or C7 processors
p148
sstp149
Rp150
.