ccopy_reg
_reconstructor
p0
(cdebian_linux.config
ConfigCore
p1
c__builtin__
dict
p2
(dp3
(S'image'
p4
S'amd64'
p5
tp6
(dp7
S'install-stem'
p8
S'vmlinuz'
p9
sS'configs'
p10
(lp11
sS'bootloaders'
p12
(lp13
S'grub-pc'
p14
aS'extlinux'
p15
aS'grub-efi-amd64'
p16
asS'suggests'
p17
S'crda'
p18
ss(S'base'
p19
g5
S'none'
p20
tp21
(dp22
S'implicit-flavour'
p23
I01
sS'flavours'
p24
(lp25
S'aptosid-amd64'
p26
ass(S'xen'
p27
g5
g20
S'aptosid-amd64'
p28
tp29
(dp30
S'flavours'
p31
(lp32
S'aptosid-amd64'
p33
ass(S'base'
p34
g5
tp35
(dp36
S'kernel-arch'
p37
S'x86'
p38
sS'featuresets'
p39
(lp40
S'none'
p41
ag20
ass(S'image'
p42
tp43
(dp44
S'initramfs-generators'
p45
(lp46
S'initramfs-tools'
p47
aS'initramfs-fallback'
p48
asS'type'
p49
S'plain'
p50
ss(S'description'
p51
g5
NS'aptosid-amd64'
p52
tp53
(dp54
S'hardware'
p55
S'64-bit PCs'
p56
sS'hardware-long'
p57
S'PCs with AMD64 or Intel 64 processors'
p58
ss(S'version'
p59
tp60
(dp61
S'abiname'
p62
S'3.17-2.slh.3'
p63
sS'source'
p64
V3.17-10
p65
sS'upstream'
p66
S'3.17'
p67
ss(S'relations'
p68
tp69
(dp70
S'initramfs-fallback'
p71
S'linux-initramfs-tool'
p72
sS'gcc-4.9'
p73
S'gcc-4.9'
p74
sS'initramfs-tools'
p75
S'initramfs-tools (>= 0.110~)'
p76
ss(S'description'
p77
g5
g20
S'aptosid-amd64'
p78
tp79
(dp80
S'parts'
p81
(lp82
S'xen'
p83
ass(S'base'
p84
S'i386'
p85
tp86
(dp87
S'kernel-arch'
p88
S'x86'
p89
sS'featuresets'
p90
(lp91
g41
aS'none'
p92
ass(S'base'
p93
tp94
(dp95
S'arches'
p96
(lp97
S'amd64'
p98
aS'i386'
p99
asS'featuresets'
p100
(lp101
S'none'
p102
asS'compiler'
p103
S'gcc-4.9'
p104
ss(S'base'
p105
g85
g92
tp106
(dp107
g23
I01
sg24
(lp108
S'aptosid-686'
p109
ass(S'abi'
p110
tp111
(dp112
S'abiname'
p113
S'2.slh.3'
p114
ss(S'image'
p115
g85
tp116
(dp117
S'install-stem'
p118
S'vmlinuz'
p119
sS'configs'
p120
(lp121
sS'bootloaders'
p122
(lp123
S'grub-pc'
p124
aS'extlinux'
p125
aS'grub-efi-ia32'
p126
asS'suggests'
p127
S'crda'
p128
ss(S'image'
p129
g5
NS'aptosid-amd64'
p130
tp131
(dp132
S'configs'
p133
(lp134
S'kernelarch-x86/config-arch-64'
p135
ass(S'description'
p136
tp137
(dp138
S'part-long-up'
p139
S'This kernel is not suitable for SMP (multi-processor,\nmulti-core or hyper-threaded) systems.'
p140
sS'part-long-xen'
p141
S'This kernel also runs on a Xen hypervisor.\nIt supports both privileged (dom0) and unprivileged (domU) operation.'
p142
ss(S'build'
p143
g5
tp144
(dp145
S'debug-info'
p146
I00
sS'image-file'
p147
S'arch/x86/boot/bzImage'
p148
ss(S'image'
p149
g85
NS'aptosid-686'
p150
tp151
(dp152
S'configs'
p153
(lp154
S'kernelarch-x86/config-arch-32'
p155
asS'recommends'
p156
S'libc6-i686'
p157
ss(S'build'
p158
g85
tp159
(dp160
S'debug-info'
p161
I00
sS'image-file'
p162
S'arch/x86/boot/bzImage'
p163
ss(S'description'
p164
g85
NS'aptosid-686'
p165
tp166
(dp167
S'hardware'
p168
S'modern PCs'
p169
sS'hardware-long'
p170
S'PCs with Intel Pentium Pro/II/III/4/4M/D/M, Xeon, Celeron, Core or Atom; AMD Geode LX/NX, Athlon (K7), Duron, Opteron, Sempron, Turion or Phenom; Transmeta Efficeon; VIA C3 "Nehemiah" or C7 processors'
p171
sstp172
Rp173
.