ccopy_reg
_reconstructor
p0
(cdebian_linux.config
ConfigCore
p1
c__builtin__
dict
p2
(dp3
(Vbuild
p4
Vamd64
p5
tp6
(dp7
Vimage-file
p8
Varch/x86/boot/bzImage
p9
sVdebug-info
p10
I00
ss(Vdescription
p11
Vi386
p12
NVaptosid-686
p13
tp14
(dp15
Vhardware-long
p16
VPCs with Intel Pentium Pro/II/III/4/4M/D/M, Xeon, Celeron, Core or Atom; AMD Geode LX/NX, Athlon (K7), Duron, Opteron, Sempron, Turion or Phenom; Transmeta Efficeon; VIA C3 "Nehemiah" or C7 processors
p17
sVhardware
p18
Vmodern PCs
p19
ss(Vimage
p20
g5
tp21
(dp22
Vinstall-stem
p23
Vvmlinuz
p24
sVbreaks
p25
Vxserver-xorg-input-vmmouse (<< 1:13.0.99)
p26
sVbootloaders
p27
(lp28
Vgrub-pc
p29
aVextlinux
p30
aVgrub-efi-amd64
p31
asVsuggests
p32
Vcrda
p33
ss(Vbase
p34
g5
tp35
(dp36
Vkernel-arch
p37
Vx86
p38
sVfeaturesets
p39
(lp40
Vnone
p41
aVnone
p42
ass(Vimage
p43
tp44
(dp45
Vinitramfs-generators
p46
(lp47
Vinitramfs-tools
p48
aVinitramfs-fallback
p49
ass(Vbuild
p50
g12
tp51
(dp52
Vimage-file
p53
Varch/x86/boot/bzImage
p54
sVdebug-info
p55
I00
ss(Vdescription
p56
tp57
(dp58
Vpart-long-xen
p59
VThis kernel also runs on a Xen hypervisor.\u000aIt supports both privileged (dom0) and unprivileged (domU) operation.
p60
sVpart-long-up
p61
VThis kernel is not suitable for SMP (multi-processor,\u000amulti-core or hyper-threaded) systems.
p62
ss(Vimage
p63
g12
tp64
(dp65
Vinstall-stem
p66
Vvmlinuz
p67
sVbreaks
p68
Vxserver-xorg-input-vmmouse (<< 1:13.0.99)
p69
sVbootloaders
p70
(lp71
Vgrub-pc
p72
aVextlinux
p73
aVgrub-efi-ia32
p74
asVsuggests
p75
Vcrda
p76
ss(Vrelations
p77
tp78
(dp79
Vgcc-6
p80
Vgcc-6
p81
sVinitramfs-fallback
p82
Vlinux-initramfs-tool
p83
sVinitramfs-tools
p84
Vinitramfs-tools (>= 0.121~)
p85
ss(Vbase
p86
g5
g42
tp87
(dp88
Vflavours
p89
(lp90
Vaptosid-amd64
p91
asVimplicit-flavour
p92
I01
ss(Vdescription
p93
g5
g42
Vaptosid-amd64
p94
tp95
(dp96
Vparts
p97
(lp98
Vxen
p99
ass(Vdescription
p100
g5
NVaptosid-amd64
p101
tp102
(dp103
Vhardware-long
p104
VPCs with AMD64 or Intel 64 processors
p105
sVhardware
p106
V64-bit PCs
p107
ss(Vabi
p108
tp109
(dp110
Vabiname
p111
V4.slh.2
p112
ss(Vbase
p113
g12
Vnone
p114
tp115
(dp116
g89
(lp117
Vaptosid-686
p118
asg92
I01
ss(Vversion
p119
tp120
(dp121
Vabiname
p122
V4.12.0-4.slh.2
p123
sVsource
p124
V4.12-9
p125
sVabiname_base
p126
V4.12.0
p127
sVupstream
p128
V4.12
p129
ss(Vbase
p130
g12
tp131
(dp132
Vkernel-arch
p133
Vx86
p134
sVfeaturesets
p135
(lp136
g41
ag114
ass(Vbase
p137
tp138
(dp139
Varches
p140
(lp141
Vamd64
p142
aVi386
p143
asVcompiler
p144
Vgcc-6
p145
sVfeaturesets
p146
(lp147
Vnone
p148
asstp149
Rp150
.