ccopy_reg
_reconstructor
p0
(cdebian_linux.config
ConfigCore
p1
c__builtin__
dict
p2
(dp3
(Vabi
p4
tp5
(dp6
Vabiname
p7
V1.slh.2
p8
ss(Vdescription
p9
Vi386
p10
NVaptosid-686
p11
tp12
(dp13
Vhardware
p14
Vmodern PCs
p15
sVhardware-long
p16
VPCs with Intel Pentium Pro/II/III/4/4M/D/M, Xeon, Celeron, Core or Atom; AMD Geode LX/NX, Athlon (K7), Duron, Opteron, Sempron, Turion or Phenom; Transmeta Efficeon; VIA C3 "Nehemiah" or C7 processors
p17
ss(Vversion
p18
tp19
(dp20
Vsource
p21
V4.8-4
p22
sVabiname
p23
V4.8.0-1.slh.2
p24
sVabiname_base
p25
V4.8.0
p26
sVupstream
p27
V4.8
p28
ss(Vdescription
p29
Vamd64
p30
Vnone
p31
Vaptosid-amd64
p32
tp33
(dp34
Vparts
p35
(lp36
Vxen
p37
ass(Vrelations
p38
tp39
(dp40
Vgcc-6
p41
Vgcc-6
p42
sVinitramfs-fallback
p43
Vlinux-initramfs-tool
p44
sVinitramfs-tools
p45
Vinitramfs-tools (>= 0.121~)
p46
ss(Vbuild
p47
g10
tp48
(dp49
Vdebug-info
p50
I00
sVimage-file
p51
Varch/x86/boot/bzImage
p52
ss(Vdescription
p53
g30
NVaptosid-amd64
p54
tp55
(dp56
Vhardware
p57
V64-bit PCs
p58
sVhardware-long
p59
VPCs with AMD64 or Intel 64 processors
p60
ss(Vbase
p61
g10
Vnone
p62
tp63
(dp64
Vflavours
p65
(lp66
Vaptosid-686
p67
asVimplicit-flavour
p68
I01
ss(Vxen
p69
g30
g31
Vaptosid-amd64
p70
tp71
(dp72
Vflavours
p73
(lp74
Vaptosid-amd64
p75
ass(Vbase
p76
g30
tp77
(dp78
Vkernel-arch
p79
Vx86
p80
sVfeaturesets
p81
(lp82
Vnone
p83
ag31
ass(Vimage
p84
g30
tp85
(dp86
Vsuggests
p87
Vcrda
p88
sVbootloaders
p89
(lp90
Vgrub-pc
p91
aVextlinux
p92
aVgrub-efi-amd64
p93
asVinstall-stem
p94
Vvmlinuz
p95
sVbreaks
p96
Vxserver-xorg-input-vmmouse (<< 1:13.0.99)
p97
ss(Vdescription
p98
tp99
(dp100
Vpart-long-xen
p101
VThis kernel also runs on a Xen hypervisor.\u000aIt supports both privileged (dom0) and unprivileged (domU) operation.
p102
sVpart-long-up
p103
VThis kernel is not suitable for SMP (multi-processor,\u000amulti-core or hyper-threaded) systems.
p104
ss(Vbase
p105
g30
g31
tp106
(dp107
g65
(lp108
Vaptosid-amd64
p109
asg68
I01
ss(Vimage
p110
g10
tp111
(dp112
Vsuggests
p113
Vcrda
p114
sVbootloaders
p115
(lp116
Vgrub-pc
p117
aVextlinux
p118
aVgrub-efi-ia32
p119
asVinstall-stem
p120
Vvmlinuz
p121
sVbreaks
p122
Vxserver-xorg-input-vmmouse (<< 1:13.0.99)
p123
ss(Vbase
p124
tp125
(dp126
Vcompiler
p127
Vgcc-6
p128
sVarches
p129
(lp130
Vamd64
p131
aVi386
p132
asVfeaturesets
p133
(lp134
Vnone
p135
ass(Vbase
p136
g10
tp137
(dp138
Vkernel-arch
p139
Vx86
p140
sVfeaturesets
p141
(lp142
g83
ag62
ass(Vimage
p143
tp144
(dp145
Vinitramfs-generators
p146
(lp147
Vinitramfs-tools
p148
aVinitramfs-fallback
p149
ass(Vbuild
p150
g30
tp151
(dp152
Vdebug-info
p153
I00
sVimage-file
p154
Varch/x86/boot/bzImage
p155
sstp156
Rp157
.