ccopy_reg
_reconstructor
p0
(cdebian_linux.config
ConfigCore
p1
c__builtin__
dict
p2
(dp3
(Vbase
p4
Vi386
p5
tp6
(dp7
Vkernel-arch
p8
Vx86
p9
sVfeaturesets
p10
(lp11
Vnone
p12
aVnone
p13
ass(Vrelations
p14
tp15
(dp16
Vgcc-6
p17
Vgcc-6
p18
sVinitramfs-fallback
p19
Vlinux-initramfs-tool
p20
sVinitramfs-tools
p21
Vinitramfs-tools (>= 0.121~)
p22
ss(Vbase
p23
tp24
(dp25
Varches
p26
(lp27
Vamd64
p28
aVi386
p29
asVcompiler
p30
Vgcc-6
p31
sVfeaturesets
p32
(lp33
Vnone
p34
ass(Vimage
p35
Vamd64
p36
tp37
(dp38
Vbootloaders
p39
(lp40
Vgrub-pc
p41
aVextlinux
p42
aVgrub-efi-amd64
p43
asVinstall-stem
p44
Vvmlinuz
p45
sVsuggests
p46
Vcrda
p47
sVbreaks
p48
Vxserver-xorg-input-vmmouse (<< 1:13.0.99)
p49
ss(Vbase
p50
g36
tp51
(dp52
Vkernel-arch
p53
Vx86
p54
sVfeaturesets
p55
(lp56
g12
aVnone
p57
ass(Vbase
p58
g5
g13
tp59
(dp60
Vimplicit-flavour
p61
I01
sVflavours
p62
(lp63
Vaptosid-686
p64
ass(Vbuild
p65
g36
tp66
(dp67
Vimage-file
p68
Varch/x86/boot/bzImage
p69
sVdebug-info
p70
I00
ss(Vdescription
p71
g5
NVaptosid-686
p72
tp73
(dp74
Vhardware-long
p75
VPCs with Intel Pentium Pro/II/III/4/4M/D/M, Xeon, Celeron, Core or Atom; AMD Geode LX/NX, Athlon (K7), Duron, Opteron, Sempron, Turion or Phenom; Transmeta Efficeon; VIA C3 "Nehemiah" or C7 processors
p76
sVhardware
p77
Vmodern PCs
p78
ss(Vdescription
p79
tp80
(dp81
Vpart-long-xen
p82
VThis kernel also runs on a Xen hypervisor.\u000aIt supports both privileged (dom0) and unprivileged (domU) operation.
p83
sVpart-long-up
p84
VThis kernel is not suitable for SMP (multi-processor,\u000amulti-core or hyper-threaded) systems.
p85
ss(Vdescription
p86
g36
g57
Vaptosid-amd64
p87
tp88
(dp89
Vparts
p90
(lp91
Vxen
p92
ass(Vimage
p93
tp94
(dp95
Vinitramfs-generators
p96
(lp97
Vinitramfs-tools
p98
aVinitramfs-fallback
p99
ass(Vbase
p100
g36
g57
tp101
(dp102
g61
I01
sg62
(lp103
Vaptosid-amd64
p104
ass(Vabi
p105
tp106
(dp107
Vabiname
p108
V12.slh.2
p109
ss(Vversion
p110
tp111
(dp112
Vabiname
p113
V4.8.0-12.slh.2
p114
sVabiname_base
p115
V4.8.0
p116
sVupstream
p117
V4.8
p118
sVsource
p119
V4.8-21
p120
ss(Vimage
p121
g5
tp122
(dp123
Vbootloaders
p124
(lp125
Vgrub-pc
p126
aVextlinux
p127
aVgrub-efi-ia32
p128
asVinstall-stem
p129
Vvmlinuz
p130
sVsuggests
p131
Vcrda
p132
sVbreaks
p133
Vxserver-xorg-input-vmmouse (<< 1:13.0.99)
p134
ss(Vdescription
p135
g36
NVaptosid-amd64
p136
tp137
(dp138
Vhardware-long
p139
VPCs with AMD64 or Intel 64 processors
p140
sVhardware
p141
V64-bit PCs
p142
ss(Vbuild
p143
g5
tp144
(dp145
Vimage-file
p146
Varch/x86/boot/bzImage
p147
sVdebug-info
p148
I00
ss(Vxen
p149
g36
g57
Vaptosid-amd64
p150
tp151
(dp152
Vflavours
p153
(lp154
Vaptosid-amd64
p155
asstp156
Rp157
.