ccopy_reg
_reconstructor
p0
(cdebian_linux.config
ConfigCore
p1
c__builtin__
dict
p2
(dp3
(Vdescription
p4
tp5
(dp6
Vpart-long-xen
p7
VThis kernel also runs on a Xen hypervisor.\u000aIt supports both privileged (dom0) and unprivileged (domU) operation.
p8
sVpart-long-up
p9
VThis kernel is not suitable for SMP (multi-processor,\u000amulti-core or hyper-threaded) systems.
p10
ss(Vxen
p11
Vamd64
p12
Vnone
p13
Vaptosid-amd64
p14
tp15
(dp16
Vflavours
p17
(lp18
Vaptosid-amd64
p19
ass(Vimage
p20
g12
tp21
(dp22
Vbootloaders
p23
(lp24
Vgrub-pc
p25
aVextlinux
p26
aVgrub-efi-amd64
p27
asVconfigs
p28
(lp29
sVinstall-stem
p30
Vvmlinuz
p31
sVsuggests
p32
Vcrda
p33
ss(Vbase
p34
tp35
(dp36
Varches
p37
(lp38
Vamd64
p39
aVi386
p40
asVcompiler
p41
Vgcc-5
p42
sVfeaturesets
p43
(lp44
Vnone
p45
ass(Vbuild
p46
g12
tp47
(dp48
Vimage-file
p49
Varch/x86/boot/bzImage
p50
sVdebug-info
p51
I00
ss(Vbase
p52
g12
g13
tp53
(dp54
Vflavours
p55
(lp56
Vaptosid-amd64
p57
asVimplicit-flavour
p58
I01
ss(Vbase
p59
g12
tp60
(dp61
Vkernel-arch
p62
Vx86
p63
sVfeaturesets
p64
(lp65
Vnone
p66
ag13
ass(Vabi
p67
tp68
(dp69
Vabiname
p70
V1.slh.2
p71
ss(Vdescription
p72
g12
NVaptosid-amd64
p73
tp74
(dp75
Vhardware-long
p76
VPCs with AMD64 or Intel 64 processors
p77
sVhardware
p78
V64-bit PCs
p79
ss(Vimage
p80
g12
NVaptosid-amd64
p81
tp82
(dp83
Vconfigs
p84
(lp85
Vkernelarch-x86/config-arch-64
p86
ass(Vimage
p87
Vi386
p88
NVaptosid-686
p89
tp90
(dp91
Vrecommends
p92
Vlibc6-i686
p93
sVconfigs
p94
(lp95
Vkernelarch-x86/config-arch-32
p96
ass(Vrelations
p97
tp98
(dp99
Vinitramfs-tools
p100
Vinitramfs-tools (>= 0.118+c0.aptosid.1~)
p101
sVinitramfs-fallback
p102
Vlinux-initramfs-tool
p103
sVgcc-5
p104
Vgcc-5
p105
ss(Vdescription
p106
g12
g13
Vaptosid-amd64
p107
tp108
(dp109
Vparts
p110
(lp111
Vxen
p112
ass(Vimage
p113
g88
tp114
(dp115
Vbootloaders
p116
(lp117
Vgrub-pc
p118
aVextlinux
p119
aVgrub-efi-ia32
p120
asVconfigs
p121
(lp122
sVinstall-stem
p123
Vvmlinuz
p124
sVsuggests
p125
Vcrda
p126
ss(Vimage
p127
tp128
(dp129
Vinitramfs-generators
p130
(lp131
Vinitramfs-tools
p132
aVinitramfs-fallback
p133
asVtype
p134
Vplain
p135
ss(Vbuild
p136
g88
tp137
(dp138
Vimage-file
p139
Varch/x86/boot/bzImage
p140
sVdebug-info
p141
I00
ss(Vbase
p142
g88
tp143
(dp144
Vkernel-arch
p145
Vx86
p146
sVfeaturesets
p147
(lp148
g66
aVnone
p149
ass(Vbase
p150
g88
g149
tp151
(dp152
g55
(lp153
Vaptosid-686
p154
asg58
I01
ss(Vversion
p155
tp156
(dp157
Vabiname
p158
V4.5.0-1.slh.2
p159
sVsource
p160
V4.5-5
p161
sVabiname_base
p162
V4.5.0
p163
sVupstream
p164
V4.5
p165
ss(Vdescription
p166
g88
NVaptosid-686
p167
tp168
(dp169
Vhardware-long
p170
VPCs with Intel Pentium Pro/II/III/4/4M/D/M, Xeon, Celeron, Core or Atom; AMD Geode LX/NX, Athlon (K7), Duron, Opteron, Sempron, Turion or Phenom; Transmeta Efficeon; VIA C3 "Nehemiah" or C7 processors
p171
sVhardware
p172
Vmodern PCs
p173
sstp174
Rp175
.