ccopy_reg
_reconstructor
p0
(cdebian_linux.config
ConfigCore
p1
c__builtin__
dict
p2
(dp3
(Vbase
p4
Vi386
p5
tp6
(dp7
Vfeaturesets
p8
(lp9
Vnone
p10
aVnone
p11
asVkernel-arch
p12
Vx86
p13
ss(Vdescription
p14
g5
NVaptosid-686
p15
tp16
(dp17
Vhardware
p18
Vmodern PCs
p19
sVhardware-long
p20
VPCs with Intel Pentium Pro/II/III/4/4M/D/M, Xeon, Celeron, Core or Atom; AMD Geode LX/NX, Athlon (K7), Duron, Opteron, Sempron, Turion or Phenom; Transmeta Efficeon; VIA C3 "Nehemiah" or C7 processors
p21
ss(Vxen
p22
Vamd64
p23
Vnone
p24
Vaptosid-amd64
p25
tp26
(dp27
Vflavours
p28
(lp29
Vaptosid-amd64
p30
ass(Vbase
p31
g5
g11
tp32
(dp33
Vflavours
p34
(lp35
Vaptosid-686
p36
asVimplicit-flavour
p37
I01
ss(Vbuild
p38
g23
tp39
(dp40
Vimage-file
p41
Varch/x86/boot/bzImage
p42
sVdebug-info
p43
I00
ss(Vimage
p44
g23
NVaptosid-amd64
p45
tp46
(dp47
Vconfigs
p48
(lp49
Vkernelarch-x86/config-arch-64
p50
ass(Vabi
p51
tp52
(dp53
Vabiname
p54
V2.slh.1
p55
ss(Vbase
p56
g23
tp57
(dp58
Vfeaturesets
p59
(lp60
g10
ag24
asVkernel-arch
p61
Vx86
p62
ss(Vimage
p63
g5
tp64
(dp65
Vinstall-stem
p66
Vvmlinuz
p67
sVsuggests
p68
Vcrda
p69
sVconfigs
p70
(lp71
sVbootloaders
p72
(lp73
Vgrub-pc
p74
aVextlinux
p75
aVgrub-efi-ia32
p76
ass(Vdescription
p77
g23
g24
Vaptosid-amd64
p78
tp79
(dp80
Vparts
p81
(lp82
Vxen
p83
ass(Vversion
p84
tp85
(dp86
Vabiname
p87
V4.3.0-2.slh.1
p88
sVsource
p89
V4.3-8
p90
sVabiname_base
p91
V4.3.0
p92
sVupstream
p93
V4.3
p94
ss(Vbuild
p95
g5
tp96
(dp97
Vimage-file
p98
Varch/x86/boot/bzImage
p99
sVdebug-info
p100
I00
ss(Vdescription
p101
tp102
(dp103
Vpart-long-xen
p104
VThis kernel also runs on a Xen hypervisor.\u000aIt supports both privileged (dom0) and unprivileged (domU) operation.
p105
sVpart-long-up
p106
VThis kernel is not suitable for SMP (multi-processor,\u000amulti-core or hyper-threaded) systems.
p107
ss(Vbase
p108
tp109
(dp110
Vcompiler
p111
Vgcc-5
p112
sVfeaturesets
p113
(lp114
Vnone
p115
asVarches
p116
(lp117
Vamd64
p118
aVi386
p119
ass(Vimage
p120
g23
tp121
(dp122
Vinstall-stem
p123
Vvmlinuz
p124
sVsuggests
p125
Vcrda
p126
sVconfigs
p127
(lp128
sVbootloaders
p129
(lp130
Vgrub-pc
p131
aVextlinux
p132
aVgrub-efi-amd64
p133
ass(Vbase
p134
g23
g24
tp135
(dp136
g34
(lp137
Vaptosid-amd64
p138
asg37
I01
ss(Vdescription
p139
g23
NVaptosid-amd64
p140
tp141
(dp142
Vhardware
p143
V64-bit PCs
p144
sVhardware-long
p145
VPCs with AMD64 or Intel 64 processors
p146
ss(Vimage
p147
tp148
(dp149
Vtype
p150
Vplain
p151
sVinitramfs-generators
p152
(lp153
Vinitramfs-tools
p154
aVinitramfs-fallback
p155
ass(Vrelations
p156
tp157
(dp158
Vgcc-5
p159
Vgcc-5
p160
sVinitramfs-fallback
p161
Vlinux-initramfs-tool
p162
sVinitramfs-tools
p163
Vinitramfs-tools (>= 0.118+c0.aptosid.1~)
p164
ss(Vimage
p165
g5
NVaptosid-686
p166
tp167
(dp168
Vconfigs
p169
(lp170
Vkernelarch-x86/config-arch-32
p171
asVrecommends
p172
Vlibc6-i686
p173
sstp174
Rp175
.