ccopy_reg
_reconstructor
p0
(cdebian_linux.config
ConfigCore
p1
c__builtin__
dict
p2
(dp3
(Vbase
p4
Vi386
p5
Vnone
p6
tp7
(dp8
Vflavours
p9
(lp10
Vaptosid-686
p11
asVimplicit-flavour
p12
I01
ss(Vbase
p13
tp14
(dp15
Varches
p16
(lp17
Vamd64
p18
aVi386
p19
asVcompiler
p20
Vgcc-7
p21
sVfeaturesets
p22
(lp23
Vnone
p24
ass(Vbase
p25
Vamd64
p26
Vnone
p27
tp28
(dp29
g9
(lp30
Vaptosid-amd64
p31
asg12
I01
ss(Vrelations
p32
tp33
(dp34
Vinitramfs-fallback
p35
Vlinux-initramfs-tool
p36
sVgcc-7
p37
Vgcc-7
p38
sVinitramfs-tools
p39
Vinitramfs-tools (>= 0.121~)
p40
ss(Vdescription
p41
tp42
(dp43
Vpart-long-up
p44
VThis kernel is not suitable for SMP (multi-processor,\u000amulti-core or hyper-threaded) systems.
p45
sVpart-long-xen
p46
VThis kernel also runs on a Xen hypervisor.\u000aIt supports both privileged (dom0) and unprivileged (domU) operation.
p47
ss(Vbuild
p48
g5
tp49
(dp50
Vimage-file
p51
Varch/x86/boot/bzImage
p52
sVdebug-info
p53
I00
ss(Vabi
p54
tp55
(dp56
Vabiname
p57
V6.slh.1
p58
ss(Vbuild
p59
g26
tp60
(dp61
Vimage-file
p62
Varch/x86/boot/bzImage
p63
sVdebug-info
p64
I00
ss(Vdescription
p65
g5
NVaptosid-686
p66
tp67
(dp68
Vhardware
p69
Vmodern PCs
p70
sVhardware-long
p71
VPCs with Intel Pentium Pro/II/III/4/4M/D/M, Xeon, Celeron, Core or Atom; AMD Geode LX/NX, Athlon (K7), Duron, Opteron, Sempron, Turion or Phenom; Transmeta Efficeon; VIA C3 "Nehemiah" or C7 processors
p72
ss(Vimage
p73
g5
tp74
(dp75
Vsuggests
p76
Vcrda
p77
sVinstall-stem
p78
Vvmlinuz
p79
sVbreaks
p80
Vxserver-xorg-input-vmmouse (<< 1:13.0.99)
p81
sVbootloaders
p82
(lp83
Vgrub-pc
p84
aVextlinux
p85
aVgrub-efi-ia32
p86
ass(Vbase
p87
g5
tp88
(dp89
Vfeaturesets
p90
(lp91
Vnone
p92
ag6
asVkernel-arch
p93
Vx86
p94
ss(Vdescription
p95
g26
NVaptosid-amd64
p96
tp97
(dp98
Vhardware
p99
V64-bit PCs
p100
sVhardware-long
p101
VPCs with AMD64 or Intel 64 processors
p102
ss(Vimage
p103
tp104
(dp105
Vinitramfs-generators
p106
(lp107
Vinitramfs-tools
p108
aVinitramfs-fallback
p109
ass(Vimage
p110
g26
tp111
(dp112
Vsuggests
p113
Vcrda
p114
sVinstall-stem
p115
Vvmlinuz
p116
sVbreaks
p117
Vxserver-xorg-input-vmmouse (<< 1:13.0.99)
p118
sVbootloaders
p119
(lp120
Vgrub-pc
p121
aVextlinux
p122
aVgrub-efi-amd64
p123
ass(Vbase
p124
g26
tp125
(dp126
Vfeaturesets
p127
(lp128
g92
ag27
asVkernel-arch
p129
Vx86
p130
ss(Vversion
p131
tp132
(dp133
Vsource
p134
V4.12-13
p135
sVupstream
p136
V4.12
p137
sVabiname
p138
V4.12.0-6.slh.1
p139
sVabiname_base
p140
V4.12.0
p141
ss(Vdescription
p142
g26
g27
Vaptosid-amd64
p143
tp144
(dp145
Vparts
p146
(lp147
Vxen
p148
asstp149
Rp150
.