ccopy_reg
_reconstructor
p0
(cdebian_linux.config
ConfigCore
p1
c__builtin__
dict
p2
(dp3
(Vimage
p4
Vamd64
p5
tp6
(dp7
Vinstall-stem
p8
Vvmlinuz
p9
sVbreaks
p10
Vxserver-xorg-input-vmmouse (<< 1:13.0.99)
p11
sVbootloaders
p12
(lp13
Vgrub-pc
p14
aVextlinux
p15
aVgrub-efi-amd64
p16
asVsuggests
p17
Vcrda
p18
ss(Vbase
p19
Vi386
p20
Vnone
p21
tp22
(dp23
Vimplicit-flavour
p24
I01
sVflavours
p25
(lp26
Vaptosid-686
p27
ass(Vdescription
p28
tp29
(dp30
Vpart-long-up
p31
VThis kernel is not suitable for SMP (multi-processor,\u000amulti-core or hyper-threaded) systems.
p32
sVpart-long-xen
p33
VThis kernel also runs on a Xen hypervisor.\u000aIt supports both privileged (dom0) and unprivileged (domU) operation.
p34
ss(Vdescription
p35
g5
Vnone
p36
Vaptosid-amd64
p37
tp38
(dp39
Vparts
p40
(lp41
Vxen
p42
ass(Vbuild
p43
g20
tp44
(dp45
Vimage-file
p46
Varch/x86/boot/bzImage
p47
sVdebug-info
p48
I00
ss(Vbuild
p49
g5
tp50
(dp51
Vimage-file
p52
Varch/x86/boot/bzImage
p53
sVdebug-info
p54
I00
ss(Vbase
p55
g5
g36
tp56
(dp57
g24
I01
sg25
(lp58
Vaptosid-amd64
p59
ass(Vdescription
p60
g5
NVaptosid-amd64
p61
tp62
(dp63
Vhardware
p64
V64-bit PCs
p65
sVhardware-long
p66
VPCs with AMD64 or Intel 64 processors
p67
ss(Vversion
p68
tp69
(dp70
Vabiname_base
p71
V4.11.0
p72
sVsource
p73
V4.11-2
p74
sVupstream
p75
V4.11
p76
sVabiname
p77
V4.11.0-0.slh.2
p78
ss(Vimage
p79
g20
tp80
(dp81
Vinstall-stem
p82
Vvmlinuz
p83
sVbreaks
p84
Vxserver-xorg-input-vmmouse (<< 1:13.0.99)
p85
sVbootloaders
p86
(lp87
Vgrub-pc
p88
aVextlinux
p89
aVgrub-efi-ia32
p90
asVsuggests
p91
Vcrda
p92
ss(Vbase
p93
tp94
(dp95
Varches
p96
(lp97
Vamd64
p98
aVi386
p99
asVcompiler
p100
Vgcc-6
p101
sVfeaturesets
p102
(lp103
Vnone
p104
ass(Vbase
p105
g5
tp106
(dp107
Vkernel-arch
p108
Vx86
p109
sVfeaturesets
p110
(lp111
Vnone
p112
ag36
ass(Vimage
p113
tp114
(dp115
Vinitramfs-generators
p116
(lp117
Vinitramfs-tools
p118
aVinitramfs-fallback
p119
ass(Vabi
p120
tp121
(dp122
Vabiname
p123
V0.slh.2
p124
ss(Vbase
p125
g20
tp126
(dp127
Vkernel-arch
p128
Vx86
p129
sVfeaturesets
p130
(lp131
g112
ag21
ass(Vrelations
p132
tp133
(dp134
Vinitramfs-fallback
p135
Vlinux-initramfs-tool
p136
sVinitramfs-tools
p137
Vinitramfs-tools (>= 0.121~)
p138
sVgcc-6
p139
Vgcc-6
p140
ss(Vdescription
p141
g20
NVaptosid-686
p142
tp143
(dp144
Vhardware
p145
Vmodern PCs
p146
sVhardware-long
p147
VPCs with Intel Pentium Pro/II/III/4/4M/D/M, Xeon, Celeron, Core or Atom; AMD Geode LX/NX, Athlon (K7), Duron, Opteron, Sempron, Turion or Phenom; Transmeta Efficeon; VIA C3 "Nehemiah" or C7 processors
p148
sstp149
Rp150
.