ccopy_reg
_reconstructor
p0
(cdebian_linux.config
ConfigCore
p1
c__builtin__
dict
p2
(dp3
(Vbase
p4
tp5
(dp6
Vfeaturesets
p7
(lp8
Vnone
p9
asVcompiler
p10
Vgcc-5
p11
sVarches
p12
(lp13
Vamd64
p14
aVi386
p15
ass(Vimage
p16
tp17
(dp18
Vtype
p19
Vplain
p20
sVinitramfs-generators
p21
(lp22
Vinitramfs-tools
p23
aVinitramfs-fallback
p24
ass(Vimage
p25
Vi386
p26
NVaptosid-686
p27
tp28
(dp29
Vrecommends
p30
Vlibc6-i686
p31
sVconfigs
p32
(lp33
Vkernelarch-x86/config-arch-32
p34
ass(Vbase
p35
g26
tp36
(dp37
Vfeaturesets
p38
(lp39
Vnone
p40
aVnone
p41
asVkernel-arch
p42
Vx86
p43
ss(Vimage
p44
g26
tp45
(dp46
Vbootloaders
p47
(lp48
Vgrub-pc
p49
aVextlinux
p50
aVgrub-efi-ia32
p51
asVinstall-stem
p52
Vvmlinuz
p53
sVsuggests
p54
Vcrda
p55
sVconfigs
p56
(lp57
ss(Vbase
p58
g26
g41
tp59
(dp60
Vflavours
p61
(lp62
Vaptosid-686
p63
asVimplicit-flavour
p64
I01
ss(Vdescription
p65
g26
NVaptosid-686
p66
tp67
(dp68
Vhardware
p69
Vmodern PCs
p70
sVhardware-long
p71
VPCs with Intel Pentium Pro/II/III/4/4M/D/M, Xeon, Celeron, Core or Atom; AMD Geode LX/NX, Athlon (K7), Duron, Opteron, Sempron, Turion or Phenom; Transmeta Efficeon; VIA C3 "Nehemiah" or C7 processors
p72
ss(Vdescription
p73
tp74
(dp75
Vpart-long-xen
p76
VThis kernel also runs on a Xen hypervisor.\u000aIt supports both privileged (dom0) and unprivileged (domU) operation.
p77
sVpart-long-up
p78
VThis kernel is not suitable for SMP (multi-processor,\u000amulti-core or hyper-threaded) systems.
p79
ss(Vimage
p80
Vamd64
p81
NVaptosid-amd64
p82
tp83
(dp84
Vconfigs
p85
(lp86
Vkernelarch-x86/config-arch-64
p87
ass(Vimage
p88
g81
tp89
(dp90
Vbootloaders
p91
(lp92
Vgrub-pc
p93
aVextlinux
p94
aVgrub-efi-amd64
p95
asVinstall-stem
p96
Vvmlinuz
p97
sVsuggests
p98
Vcrda
p99
sVconfigs
p100
(lp101
ss(Vbuild
p102
g26
tp103
(dp104
Vimage-file
p105
Varch/x86/boot/bzImage
p106
sVdebug-info
p107
I00
ss(Vabi
p108
tp109
(dp110
Vabiname
p111
V0.slh.1
p112
ss(Vbuild
p113
g81
tp114
(dp115
Vimage-file
p116
Varch/x86/boot/bzImage
p117
sVdebug-info
p118
I00
ss(Vxen
p119
g81
Vnone
p120
Vaptosid-amd64
p121
tp122
(dp123
Vflavours
p124
(lp125
Vaptosid-amd64
p126
ass(Vbase
p127
g81
tp128
(dp129
Vfeaturesets
p130
(lp131
g40
ag120
asVkernel-arch
p132
Vx86
p133
ss(Vversion
p134
tp135
(dp136
Vsource
p137
V4.5-1
p138
sVupstream
p139
V4.5
p140
sVabiname
p141
V4.5.0-0.slh.1
p142
sVabiname_base
p143
V4.5.0
p144
ss(Vrelations
p145
tp146
(dp147
Vinitramfs-fallback
p148
Vlinux-initramfs-tool
p149
sVgcc-5
p150
Vgcc-5
p151
sVinitramfs-tools
p152
Vinitramfs-tools (>= 0.118+c0.aptosid.1~)
p153
ss(Vbase
p154
g81
g120
tp155
(dp156
g61
(lp157
Vaptosid-amd64
p158
asg64
I01
ss(Vdescription
p159
g81
g120
Vaptosid-amd64
p160
tp161
(dp162
Vparts
p163
(lp164
Vxen
p165
ass(Vdescription
p166
g81
NVaptosid-amd64
p167
tp168
(dp169
Vhardware
p170
V64-bit PCs
p171
sVhardware-long
p172
VPCs with AMD64 or Intel 64 processors
p173
sstp174
Rp175
.