ccopy_reg
_reconstructor
p0
(cdebian_linux.config
ConfigCore
p1
c__builtin__
dict
p2
(dp3
(S'image'
p4
S'amd64'
p5
tp6
(dp7
S'install-stem'
p8
S'vmlinuz'
p9
sS'configs'
p10
(lp11
sS'bootloaders'
p12
(lp13
S'grub-pc'
p14
aS'extlinux'
p15
aS'grub-efi-amd64'
p16
asS'suggests'
p17
S'crda'
p18
ss(S'description'
p19
g5
NS'aptosid-amd64'
p20
tp21
(dp22
S'hardware'
p23
S'64-bit PCs'
p24
sS'hardware-long'
p25
S'PCs with AMD64 or Intel 64 processors'
p26
ss(S'description'
p27
S'i386'
p28
NS'aptosid-686'
p29
tp30
(dp31
S'hardware'
p32
S'modern PCs'
p33
sS'hardware-long'
p34
S'PCs with Intel Pentium Pro/II/III/4/4M/D/M, Xeon, Celeron, Core or Atom; AMD Geode LX/NX, Athlon (K7), Duron, Opteron, Sempron, Turion or Phenom; Transmeta Efficeon; VIA C3 "Nehemiah" or C7 processors'
p35
ss(S'base'
p36
g5
S'none'
p37
tp38
(dp39
S'implicit-flavour'
p40
I01
sS'flavours'
p41
(lp42
S'aptosid-amd64'
p43
ass(S'xen'
p44
g5
g37
S'aptosid-amd64'
p45
tp46
(dp47
S'flavours'
p48
(lp49
S'aptosid-amd64'
p50
ass(S'image'
p51
g28
NS'aptosid-686'
p52
tp53
(dp54
S'configs'
p55
(lp56
S'kernelarch-x86/config-arch-32'
p57
asS'recommends'
p58
S'libc6-i686'
p59
ss(S'base'
p60
g5
tp61
(dp62
S'kernel-arch'
p63
S'x86'
p64
sS'featuresets'
p65
(lp66
S'none'
p67
ag37
ass(S'image'
p68
tp69
(dp70
S'initramfs-generators'
p71
(lp72
S'initramfs-tools'
p73
aS'initramfs-fallback'
p74
asS'type'
p75
S'plain'
p76
ss(S'image'
p77
g5
NS'aptosid-amd64'
p78
tp79
(dp80
S'configs'
p81
(lp82
S'kernelarch-x86/config-arch-64'
p83
ass(S'version'
p84
tp85
(dp86
S'abiname'
p87
S'4.0.0-1.slh.2'
p88
sS'source'
p89
V4.0-5
p90
sS'abiname_base'
p91
S'4.0.0'
p92
sS'upstream'
p93
S'4.0'
p94
ss(S'description'
p95
g5
g37
S'aptosid-amd64'
p96
tp97
(dp98
S'parts'
p99
(lp100
S'xen'
p101
ass(S'base'
p102
g28
tp103
(dp104
S'kernel-arch'
p105
S'x86'
p106
sS'featuresets'
p107
(lp108
g67
aS'none'
p109
ass(S'base'
p110
tp111
(dp112
S'arches'
p113
(lp114
S'amd64'
p115
aS'i386'
p116
asS'featuresets'
p117
(lp118
S'none'
p119
asS'compiler'
p120
S'gcc-4.9'
p121
ss(S'base'
p122
g28
g109
tp123
(dp124
g40
I01
sg41
(lp125
S'aptosid-686'
p126
ass(S'abi'
p127
tp128
(dp129
S'abiname'
p130
S'1.slh.2'
p131
ss(S'image'
p132
g28
tp133
(dp134
S'install-stem'
p135
S'vmlinuz'
p136
sS'configs'
p137
(lp138
sS'bootloaders'
p139
(lp140
S'grub-pc'
p141
aS'extlinux'
p142
aS'grub-efi-ia32'
p143
asS'suggests'
p144
S'crda'
p145
ss(S'description'
p146
tp147
(dp148
S'part-long-up'
p149
S'This kernel is not suitable for SMP (multi-processor,\nmulti-core or hyper-threaded) systems.'
p150
sS'part-long-xen'
p151
S'This kernel also runs on a Xen hypervisor.\nIt supports both privileged (dom0) and unprivileged (domU) operation.'
p152
ss(S'build'
p153
g5
tp154
(dp155
S'debug-info'
p156
I00
sS'image-file'
p157
S'arch/x86/boot/bzImage'
p158
ss(S'build'
p159
g28
tp160
(dp161
S'debug-info'
p162
I00
sS'image-file'
p163
S'arch/x86/boot/bzImage'
p164
ss(S'relations'
p165
tp166
(dp167
S'initramfs-fallback'
p168
S'linux-initramfs-tool'
p169
sS'gcc-4.9'
p170
S'gcc-4.9'
p171
sS'initramfs-tools'
p172
S'initramfs-tools (>= 0.118+c0.aptosid.1~)'
p173
sstp174
Rp175
.