ccopy_reg
_reconstructor
p0
(cdebian_linux.config
ConfigCore
p1
c__builtin__
dict
p2
(dp3
(Vbase
p4
tp5
(dp6
Varches
p7
(lp8
Vamd64
p9
aVi386
p10
asVfeaturesets
p11
(lp12
Vnone
p13
asVcompiler
p14
Vgcc-6
p15
ss(Vbuild
p16
Vamd64
p17
tp18
(dp19
Vimage-file
p20
Varch/x86/boot/bzImage
p21
sVdebug-info
p22
I00
ss(Vdescription
p23
tp24
(dp25
Vpart-long-xen
p26
VThis kernel also runs on a Xen hypervisor.\u000aIt supports both privileged (dom0) and unprivileged (domU) operation.
p27
sVpart-long-up
p28
VThis kernel is not suitable for SMP (multi-processor,\u000amulti-core or hyper-threaded) systems.
p29
ss(Vbase
p30
g17
tp31
(dp32
Vkernel-arch
p33
Vx86
p34
sVfeaturesets
p35
(lp36
Vnone
p37
aVnone
p38
ass(Vdescription
p39
g17
NVaptosid-amd64
p40
tp41
(dp42
Vhardware
p43
V64-bit PCs
p44
sVhardware-long
p45
VPCs with AMD64 or Intel 64 processors
p46
ss(Vimage
p47
tp48
(dp49
Vinitramfs-generators
p50
(lp51
Vinitramfs-tools
p52
aVinitramfs-fallback
p53
ass(Vbase
p54
Vi386
p55
tp56
(dp57
Vkernel-arch
p58
Vx86
p59
sVfeaturesets
p60
(lp61
g37
aVnone
p62
ass(Vbase
p63
g55
g62
tp64
(dp65
Vflavours
p66
(lp67
Vaptosid-686
p68
asVimplicit-flavour
p69
I01
ss(Vdescription
p70
g55
NVaptosid-686
p71
tp72
(dp73
Vhardware
p74
Vmodern PCs
p75
sVhardware-long
p76
VPCs with Intel Pentium Pro/II/III/4/4M/D/M, Xeon, Celeron, Core or Atom; AMD Geode LX/NX, Athlon (K7), Duron, Opteron, Sempron, Turion or Phenom; Transmeta Efficeon; VIA C3 "Nehemiah" or C7 processors
p77
ss(Vversion
p78
tp79
(dp80
Vabiname_base
p81
V4.11.0
p82
sVsource
p83
V4.11-4
p84
sVupstream
p85
V4.11
p86
sVabiname
p87
V4.11.0-0.slh.4
p88
ss(Vimage
p89
g55
tp90
(dp91
Vbootloaders
p92
(lp93
Vgrub-pc
p94
aVextlinux
p95
aVgrub-efi-ia32
p96
asVinstall-stem
p97
Vvmlinuz
p98
sVbreaks
p99
Vxserver-xorg-input-vmmouse (<< 1:13.0.99)
p100
sVsuggests
p101
Vcrda
p102
ss(Vimage
p103
g17
tp104
(dp105
Vbootloaders
p106
(lp107
Vgrub-pc
p108
aVextlinux
p109
aVgrub-efi-amd64
p110
asVinstall-stem
p111
Vvmlinuz
p112
sVbreaks
p113
Vxserver-xorg-input-vmmouse (<< 1:13.0.99)
p114
sVsuggests
p115
Vcrda
p116
ss(Vdescription
p117
g17
g38
Vaptosid-amd64
p118
tp119
(dp120
Vparts
p121
(lp122
Vxen
p123
ass(Vabi
p124
tp125
(dp126
Vabiname
p127
V0.slh.4
p128
ss(Vbase
p129
g17
g38
tp130
(dp131
g66
(lp132
Vaptosid-amd64
p133
asg69
I01
ss(Vbuild
p134
g55
tp135
(dp136
Vimage-file
p137
Varch/x86/boot/bzImage
p138
sVdebug-info
p139
I00
ss(Vrelations
p140
tp141
(dp142
Vinitramfs-tools
p143
Vinitramfs-tools (>= 0.121~)
p144
sVinitramfs-fallback
p145
Vlinux-initramfs-tool
p146
sVgcc-6
p147
Vgcc-6
p148
sstp149
Rp150
.