ccopy_reg
_reconstructor
p0
(cdebian_linux.config
ConfigCore
p1
c__builtin__
dict
p2
(dp3
(Vdescription
p4
tp5
(dp6
Vpart-long-xen
p7
VThis kernel also runs on a Xen hypervisor.\u000aIt supports both privileged (dom0) and unprivileged (domU) operation.
p8
sVpart-long-up
p9
VThis kernel is not suitable for SMP (multi-processor,\u000amulti-core or hyper-threaded) systems.
p10
ss(Vabi
p11
tp12
(dp13
Vabiname
p14
V0.slh.3
p15
ss(Vbase
p16
Vi386
p17
tp18
(dp19
Vkernel-arch
p20
Vx86
p21
sVfeaturesets
p22
(lp23
Vnone
p24
aVnone
p25
ass(Vbase
p26
Vamd64
p27
tp28
(dp29
Vkernel-arch
p30
Vx86
p31
sVfeaturesets
p32
(lp33
g24
aVnone
p34
ass(Vdescription
p35
g17
NVaptosid-686
p36
tp37
(dp38
Vhardware-long
p39
VPCs with Intel Pentium Pro/II/III/4/4M/D/M, Xeon, Celeron, Core or Atom; AMD Geode LX/NX, Athlon (K7), Duron, Opteron, Sempron, Turion or Phenom; Transmeta Efficeon; VIA C3 "Nehemiah" or C7 processors
p40
sVhardware
p41
Vmodern PCs
p42
ss(Vversion
p43
tp44
(dp45
Vsource
p46
V4.11-3
p47
sVabiname_base
p48
V4.11.0
p49
sVupstream
p50
V4.11
p51
sVabiname
p52
V4.11.0-0.slh.3
p53
ss(Vimage
p54
g17
tp55
(dp56
Vsuggests
p57
Vcrda
p58
sVinstall-stem
p59
Vvmlinuz
p60
sVbootloaders
p61
(lp62
Vgrub-pc
p63
aVextlinux
p64
aVgrub-efi-ia32
p65
asVbreaks
p66
Vxserver-xorg-input-vmmouse (<< 1:13.0.99)
p67
ss(Vbase
p68
g17
g25
tp69
(dp70
Vflavours
p71
(lp72
Vaptosid-686
p73
asVimplicit-flavour
p74
I01
ss(Vbase
p75
g27
g34
tp76
(dp77
g71
(lp78
Vaptosid-amd64
p79
asg74
I01
ss(Vimage
p80
g27
tp81
(dp82
Vsuggests
p83
Vcrda
p84
sVinstall-stem
p85
Vvmlinuz
p86
sVbootloaders
p87
(lp88
Vgrub-pc
p89
aVextlinux
p90
aVgrub-efi-amd64
p91
asVbreaks
p92
Vxserver-xorg-input-vmmouse (<< 1:13.0.99)
p93
ss(Vdescription
p94
g27
g34
Vaptosid-amd64
p95
tp96
(dp97
Vparts
p98
(lp99
Vxen
p100
ass(Vdescription
p101
g27
NVaptosid-amd64
p102
tp103
(dp104
Vhardware-long
p105
VPCs with AMD64 or Intel 64 processors
p106
sVhardware
p107
V64-bit PCs
p108
ss(Vbuild
p109
g27
tp110
(dp111
Vimage-file
p112
Varch/x86/boot/bzImage
p113
sVdebug-info
p114
I00
ss(Vbuild
p115
g17
tp116
(dp117
Vimage-file
p118
Varch/x86/boot/bzImage
p119
sVdebug-info
p120
I00
ss(Vimage
p121
tp122
(dp123
Vinitramfs-generators
p124
(lp125
Vinitramfs-tools
p126
aVinitramfs-fallback
p127
ass(Vrelations
p128
tp129
(dp130
Vinitramfs-tools
p131
Vinitramfs-tools (>= 0.121~)
p132
sVgcc-6
p133
Vgcc-6
p134
sVinitramfs-fallback
p135
Vlinux-initramfs-tool
p136
ss(Vbase
p137
tp138
(dp139
Varches
p140
(lp141
Vamd64
p142
aVi386
p143
asVcompiler
p144
Vgcc-6
p145
sVfeaturesets
p146
(lp147
Vnone
p148
asstp149
Rp150
.