ccopy_reg
_reconstructor
p0
(cdebian_linux.config
ConfigCore
p1
c__builtin__
dict
p2
(dp3
(Vxen
p4
Vamd64
p5
Vnone
p6
Vaptosid-amd64
p7
tp8
(dp9
Vflavours
p10
(lp11
Vaptosid-amd64
p12
ass(Vbase
p13
Vi386
p14
Vnone
p15
tp16
(dp17
Vimplicit-flavour
p18
I01
sVflavours
p19
(lp20
Vaptosid-686
p21
ass(Vversion
p22
tp23
(dp24
Vabiname
p25
V4.4.0-0.slh.3
p26
sVsource
p27
V4.4-4
p28
sVabiname_base
p29
V4.4.0
p30
sVupstream
p31
V4.4
p32
ss(Vbase
p33
g14
tp34
(dp35
Vfeaturesets
p36
(lp37
Vnone
p38
ag15
asVkernel-arch
p39
Vx86
p40
ss(Vbase
p41
g5
tp42
(dp43
Vfeaturesets
p44
(lp45
g38
ag6
asVkernel-arch
p46
Vx86
p47
ss(Vbase
p48
g5
g6
tp49
(dp50
g18
I01
sg19
(lp51
Vaptosid-amd64
p52
ass(Vimage
p53
g5
NVaptosid-amd64
p54
tp55
(dp56
Vconfigs
p57
(lp58
Vkernelarch-x86/config-arch-64
p59
ass(Vbase
p60
tp61
(dp62
Vcompiler
p63
Vgcc-5
p64
sVarches
p65
(lp66
Vamd64
p67
aVi386
p68
asVfeaturesets
p69
(lp70
Vnone
p71
ass(Vimage
p72
g14
tp73
(dp74
Vbootloaders
p75
(lp76
Vgrub-pc
p77
aVextlinux
p78
aVgrub-efi-ia32
p79
asVsuggests
p80
Vcrda
p81
sVinstall-stem
p82
Vvmlinuz
p83
sVconfigs
p84
(lp85
ss(Vimage
p86
g14
NVaptosid-686
p87
tp88
(dp89
Vrecommends
p90
Vlibc6-i686
p91
sVconfigs
p92
(lp93
Vkernelarch-x86/config-arch-32
p94
ass(Vrelations
p95
tp96
(dp97
Vinitramfs-fallback
p98
Vlinux-initramfs-tool
p99
sVgcc-5
p100
Vgcc-5
p101
sVinitramfs-tools
p102
Vinitramfs-tools (>= 0.118+c0.aptosid.1~)
p103
ss(Vdescription
p104
g5
NVaptosid-amd64
p105
tp106
(dp107
Vhardware
p108
V64-bit PCs
p109
sVhardware-long
p110
VPCs with AMD64 or Intel 64 processors
p111
ss(Vimage
p112
tp113
(dp114
Vtype
p115
Vplain
p116
sVinitramfs-generators
p117
(lp118
Vinitramfs-tools
p119
aVinitramfs-fallback
p120
ass(Vdescription
p121
g5
g6
Vaptosid-amd64
p122
tp123
(dp124
Vparts
p125
(lp126
Vxen
p127
ass(Vbuild
p128
g5
tp129
(dp130
Vdebug-info
p131
I00
sVimage-file
p132
Varch/x86/boot/bzImage
p133
ss(Vbuild
p134
g14
tp135
(dp136
Vdebug-info
p137
I00
sVimage-file
p138
Varch/x86/boot/bzImage
p139
ss(Vdescription
p140
tp141
(dp142
Vpart-long-up
p143
VThis kernel is not suitable for SMP (multi-processor,\u000amulti-core or hyper-threaded) systems.
p144
sVpart-long-xen
p145
VThis kernel also runs on a Xen hypervisor.\u000aIt supports both privileged (dom0) and unprivileged (domU) operation.
p146
ss(Vdescription
p147
g14
NVaptosid-686
p148
tp149
(dp150
Vhardware
p151
Vmodern PCs
p152
sVhardware-long
p153
VPCs with Intel Pentium Pro/II/III/4/4M/D/M, Xeon, Celeron, Core or Atom; AMD Geode LX/NX, Athlon (K7), Duron, Opteron, Sempron, Turion or Phenom; Transmeta Efficeon; VIA C3 "Nehemiah" or C7 processors
p154
ss(Vabi
p155
tp156
(dp157
Vabiname
p158
V0.slh.3
p159
ss(Vimage
p160
g5
tp161
(dp162
Vbootloaders
p163
(lp164
Vgrub-pc
p165
aVextlinux
p166
aVgrub-efi-amd64
p167
asVsuggests
p168
Vcrda
p169
sVinstall-stem
p170
Vvmlinuz
p171
sVconfigs
p172
(lp173
sstp174
Rp175
.