ccopy_reg
_reconstructor
p0
(cdebian_linux.config
ConfigCore
p1
c__builtin__
dict
p2
(dp3
(Vbase
p4
Vi386
p5
Vnone
p6
tp7
(dp8
Vimplicit-flavour
p9
I01
sVflavours
p10
(lp11
Vaptosid-686
p12
ass(Vbuild
p13
Vamd64
p14
tp15
(dp16
Vdebug-info
p17
I00
sVimage-file
p18
Varch/x86/boot/bzImage
p19
ss(Vbase
p20
g5
tp21
(dp22
Vkernel-arch
p23
Vx86
p24
sVfeaturesets
p25
(lp26
Vnone
p27
ag6
ass(Vbase
p28
g14
tp29
(dp30
Vkernel-arch
p31
Vx86
p32
sVfeaturesets
p33
(lp34
g27
aVnone
p35
ass(Vbuild
p36
g5
tp37
(dp38
Vdebug-info
p39
I00
sVimage-file
p40
Varch/x86/boot/bzImage
p41
ss(Vdescription
p42
tp43
(dp44
Vpart-long-xen
p45
VThis kernel also runs on a Xen hypervisor.\u000aIt supports both privileged (dom0) and unprivileged (domU) operation.
p46
sVpart-long-up
p47
VThis kernel is not suitable for SMP (multi-processor,\u000amulti-core or hyper-threaded) systems.
p48
ss(Vimage
p49
g14
tp50
(dp51
Vsuggests
p52
Vcrda
p53
sVinstall-stem
p54
Vvmlinuz
p55
sVbootloaders
p56
(lp57
Vgrub-pc
p58
aVextlinux
p59
aVgrub-efi-amd64
p60
asVbreaks
p61
Vxserver-xorg-input-vmmouse (<< 1:13.0.99)
p62
ss(Vdescription
p63
g5
NVaptosid-686
p64
tp65
(dp66
Vhardware
p67
Vmodern PCs
p68
sVhardware-long
p69
VPCs with Intel Pentium Pro/II/III/4/4M/D/M, Xeon, Celeron, Core or Atom; AMD Geode LX/NX, Athlon (K7), Duron, Opteron, Sempron, Turion or Phenom; Transmeta Efficeon; VIA C3 "Nehemiah" or C7 processors
p70
ss(Vbase
p71
tp72
(dp73
Varches
p74
(lp75
Vamd64
p76
aVi386
p77
asVfeaturesets
p78
(lp79
Vnone
p80
asVcompiler
p81
Vgcc-7
p82
ss(Vversion
p83
tp84
(dp85
Vabiname_base
p86
V4.12.0
p87
sVupstream
p88
V4.12
p89
sVsource
p90
V4.12-15
p91
sVabiname
p92
V4.12.0-7.slh.2
p93
ss(Vbase
p94
g14
g35
tp95
(dp96
g9
I01
sg10
(lp97
Vaptosid-amd64
p98
ass(Vrelations
p99
tp100
(dp101
Vinitramfs-tools
p102
Vinitramfs-tools (>= 0.121~)
p103
sVinitramfs-fallback
p104
Vlinux-initramfs-tool
p105
sVgcc-7
p106
Vgcc-7
p107
ss(Vabi
p108
tp109
(dp110
Vabiname
p111
V7.slh.2
p112
ss(Vdescription
p113
g14
NVaptosid-amd64
p114
tp115
(dp116
Vhardware
p117
V64-bit PCs
p118
sVhardware-long
p119
VPCs with AMD64 or Intel 64 processors
p120
ss(Vimage
p121
g5
tp122
(dp123
Vsuggests
p124
Vcrda
p125
sVinstall-stem
p126
Vvmlinuz
p127
sVbootloaders
p128
(lp129
Vgrub-pc
p130
aVextlinux
p131
aVgrub-efi-ia32
p132
asVbreaks
p133
Vxserver-xorg-input-vmmouse (<< 1:13.0.99)
p134
ss(Vdescription
p135
g14
g35
Vaptosid-amd64
p136
tp137
(dp138
Vparts
p139
(lp140
Vxen
p141
ass(Vimage
p142
tp143
(dp144
Vinitramfs-generators
p145
(lp146
Vinitramfs-tools
p147
aVinitramfs-fallback
p148
asstp149
Rp150
.