ccopy_reg
_reconstructor
p0
(cdebian_linux.config
ConfigCore
p1
c__builtin__
dict
p2
(dp3
(Vdescription
p4
Vamd64
p5
Vnone
p6
Vaptosid-amd64
p7
tp8
(dp9
Vparts
p10
(lp11
Vxen
p12
ass(Vbase
p13
Vi386
p14
tp15
(dp16
Vfeaturesets
p17
(lp18
Vnone
p19
aVnone
p20
asVkernel-arch
p21
Vx86
p22
ss(Vbuild
p23
g5
tp24
(dp25
Vimage-file
p26
Varch/x86/boot/bzImage
p27
sVdebug-info
p28
I00
ss(Vimage
p29
tp30
(dp31
Vinitramfs-generators
p32
(lp33
Vinitramfs-tools
p34
aVinitramfs-fallback
p35
ass(Vbase
p36
tp37
(dp38
Vfeaturesets
p39
(lp40
Vnone
p41
asVcompiler
p42
Vgcc-6
p43
sVarches
p44
(lp45
Vamd64
p46
aVi386
p47
ass(Vrelations
p48
tp49
(dp50
Vgcc-6
p51
Vgcc-6
p52
sVinitramfs-fallback
p53
Vlinux-initramfs-tool
p54
sVinitramfs-tools
p55
Vinitramfs-tools (>= 0.121~)
p56
ss(Vbase
p57
g5
tp58
(dp59
Vfeaturesets
p60
(lp61
g19
ag6
asVkernel-arch
p62
Vx86
p63
ss(Vbuild
p64
g14
tp65
(dp66
Vimage-file
p67
Varch/x86/boot/bzImage
p68
sVdebug-info
p69
I00
ss(Vdescription
p70
g5
NVaptosid-amd64
p71
tp72
(dp73
Vhardware-long
p74
VPCs with AMD64 or Intel 64 processors
p75
sVhardware
p76
V64-bit PCs
p77
ss(Vdescription
p78
g14
NVaptosid-686
p79
tp80
(dp81
Vhardware-long
p82
VPCs with Intel Pentium Pro/II/III/4/4M/D/M, Xeon, Celeron, Core or Atom; AMD Geode LX/NX, Athlon (K7), Duron, Opteron, Sempron, Turion or Phenom; Transmeta Efficeon; VIA C3 "Nehemiah" or C7 processors
p83
sVhardware
p84
Vmodern PCs
p85
ss(Vimage
p86
g14
tp87
(dp88
Vbreaks
p89
Vxserver-xorg-input-vmmouse (<< 1:13.0.99)
p90
sVbootloaders
p91
(lp92
Vgrub-pc
p93
aVextlinux
p94
aVgrub-efi-ia32
p95
asVsuggests
p96
Vcrda
p97
sVinstall-stem
p98
Vvmlinuz
p99
ss(Vimage
p100
g5
tp101
(dp102
Vbreaks
p103
Vxserver-xorg-input-vmmouse (<< 1:13.0.99)
p104
sVbootloaders
p105
(lp106
Vgrub-pc
p107
aVextlinux
p108
aVgrub-efi-amd64
p109
asVsuggests
p110
Vcrda
p111
sVinstall-stem
p112
Vvmlinuz
p113
ss(Vversion
p114
tp115
(dp116
Vabiname_base
p117
V4.9.0
p118
sVupstream
p119
V4.9
p120
sVsource
p121
V4.9-11
p122
sVabiname
p123
V4.9.0-6.slh.1
p124
ss(Vabi
p125
tp126
(dp127
Vabiname
p128
V6.slh.1
p129
ss(Vbase
p130
g14
g20
tp131
(dp132
Vflavours
p133
(lp134
Vaptosid-686
p135
asVimplicit-flavour
p136
I01
ss(Vbase
p137
g5
g6
tp138
(dp139
g133
(lp140
Vaptosid-amd64
p141
asg136
I01
ss(Vdescription
p142
tp143
(dp144
Vpart-long-xen
p145
VThis kernel also runs on a Xen hypervisor.\u000aIt supports both privileged (dom0) and unprivileged (domU) operation.
p146
sVpart-long-up
p147
VThis kernel is not suitable for SMP (multi-processor,\u000amulti-core or hyper-threaded) systems.
p148
sstp149
Rp150
.