ccopy_reg
_reconstructor
p0
(cdebian_linux.config
ConfigCore
p1
c__builtin__
dict
p2
(dp3
(Vversion
p4
tp5
(dp6
Vabiname
p7
V4.11.0-7.slh.2
p8
sVupstream
p9
V4.11
p10
sVsource
p11
V4.11-15
p12
sVabiname_base
p13
V4.11.0
p14
ss(Vdescription
p15
Vamd64
p16
Vnone
p17
Vaptosid-amd64
p18
tp19
(dp20
Vparts
p21
(lp22
Vxen
p23
ass(Vbase
p24
Vi386
p25
Vnone
p26
tp27
(dp28
Vflavours
p29
(lp30
Vaptosid-686
p31
asVimplicit-flavour
p32
I01
ss(Vbuild
p33
g25
tp34
(dp35
Vdebug-info
p36
I00
sVimage-file
p37
Varch/x86/boot/bzImage
p38
ss(Vbase
p39
g25
tp40
(dp41
Vkernel-arch
p42
Vx86
p43
sVfeaturesets
p44
(lp45
Vnone
p46
ag26
ass(Vbase
p47
tp48
(dp49
Varches
p50
(lp51
Vamd64
p52
aVi386
p53
asVcompiler
p54
Vgcc-6
p55
sVfeaturesets
p56
(lp57
Vnone
p58
ass(Vimage
p59
g16
tp60
(dp61
Vinstall-stem
p62
Vvmlinuz
p63
sVbreaks
p64
Vxserver-xorg-input-vmmouse (<< 1:13.0.99)
p65
sVbootloaders
p66
(lp67
Vgrub-pc
p68
aVextlinux
p69
aVgrub-efi-amd64
p70
asVsuggests
p71
Vcrda
p72
ss(Vdescription
p73
g16
NVaptosid-amd64
p74
tp75
(dp76
Vhardware
p77
V64-bit PCs
p78
sVhardware-long
p79
VPCs with AMD64 or Intel 64 processors
p80
ss(Vbase
p81
g16
g17
tp82
(dp83
g29
(lp84
Vaptosid-amd64
p85
asg32
I01
ss(Vrelations
p86
tp87
(dp88
Vinitramfs-fallback
p89
Vlinux-initramfs-tool
p90
sVgcc-6
p91
Vgcc-6
p92
sVinitramfs-tools
p93
Vinitramfs-tools (>= 0.121~)
p94
ss(Vbuild
p95
g16
tp96
(dp97
Vdebug-info
p98
I00
sVimage-file
p99
Varch/x86/boot/bzImage
p100
ss(Vbase
p101
g16
tp102
(dp103
Vkernel-arch
p104
Vx86
p105
sVfeaturesets
p106
(lp107
g46
ag17
ass(Vabi
p108
tp109
(dp110
Vabiname
p111
V7.slh.2
p112
ss(Vimage
p113
tp114
(dp115
Vinitramfs-generators
p116
(lp117
Vinitramfs-tools
p118
aVinitramfs-fallback
p119
ass(Vdescription
p120
tp121
(dp122
Vpart-long-up
p123
VThis kernel is not suitable for SMP (multi-processor,\u000amulti-core or hyper-threaded) systems.
p124
sVpart-long-xen
p125
VThis kernel also runs on a Xen hypervisor.\u000aIt supports both privileged (dom0) and unprivileged (domU) operation.
p126
ss(Vimage
p127
g25
tp128
(dp129
Vinstall-stem
p130
Vvmlinuz
p131
sVbreaks
p132
Vxserver-xorg-input-vmmouse (<< 1:13.0.99)
p133
sVbootloaders
p134
(lp135
Vgrub-pc
p136
aVextlinux
p137
aVgrub-efi-ia32
p138
asVsuggests
p139
Vcrda
p140
ss(Vdescription
p141
g25
NVaptosid-686
p142
tp143
(dp144
Vhardware
p145
Vmodern PCs
p146
sVhardware-long
p147
VPCs with Intel Pentium Pro/II/III/4/4M/D/M, Xeon, Celeron, Core or Atom; AMD Geode LX/NX, Athlon (K7), Duron, Opteron, Sempron, Turion or Phenom; Transmeta Efficeon; VIA C3 "Nehemiah" or C7 processors
p148
sstp149
Rp150
.