ccopy_reg
_reconstructor
p0
(cdebian_linux.config
ConfigCore
p1
c__builtin__
dict
p2
(dp3
(Vimage
p4
Vamd64
p5
NVaptosid-amd64
p6
tp7
(dp8
Vconfigs
p9
(lp10
Vkernelarch-x86/config-arch-64
p11
ass(Vbase
p12
tp13
(dp14
Varches
p15
(lp16
Vamd64
p17
aVi386
p18
asVfeaturesets
p19
(lp20
Vnone
p21
asVcompiler
p22
Vgcc-5
p23
ss(Vabi
p24
tp25
(dp26
Vabiname
p27
V4.slh.1
p28
ss(Vimage
p29
Vi386
p30
tp31
(dp32
Vconfigs
p33
(lp34
sVbootloaders
p35
(lp36
Vgrub-pc
p37
aVextlinux
p38
aVgrub-efi-ia32
p39
asVinstall-stem
p40
Vvmlinuz
p41
sVsuggests
p42
Vcrda
p43
ss(Vdescription
p44
g5
NVaptosid-amd64
p45
tp46
(dp47
Vhardware-long
p48
VPCs with AMD64 or Intel 64 processors
p49
sVhardware
p50
V64-bit PCs
p51
ss(Vdescription
p52
tp53
(dp54
Vpart-long-up
p55
VThis kernel is not suitable for SMP (multi-processor,\u000amulti-core or hyper-threaded) systems.
p56
sVpart-long-xen
p57
VThis kernel also runs on a Xen hypervisor.\u000aIt supports both privileged (dom0) and unprivileged (domU) operation.
p58
ss(Vbuild
p59
g5
tp60
(dp61
Vdebug-info
p62
I00
sVimage-file
p63
Varch/x86/boot/bzImage
p64
ss(Vimage
p65
tp66
(dp67
Vtype
p68
Vplain
p69
sVinitramfs-generators
p70
(lp71
Vinitramfs-tools
p72
aVinitramfs-fallback
p73
ass(Vbase
p74
g5
Vnone
p75
tp76
(dp77
Vimplicit-flavour
p78
I01
sVflavours
p79
(lp80
Vaptosid-amd64
p81
ass(Vversion
p82
tp83
(dp84
Vabiname
p85
V4.4.0-4.slh.1
p86
sVabiname_base
p87
V4.4.0
p88
sVsource
p89
V4.4-15
p90
sVupstream
p91
V4.4
p92
ss(Vimage
p93
g5
tp94
(dp95
Vconfigs
p96
(lp97
sVbootloaders
p98
(lp99
Vgrub-pc
p100
aVextlinux
p101
aVgrub-efi-amd64
p102
asVinstall-stem
p103
Vvmlinuz
p104
sVsuggests
p105
Vcrda
p106
ss(Vxen
p107
g5
g75
Vaptosid-amd64
p108
tp109
(dp110
Vflavours
p111
(lp112
Vaptosid-amd64
p113
ass(Vrelations
p114
tp115
(dp116
Vgcc-5
p117
Vgcc-5
p118
sVinitramfs-tools
p119
Vinitramfs-tools (>= 0.118+c0.aptosid.1~)
p120
sVinitramfs-fallback
p121
Vlinux-initramfs-tool
p122
ss(Vbase
p123
g5
tp124
(dp125
Vkernel-arch
p126
Vx86
p127
sVfeaturesets
p128
(lp129
Vnone
p130
ag75
ass(Vbase
p131
g30
tp132
(dp133
Vkernel-arch
p134
Vx86
p135
sVfeaturesets
p136
(lp137
g130
aVnone
p138
ass(Vdescription
p139
g5
g75
Vaptosid-amd64
p140
tp141
(dp142
Vparts
p143
(lp144
Vxen
p145
ass(Vdescription
p146
g30
NVaptosid-686
p147
tp148
(dp149
Vhardware-long
p150
VPCs with Intel Pentium Pro/II/III/4/4M/D/M, Xeon, Celeron, Core or Atom; AMD Geode LX/NX, Athlon (K7), Duron, Opteron, Sempron, Turion or Phenom; Transmeta Efficeon; VIA C3 "Nehemiah" or C7 processors
p151
sVhardware
p152
Vmodern PCs
p153
ss(Vbase
p154
g30
g138
tp155
(dp156
g78
I01
sg79
(lp157
Vaptosid-686
p158
ass(Vimage
p159
g30
NVaptosid-686
p160
tp161
(dp162
Vconfigs
p163
(lp164
Vkernelarch-x86/config-arch-32
p165
asVrecommends
p166
Vlibc6-i686
p167
ss(Vbuild
p168
g30
tp169
(dp170
Vdebug-info
p171
I00
sVimage-file
p172
Varch/x86/boot/bzImage
p173
sstp174
Rp175
.