ccopy_reg
_reconstructor
p0
(cdebian_linux.config
ConfigCore
p1
c__builtin__
dict
p2
(dp3
(Vimage
p4
Vi386
p5
tp6
(dp7
Vinstall-stem
p8
Vvmlinuz
p9
sVconfigs
p10
(lp11
sVsuggests
p12
Vcrda
p13
sVbootloaders
p14
(lp15
Vgrub-pc
p16
aVextlinux
p17
aVgrub-efi-ia32
p18
ass(Vdescription
p19
tp20
(dp21
Vpart-long-up
p22
VThis kernel is not suitable for SMP (multi-processor,\u000amulti-core or hyper-threaded) systems.
p23
sVpart-long-xen
p24
VThis kernel also runs on a Xen hypervisor.\u000aIt supports both privileged (dom0) and unprivileged (domU) operation.
p25
ss(Vdescription
p26
g5
NVaptosid-686
p27
tp28
(dp29
Vhardware-long
p30
VPCs with Intel Pentium Pro/II/III/4/4M/D/M, Xeon, Celeron, Core or Atom; AMD Geode LX/NX, Athlon (K7), Duron, Opteron, Sempron, Turion or Phenom; Transmeta Efficeon; VIA C3 "Nehemiah" or C7 processors
p31
sVhardware
p32
Vmodern PCs
p33
ss(Vbase
p34
Vamd64
p35
tp36
(dp37
Vfeaturesets
p38
(lp39
Vnone
p40
aVnone
p41
asVkernel-arch
p42
Vx86
p43
ss(Vimage
p44
g35
tp45
(dp46
Vinstall-stem
p47
Vvmlinuz
p48
sVconfigs
p49
(lp50
sVsuggests
p51
Vcrda
p52
sVbootloaders
p53
(lp54
Vgrub-pc
p55
aVextlinux
p56
aVgrub-efi-amd64
p57
ass(Vbase
p58
tp59
(dp60
Vcompiler
p61
Vgcc-5
p62
sVfeaturesets
p63
(lp64
Vnone
p65
asVarches
p66
(lp67
Vamd64
p68
aVi386
p69
ass(Vxen
p70
g35
g41
Vaptosid-amd64
p71
tp72
(dp73
Vflavours
p74
(lp75
Vaptosid-amd64
p76
ass(Vbase
p77
g35
g41
tp78
(dp79
Vflavours
p80
(lp81
Vaptosid-amd64
p82
asVimplicit-flavour
p83
I01
ss(Vdescription
p84
g35
NVaptosid-amd64
p85
tp86
(dp87
Vhardware-long
p88
VPCs with AMD64 or Intel 64 processors
p89
sVhardware
p90
V64-bit PCs
p91
ss(Vversion
p92
tp93
(dp94
Vabiname_base
p95
V4.4.0
p96
sVupstream
p97
V4.4
p98
sVabiname
p99
V4.4.0-0.slh.1
p100
sVsource
p101
V4.4-1
p102
ss(Vabi
p103
tp104
(dp105
Vabiname
p106
V0.slh.1
p107
ss(Vdescription
p108
g35
g41
Vaptosid-amd64
p109
tp110
(dp111
Vparts
p112
(lp113
Vxen
p114
ass(Vimage
p115
tp116
(dp117
Vtype
p118
Vplain
p119
sVinitramfs-generators
p120
(lp121
Vinitramfs-tools
p122
aVinitramfs-fallback
p123
ass(Vrelations
p124
tp125
(dp126
Vgcc-5
p127
Vgcc-5
p128
sVinitramfs-fallback
p129
Vlinux-initramfs-tool
p130
sVinitramfs-tools
p131
Vinitramfs-tools (>= 0.118+c0.aptosid.1~)
p132
ss(Vimage
p133
g5
NVaptosid-686
p134
tp135
(dp136
Vrecommends
p137
Vlibc6-i686
p138
sVconfigs
p139
(lp140
Vkernelarch-x86/config-arch-32
p141
ass(Vbase
p142
g5
tp143
(dp144
Vfeaturesets
p145
(lp146
g40
aVnone
p147
asVkernel-arch
p148
Vx86
p149
ss(Vbuild
p150
g35
tp151
(dp152
Vimage-file
p153
Varch/x86/boot/bzImage
p154
sVdebug-info
p155
I00
ss(Vbuild
p156
g5
tp157
(dp158
Vimage-file
p159
Varch/x86/boot/bzImage
p160
sVdebug-info
p161
I00
ss(Vbase
p162
g5
g147
tp163
(dp164
g80
(lp165
Vaptosid-686
p166
asg83
I01
ss(Vimage
p167
g35
NVaptosid-amd64
p168
tp169
(dp170
Vconfigs
p171
(lp172
Vkernelarch-x86/config-arch-64
p173
asstp174
Rp175
.