ccopy_reg
_reconstructor
p0
(cdebian_linux.config
ConfigCore
p1
c__builtin__
dict
p2
(dp3
(Vdescription
p4
Vi386
p5
NVaptosid-686
p6
tp7
(dp8
Vhardware-long
p9
VPCs with Intel Pentium Pro/II/III/4/4M/D/M, Xeon, Celeron, Core or Atom; AMD Geode LX/NX, Athlon (K7), Duron, Opteron, Sempron, Turion or Phenom; Transmeta Efficeon; VIA C3 "Nehemiah" or C7 processors
p10
sVhardware
p11
Vmodern PCs
p12
ss(Vbase
p13
Vamd64
p14
tp15
(dp16
Vfeaturesets
p17
(lp18
Vnone
p19
aVnone
p20
asVkernel-arch
p21
Vx86
p22
ss(Vdescription
p23
g14
NVaptosid-amd64
p24
tp25
(dp26
Vhardware-long
p27
VPCs with AMD64 or Intel 64 processors
p28
sVhardware
p29
V64-bit PCs
p30
ss(Vbuild
p31
g5
tp32
(dp33
Vdebug-info
p34
I00
sVimage-file
p35
Varch/x86/boot/bzImage
p36
ss(Vdescription
p37
g14
g20
Vaptosid-amd64
p38
tp39
(dp40
Vparts
p41
(lp42
Vxen
p43
ass(Vxen
p44
g14
g20
Vaptosid-amd64
p45
tp46
(dp47
Vflavours
p48
(lp49
Vaptosid-amd64
p50
ass(Vimage
p51
g5
tp52
(dp53
Vinstall-stem
p54
Vvmlinuz
p55
sVbootloaders
p56
(lp57
Vgrub-pc
p58
aVextlinux
p59
aVgrub-efi-ia32
p60
asVbreaks
p61
Vxserver-xorg-input-vmmouse (<< 1:13.0.99)
p62
sVsuggests
p63
Vcrda
p64
ss(Vabi
p65
tp66
(dp67
Vabiname
p68
V2.slh.3
p69
ss(Vbase
p70
g14
g20
tp71
(dp72
Vimplicit-flavour
p73
I01
sVflavours
p74
(lp75
Vaptosid-amd64
p76
ass(Vbase
p77
g5
tp78
(dp79
Vfeaturesets
p80
(lp81
g19
aVnone
p82
asVkernel-arch
p83
Vx86
p84
ss(Vdescription
p85
tp86
(dp87
Vpart-long-up
p88
VThis kernel is not suitable for SMP (multi-processor,\u000amulti-core or hyper-threaded) systems.
p89
sVpart-long-xen
p90
VThis kernel also runs on a Xen hypervisor.\u000aIt supports both privileged (dom0) and unprivileged (domU) operation.
p91
ss(Vrelations
p92
tp93
(dp94
Vgcc-6
p95
Vgcc-6
p96
sVinitramfs-tools
p97
Vinitramfs-tools (>= 0.121~)
p98
sVinitramfs-fallback
p99
Vlinux-initramfs-tool
p100
ss(Vimage
p101
tp102
(dp103
Vinitramfs-generators
p104
(lp105
Vinitramfs-tools
p106
aVinitramfs-fallback
p107
ass(Vbase
p108
g5
g82
tp109
(dp110
g73
I01
sg74
(lp111
Vaptosid-686
p112
ass(Vbase
p113
tp114
(dp115
Varches
p116
(lp117
Vamd64
p118
aVi386
p119
asVfeaturesets
p120
(lp121
Vnone
p122
asVcompiler
p123
Vgcc-6
p124
ss(Vimage
p125
g14
tp126
(dp127
Vinstall-stem
p128
Vvmlinuz
p129
sVbootloaders
p130
(lp131
Vgrub-pc
p132
aVextlinux
p133
aVgrub-efi-amd64
p134
asVbreaks
p135
Vxserver-xorg-input-vmmouse (<< 1:13.0.99)
p136
sVsuggests
p137
Vcrda
p138
ss(Vversion
p139
tp140
(dp141
Vupstream
p142
V4.7
p143
sVsource
p144
V4.7-12
p145
sVabiname_base
p146
V4.7.0
p147
sVabiname
p148
V4.7.0-2.slh.3
p149
ss(Vbuild
p150
g14
tp151
(dp152
Vdebug-info
p153
I00
sVimage-file
p154
Varch/x86/boot/bzImage
p155
sstp156
Rp157
.