ccopy_reg
_reconstructor
p0
(cdebian_linux.config
ConfigCore
p1
c__builtin__
dict
p2
(dp3
(Vabi
p4
tp5
(dp6
Vabiname
p7
V11.slh.1
p8
ss(Vimage
p9
Vi386
p10
tp11
(dp12
Vinstall-stem
p13
Vvmlinuz
p14
sVbreaks
p15
Vxserver-xorg-input-vmmouse (<< 1:13.0.99)
p16
sVsuggests
p17
Vcrda
p18
sVbootloaders
p19
(lp20
Vgrub-pc
p21
aVextlinux
p22
aVgrub-efi-ia32
p23
ass(Vdescription
p24
g10
NVaptosid-686
p25
tp26
(dp27
Vhardware
p28
Vmodern PCs
p29
sVhardware-long
p30
VPCs with Intel Pentium Pro/II/III/4/4M/D/M, Xeon, Celeron, Core or Atom; AMD Geode LX/NX, Athlon (K7), Duron, Opteron, Sempron, Turion or Phenom; Transmeta Efficeon; VIA C3 "Nehemiah" or C7 processors
p31
ss(Vrelations
p32
tp33
(dp34
Vgcc-6
p35
Vgcc-6
p36
sVinitramfs-tools
p37
Vinitramfs-tools (>= 0.121~)
p38
sVinitramfs-fallback
p39
Vlinux-initramfs-tool
p40
ss(Vversion
p41
tp42
(dp43
Vabiname
p44
V4.9.0-11.slh.1
p45
sVabiname_base
p46
V4.9.0
p47
sVsource
p48
V4.9-18
p49
sVupstream
p50
V4.9
p51
ss(Vbase
p52
tp53
(dp54
Vcompiler
p55
Vgcc-6
p56
sVarches
p57
(lp58
Vamd64
p59
aVi386
p60
asVfeaturesets
p61
(lp62
Vnone
p63
ass(Vbuild
p64
g10
tp65
(dp66
Vimage-file
p67
Varch/x86/boot/bzImage
p68
sVdebug-info
p69
I00
ss(Vbase
p70
g10
Vnone
p71
tp72
(dp73
Vflavours
p74
(lp75
Vaptosid-686
p76
asVimplicit-flavour
p77
I01
ss(Vdescription
p78
Vamd64
p79
Vnone
p80
Vaptosid-amd64
p81
tp82
(dp83
Vparts
p84
(lp85
Vxen
p86
ass(Vimage
p87
tp88
(dp89
Vinitramfs-generators
p90
(lp91
Vinitramfs-tools
p92
aVinitramfs-fallback
p93
ass(Vimage
p94
g79
tp95
(dp96
Vinstall-stem
p97
Vvmlinuz
p98
sVbreaks
p99
Vxserver-xorg-input-vmmouse (<< 1:13.0.99)
p100
sVsuggests
p101
Vcrda
p102
sVbootloaders
p103
(lp104
Vgrub-pc
p105
aVextlinux
p106
aVgrub-efi-amd64
p107
ass(Vbase
p108
g79
g80
tp109
(dp110
g74
(lp111
Vaptosid-amd64
p112
asg77
I01
ss(Vbuild
p113
g79
tp114
(dp115
Vimage-file
p116
Varch/x86/boot/bzImage
p117
sVdebug-info
p118
I00
ss(Vbase
p119
g10
tp120
(dp121
Vkernel-arch
p122
Vx86
p123
sVfeaturesets
p124
(lp125
Vnone
p126
ag71
ass(Vdescription
p127
tp128
(dp129
Vpart-long-up
p130
VThis kernel is not suitable for SMP (multi-processor,\u000amulti-core or hyper-threaded) systems.
p131
sVpart-long-xen
p132
VThis kernel also runs on a Xen hypervisor.\u000aIt supports both privileged (dom0) and unprivileged (domU) operation.
p133
ss(Vdescription
p134
g79
NVaptosid-amd64
p135
tp136
(dp137
Vhardware
p138
V64-bit PCs
p139
sVhardware-long
p140
VPCs with AMD64 or Intel 64 processors
p141
ss(Vbase
p142
g79
tp143
(dp144
Vkernel-arch
p145
Vx86
p146
sVfeaturesets
p147
(lp148
g126
ag80
asstp149
Rp150
.