ccopy_reg
_reconstructor
p0
(cdebian_linux.config
ConfigCore
p1
c__builtin__
dict
p2
(dp3
(Vdescription
p4
Vamd64
p5
NVaptosid-amd64
p6
tp7
(dp8
Vhardware-long
p9
VPCs with AMD64 or Intel 64 processors
p10
sVhardware
p11
V64-bit PCs
p12
ss(Vimage
p13
g5
tp14
(dp15
Vinstall-stem
p16
Vvmlinuz
p17
sVsuggests
p18
Vcrda
p19
sVbreaks
p20
Vxserver-xorg-input-vmmouse (<< 1:13.0.99)
p21
sVbootloaders
p22
(lp23
Vgrub-pc
p24
aVextlinux
p25
aVgrub-efi-amd64
p26
ass(Vdescription
p27
tp28
(dp29
Vpart-long-xen
p30
VThis kernel also runs on a Xen hypervisor.\u000aIt supports both privileged (dom0) and unprivileged (domU) operation.
p31
sVpart-long-up
p32
VThis kernel is not suitable for SMP (multi-processor,\u000amulti-core or hyper-threaded) systems.
p33
ss(Vimage
p34
Vi386
p35
tp36
(dp37
Vinstall-stem
p38
Vvmlinuz
p39
sVsuggests
p40
Vcrda
p41
sVbreaks
p42
Vxserver-xorg-input-vmmouse (<< 1:13.0.99)
p43
sVbootloaders
p44
(lp45
Vgrub-pc
p46
aVextlinux
p47
aVgrub-efi-ia32
p48
ass(Vbase
p49
g35
tp50
(dp51
Vkernel-arch
p52
Vx86
p53
sVfeaturesets
p54
(lp55
Vnone
p56
aVnone
p57
ass(Vbase
p58
g5
tp59
(dp60
Vkernel-arch
p61
Vx86
p62
sVfeaturesets
p63
(lp64
g56
aVnone
p65
ass(Vbase
p66
g5
g65
tp67
(dp68
Vimplicit-flavour
p69
I01
sVflavours
p70
(lp71
Vaptosid-amd64
p72
ass(Vdescription
p73
g5
g65
Vaptosid-amd64
p74
tp75
(dp76
Vparts
p77
(lp78
Vxen
p79
ass(Vdescription
p80
g35
NVaptosid-686
p81
tp82
(dp83
Vhardware-long
p84
VPCs with Intel Pentium Pro/II/III/4/4M/D/M, Xeon, Celeron, Core or Atom; AMD Geode LX/NX, Athlon (K7), Duron, Opteron, Sempron, Turion or Phenom; Transmeta Efficeon; VIA C3 "Nehemiah" or C7 processors
p85
sVhardware
p86
Vmodern PCs
p87
ss(Vimage
p88
tp89
(dp90
Vinitramfs-generators
p91
(lp92
Vinitramfs-tools
p93
aVinitramfs-fallback
p94
ass(Vversion
p95
tp96
(dp97
Vupstream
p98
V4.8
p99
sVsource
p100
V4.8-25
p101
sVabiname
p102
V4.8.0-14.slh.2
p103
sVabiname_base
p104
V4.8.0
p105
ss(Vrelations
p106
tp107
(dp108
Vinitramfs-fallback
p109
Vlinux-initramfs-tool
p110
sVgcc-6
p111
Vgcc-6
p112
sVinitramfs-tools
p113
Vinitramfs-tools (>= 0.121~)
p114
ss(Vxen
p115
g5
g65
Vaptosid-amd64
p116
tp117
(dp118
Vflavours
p119
(lp120
Vaptosid-amd64
p121
ass(Vbuild
p122
g5
tp123
(dp124
Vimage-file
p125
Varch/x86/boot/bzImage
p126
sVdebug-info
p127
I00
ss(Vabi
p128
tp129
(dp130
Vabiname
p131
V14.slh.2
p132
ss(Vbuild
p133
g35
tp134
(dp135
Vimage-file
p136
Varch/x86/boot/bzImage
p137
sVdebug-info
p138
I00
ss(Vbase
p139
g35
g57
tp140
(dp141
g69
I01
sg70
(lp142
Vaptosid-686
p143
ass(Vbase
p144
tp145
(dp146
Varches
p147
(lp148
Vamd64
p149
aVi386
p150
asVcompiler
p151
Vgcc-6
p152
sVfeaturesets
p153
(lp154
Vnone
p155
asstp156
Rp157
.