ccopy_reg
_reconstructor
p0
(cdebian_linux.config
ConfigCore
p1
c__builtin__
dict
p2
(dp3
(Vversion
p4
tp5
(dp6
Vsource
p7
V4.4-13
p8
sVupstream
p9
V4.4
p10
sVabiname_base
p11
V4.4.0
p12
sVabiname
p13
V4.4.0-3.slh.1
p14
ss(Vbase
p15
Vamd64
p16
tp17
(dp18
Vfeaturesets
p19
(lp20
Vnone
p21
aVnone
p22
asVkernel-arch
p23
Vx86
p24
ss(Vrelations
p25
tp26
(dp27
Vinitramfs-fallback
p28
Vlinux-initramfs-tool
p29
sVgcc-5
p30
Vgcc-5
p31
sVinitramfs-tools
p32
Vinitramfs-tools (>= 0.118+c0.aptosid.1~)
p33
ss(Vxen
p34
g16
g22
Vaptosid-amd64
p35
tp36
(dp37
Vflavours
p38
(lp39
Vaptosid-amd64
p40
ass(Vimage
p41
g16
NVaptosid-amd64
p42
tp43
(dp44
Vconfigs
p45
(lp46
Vkernelarch-x86/config-arch-64
p47
ass(Vabi
p48
tp49
(dp50
Vabiname
p51
V3.slh.1
p52
ss(Vimage
p53
g16
tp54
(dp55
Vbootloaders
p56
(lp57
Vgrub-pc
p58
aVextlinux
p59
aVgrub-efi-amd64
p60
asVsuggests
p61
Vcrda
p62
sVconfigs
p63
(lp64
sVinstall-stem
p65
Vvmlinuz
p66
ss(Vbase
p67
Vi386
p68
tp69
(dp70
Vfeaturesets
p71
(lp72
g21
aVnone
p73
asVkernel-arch
p74
Vx86
p75
ss(Vdescription
p76
tp77
(dp78
Vpart-long-up
p79
VThis kernel is not suitable for SMP (multi-processor,\u000amulti-core or hyper-threaded) systems.
p80
sVpart-long-xen
p81
VThis kernel also runs on a Xen hypervisor.\u000aIt supports both privileged (dom0) and unprivileged (domU) operation.
p82
ss(Vbase
p83
g16
g22
tp84
(dp85
Vimplicit-flavour
p86
I01
sVflavours
p87
(lp88
Vaptosid-amd64
p89
ass(Vimage
p90
g68
tp91
(dp92
Vbootloaders
p93
(lp94
Vgrub-pc
p95
aVextlinux
p96
aVgrub-efi-ia32
p97
asVsuggests
p98
Vcrda
p99
sVconfigs
p100
(lp101
sVinstall-stem
p102
Vvmlinuz
p103
ss(Vbase
p104
tp105
(dp106
Vfeaturesets
p107
(lp108
Vnone
p109
asVarches
p110
(lp111
Vamd64
p112
aVi386
p113
asVcompiler
p114
Vgcc-5
p115
ss(Vimage
p116
tp117
(dp118
Vinitramfs-generators
p119
(lp120
Vinitramfs-tools
p121
aVinitramfs-fallback
p122
asVtype
p123
Vplain
p124
ss(Vbuild
p125
g16
tp126
(dp127
Vdebug-info
p128
I00
sVimage-file
p129
Varch/x86/boot/bzImage
p130
ss(Vbase
p131
g68
g73
tp132
(dp133
g86
I01
sg87
(lp134
Vaptosid-686
p135
ass(Vdescription
p136
g68
NVaptosid-686
p137
tp138
(dp139
Vhardware
p140
Vmodern PCs
p141
sVhardware-long
p142
VPCs with Intel Pentium Pro/II/III/4/4M/D/M, Xeon, Celeron, Core or Atom; AMD Geode LX/NX, Athlon (K7), Duron, Opteron, Sempron, Turion or Phenom; Transmeta Efficeon; VIA C3 "Nehemiah" or C7 processors
p143
ss(Vdescription
p144
g16
NVaptosid-amd64
p145
tp146
(dp147
Vhardware
p148
V64-bit PCs
p149
sVhardware-long
p150
VPCs with AMD64 or Intel 64 processors
p151
ss(Vbuild
p152
g68
tp153
(dp154
Vdebug-info
p155
I00
sVimage-file
p156
Varch/x86/boot/bzImage
p157
ss(Vimage
p158
g68
NVaptosid-686
p159
tp160
(dp161
Vrecommends
p162
Vlibc6-i686
p163
sVconfigs
p164
(lp165
Vkernelarch-x86/config-arch-32
p166
ass(Vdescription
p167
g16
g22
Vaptosid-amd64
p168
tp169
(dp170
Vparts
p171
(lp172
Vxen
p173
asstp174
Rp175
.