ccopy_reg
_reconstructor
p0
(cdebian_linux.config
ConfigCore
p1
c__builtin__
dict
p2
(dp3
(Vdescription
p4
Vamd64
p5
NVaptosid-amd64
p6
tp7
(dp8
Vhardware-long
p9
VPCs with AMD64 or Intel 64 processors
p10
sVhardware
p11
V64-bit PCs
p12
ss(Vimage
p13
g5
tp14
(dp15
Vbootloaders
p16
(lp17
Vgrub-pc
p18
aVextlinux
p19
aVgrub-efi-amd64
p20
asVbreaks
p21
Vxserver-xorg-input-vmmouse (<< 1:13.0.99)
p22
sVinstall-stem
p23
Vvmlinuz
p24
sVsuggests
p25
Vcrda
p26
ss(Vabi
p27
tp28
(dp29
Vabiname
p30
V0.slh.3
p31
ss(Vbase
p32
g5
Vnone
p33
tp34
(dp35
Vimplicit-flavour
p36
I01
sVflavours
p37
(lp38
Vaptosid-amd64
p39
ass(Vimage
p40
Vi386
p41
tp42
(dp43
Vbootloaders
p44
(lp45
Vgrub-pc
p46
aVextlinux
p47
aVgrub-efi-ia32
p48
asVbreaks
p49
Vxserver-xorg-input-vmmouse (<< 1:13.0.99)
p50
sVinstall-stem
p51
Vvmlinuz
p52
sVsuggests
p53
Vcrda
p54
ss(Vdescription
p55
g41
NVaptosid-686
p56
tp57
(dp58
Vhardware-long
p59
VPCs with Intel Pentium Pro/II/III/4/4M/D/M, Xeon, Celeron, Core or Atom; AMD Geode LX/NX, Athlon (K7), Duron, Opteron, Sempron, Turion or Phenom; Transmeta Efficeon; VIA C3 "Nehemiah" or C7 processors
p60
sVhardware
p61
Vmodern PCs
p62
ss(Vdescription
p63
g5
g33
Vaptosid-amd64
p64
tp65
(dp66
Vparts
p67
(lp68
Vxen
p69
ass(Vbuild
p70
g5
tp71
(dp72
Vimage-file
p73
Varch/x86/boot/bzImage
p74
sVdebug-info
p75
I00
ss(Vdescription
p76
tp77
(dp78
Vpart-long-up
p79
VThis kernel is not suitable for SMP (multi-processor,\u000amulti-core or hyper-threaded) systems.
p80
sVpart-long-xen
p81
VThis kernel also runs on a Xen hypervisor.\u000aIt supports both privileged (dom0) and unprivileged (domU) operation.
p82
ss(Vbase
p83
g41
tp84
(dp85
Vfeaturesets
p86
(lp87
Vnone
p88
aVnone
p89
asVkernel-arch
p90
Vx86
p91
ss(Vrelations
p92
tp93
(dp94
Vinitramfs-fallback
p95
Vlinux-initramfs-tool
p96
sVgcc-6
p97
Vgcc-6
p98
sVinitramfs-tools
p99
Vinitramfs-tools (>= 0.121~)
p100
ss(Vbuild
p101
g41
tp102
(dp103
Vimage-file
p104
Varch/x86/boot/bzImage
p105
sVdebug-info
p106
I00
ss(Vbase
p107
tp108
(dp109
Varches
p110
(lp111
Vamd64
p112
aVi386
p113
asVfeaturesets
p114
(lp115
Vnone
p116
asVcompiler
p117
Vgcc-6
p118
ss(Vxen
p119
g5
g33
Vaptosid-amd64
p120
tp121
(dp122
Vflavours
p123
(lp124
Vaptosid-amd64
p125
ass(Vbase
p126
g5
tp127
(dp128
Vfeaturesets
p129
(lp130
g88
ag33
asVkernel-arch
p131
Vx86
p132
ss(Vimage
p133
tp134
(dp135
Vinitramfs-generators
p136
(lp137
Vinitramfs-tools
p138
aVinitramfs-fallback
p139
ass(Vversion
p140
tp141
(dp142
Vupstream
p143
V4.8
p144
sVabiname_base
p145
V4.8.0
p146
sVsource
p147
V4.8-3
p148
sVabiname
p149
V4.8.0-0.slh.3
p150
ss(Vbase
p151
g41
g89
tp152
(dp153
g36
I01
sg37
(lp154
Vaptosid-686
p155
asstp156
Rp157
.