ccopy_reg
_reconstructor
p0
(cdebian_linux.config
ConfigCore
p1
c__builtin__
dict
p2
(dp3
(Vbase
p4
Vi386
p5
tp6
(dp7
Vkernel-arch
p8
Vx86
p9
sVfeaturesets
p10
(lp11
Vnone
p12
aVnone
p13
ass(Vimage
p14
Vamd64
p15
tp16
(dp17
Vbreaks
p18
Vxserver-xorg-input-vmmouse (<< 1:13.0.99)
p19
sVsuggests
p20
Vcrda
p21
sVbootloaders
p22
(lp23
Vgrub-pc
p24
aVextlinux
p25
aVgrub-efi-amd64
p26
asVinstall-stem
p27
Vvmlinuz
p28
ss(Vversion
p29
tp30
(dp31
Vupstream
p32
V4.10
p33
sVabiname_base
p34
V4.10.0
p35
sVsource
p36
V4.10-4
p37
sVabiname
p38
V4.10.0-1.slh.1
p39
ss(Vdescription
p40
g15
Vnone
p41
Vaptosid-amd64
p42
tp43
(dp44
Vparts
p45
(lp46
Vxen
p47
ass(Vbuild
p48
g15
tp49
(dp50
Vimage-file
p51
Varch/x86/boot/bzImage
p52
sVdebug-info
p53
I00
ss(Vabi
p54
tp55
(dp56
Vabiname
p57
V1.slh.1
p58
ss(Vdescription
p59
g5
NVaptosid-686
p60
tp61
(dp62
Vhardware-long
p63
VPCs with Intel Pentium Pro/II/III/4/4M/D/M, Xeon, Celeron, Core or Atom; AMD Geode LX/NX, Athlon (K7), Duron, Opteron, Sempron, Turion or Phenom; Transmeta Efficeon; VIA C3 "Nehemiah" or C7 processors
p64
sVhardware
p65
Vmodern PCs
p66
ss(Vimage
p67
tp68
(dp69
Vinitramfs-generators
p70
(lp71
Vinitramfs-tools
p72
aVinitramfs-fallback
p73
ass(Vdescription
p74
g15
NVaptosid-amd64
p75
tp76
(dp77
Vhardware-long
p78
VPCs with AMD64 or Intel 64 processors
p79
sVhardware
p80
V64-bit PCs
p81
ss(Vbase
p82
g5
g13
tp83
(dp84
Vimplicit-flavour
p85
I01
sVflavours
p86
(lp87
Vaptosid-686
p88
ass(Vbase
p89
g15
tp90
(dp91
Vkernel-arch
p92
Vx86
p93
sVfeaturesets
p94
(lp95
g12
ag41
ass(Vimage
p96
g5
tp97
(dp98
Vbreaks
p99
Vxserver-xorg-input-vmmouse (<< 1:13.0.99)
p100
sVsuggests
p101
Vcrda
p102
sVbootloaders
p103
(lp104
Vgrub-pc
p105
aVextlinux
p106
aVgrub-efi-ia32
p107
asVinstall-stem
p108
Vvmlinuz
p109
ss(Vbase
p110
tp111
(dp112
Vfeaturesets
p113
(lp114
Vnone
p115
asVcompiler
p116
Vgcc-6
p117
sVarches
p118
(lp119
Vamd64
p120
aVi386
p121
ass(Vrelations
p122
tp123
(dp124
Vinitramfs-fallback
p125
Vlinux-initramfs-tool
p126
sVinitramfs-tools
p127
Vinitramfs-tools (>= 0.121~)
p128
sVgcc-6
p129
Vgcc-6
p130
ss(Vbuild
p131
g5
tp132
(dp133
Vimage-file
p134
Varch/x86/boot/bzImage
p135
sVdebug-info
p136
I00
ss(Vdescription
p137
tp138
(dp139
Vpart-long-xen
p140
VThis kernel also runs on a Xen hypervisor.\u000aIt supports both privileged (dom0) and unprivileged (domU) operation.
p141
sVpart-long-up
p142
VThis kernel is not suitable for SMP (multi-processor,\u000amulti-core or hyper-threaded) systems.
p143
ss(Vbase
p144
g15
g41
tp145
(dp146
g85
I01
sg86
(lp147
Vaptosid-amd64
p148
asstp149
Rp150
.