ccopy_reg
_reconstructor
p0
(cdebian_linux.config
ConfigCore
p1
c__builtin__
dict
p2
(dp3
(Vabi
p4
tp5
(dp6
Vabiname
p7
V0.slh.2
p8
ss(Vbase
p9
Vi386
p10
Vnone
p11
tp12
(dp13
Vflavours
p14
(lp15
Vaptosid-686
p16
asVimplicit-flavour
p17
I01
ss(Vimage
p18
g10
tp19
(dp20
Vsuggests
p21
Vcrda
p22
sVbreaks
p23
Vxserver-xorg-input-vmmouse (<< 1:13.0.99)
p24
sVbootloaders
p25
(lp26
Vgrub-pc
p27
aVextlinux
p28
aVgrub-efi-ia32
p29
asVinstall-stem
p30
Vvmlinuz
p31
ss(Vbase
p32
Vamd64
p33
tp34
(dp35
Vkernel-arch
p36
Vx86
p37
sVfeaturesets
p38
(lp39
Vnone
p40
aVnone
p41
ass(Vdescription
p42
g10
NVaptosid-686
p43
tp44
(dp45
Vhardware
p46
Vmodern PCs
p47
sVhardware-long
p48
VPCs with Intel Pentium Pro/II/III/4/4M/D/M, Xeon, Celeron, Core or Atom; AMD Geode LX/NX, Athlon (K7), Duron, Opteron, Sempron, Turion or Phenom; Transmeta Efficeon; VIA C3 "Nehemiah" or C7 processors
p49
ss(Vxen
p50
g33
g41
Vaptosid-amd64
p51
tp52
(dp53
Vflavours
p54
(lp55
Vaptosid-amd64
p56
ass(Vbase
p57
tp58
(dp59
Vcompiler
p60
Vgcc-6
p61
sVarches
p62
(lp63
Vamd64
p64
aVi386
p65
asVfeaturesets
p66
(lp67
Vnone
p68
ass(Vrelations
p69
tp70
(dp71
Vgcc-6
p72
Vgcc-6
p73
sVinitramfs-fallback
p74
Vlinux-initramfs-tool
p75
sVinitramfs-tools
p76
Vinitramfs-tools (>= 0.121~)
p77
ss(Vbase
p78
g10
tp79
(dp80
Vkernel-arch
p81
Vx86
p82
sVfeaturesets
p83
(lp84
g40
ag11
ass(Vdescription
p85
g33
NVaptosid-amd64
p86
tp87
(dp88
Vhardware
p89
V64-bit PCs
p90
sVhardware-long
p91
VPCs with AMD64 or Intel 64 processors
p92
ss(Vbase
p93
g33
g41
tp94
(dp95
g14
(lp96
Vaptosid-amd64
p97
asg17
I01
ss(Vimage
p98
g33
tp99
(dp100
Vsuggests
p101
Vcrda
p102
sVbreaks
p103
Vxserver-xorg-input-vmmouse (<< 1:13.0.99)
p104
sVbootloaders
p105
(lp106
Vgrub-pc
p107
aVextlinux
p108
aVgrub-efi-amd64
p109
asVinstall-stem
p110
Vvmlinuz
p111
ss(Vbuild
p112
g10
tp113
(dp114
Vdebug-info
p115
I00
sVimage-file
p116
Varch/x86/boot/bzImage
p117
ss(Vdescription
p118
tp119
(dp120
Vpart-long-up
p121
VThis kernel is not suitable for SMP (multi-processor,\u000amulti-core or hyper-threaded) systems.
p122
sVpart-long-xen
p123
VThis kernel also runs on a Xen hypervisor.\u000aIt supports both privileged (dom0) and unprivileged (domU) operation.
p124
ss(Vimage
p125
tp126
(dp127
Vinitramfs-generators
p128
(lp129
Vinitramfs-tools
p130
aVinitramfs-fallback
p131
ass(Vdescription
p132
g33
g41
Vaptosid-amd64
p133
tp134
(dp135
Vparts
p136
(lp137
Vxen
p138
ass(Vversion
p139
tp140
(dp141
Vabiname
p142
V4.7.0-0.slh.2
p143
sVabiname_base
p144
V4.7.0
p145
sVupstream
p146
V4.7
p147
sVsource
p148
V4.7-4
p149
ss(Vbuild
p150
g33
tp151
(dp152
Vdebug-info
p153
I00
sVimage-file
p154
Varch/x86/boot/bzImage
p155
sstp156
Rp157
.