ccopy_reg
_reconstructor
p0
(cdebian_linux.config
ConfigCore
p1
c__builtin__
dict
p2
(dp3
(Vbase
p4
Vi386
p5
tp6
(dp7
Vfeaturesets
p8
(lp9
Vnone
p10
aVnone
p11
asVkernel-arch
p12
Vx86
p13
ss(Vbase
p14
g5
g11
tp15
(dp16
Vflavours
p17
(lp18
Vaptosid-686
p19
asVimplicit-flavour
p20
I01
ss(Vimage
p21
tp22
(dp23
Vinitramfs-generators
p24
(lp25
Vinitramfs-tools
p26
aVinitramfs-fallback
p27
ass(Vdescription
p28
tp29
(dp30
Vpart-long-xen
p31
VThis kernel also runs on a Xen hypervisor.\u000aIt supports both privileged (dom0) and unprivileged (domU) operation.
p32
sVpart-long-up
p33
VThis kernel is not suitable for SMP (multi-processor,\u000amulti-core or hyper-threaded) systems.
p34
ss(Vimage
p35
Vamd64
p36
tp37
(dp38
Vbootloaders
p39
(lp40
Vgrub-pc
p41
aVextlinux
p42
aVgrub-efi-amd64
p43
asVinstall-stem
p44
Vvmlinuz
p45
sVbreaks
p46
Vxserver-xorg-input-vmmouse (<< 1:13.0.99)
p47
sVsuggests
p48
Vcrda
p49
ss(Vbuild
p50
g5
tp51
(dp52
Vdebug-info
p53
I00
sVimage-file
p54
Varch/x86/boot/bzImage
p55
ss(Vdescription
p56
g36
NVaptosid-amd64
p57
tp58
(dp59
Vhardware
p60
V64-bit PCs
p61
sVhardware-long
p62
VPCs with AMD64 or Intel 64 processors
p63
ss(Vbase
p64
g36
tp65
(dp66
Vfeaturesets
p67
(lp68
g10
aVnone
p69
asVkernel-arch
p70
Vx86
p71
ss(Vabi
p72
tp73
(dp74
Vabiname
p75
V0.slh.1
p76
ss(Vversion
p77
tp78
(dp79
Vsource
p80
V4.9-1
p81
sVabiname
p82
V4.9.0-0.slh.1
p83
sVupstream
p84
V4.9
p85
sVabiname_base
p86
V4.9.0
p87
ss(Vdescription
p88
g36
g69
Vaptosid-amd64
p89
tp90
(dp91
Vparts
p92
(lp93
Vxen
p94
ass(Vbase
p95
tp96
(dp97
Vfeaturesets
p98
(lp99
Vnone
p100
asVarches
p101
(lp102
Vamd64
p103
aVi386
p104
asVcompiler
p105
Vgcc-6
p106
ss(Vbase
p107
g36
g69
tp108
(dp109
g17
(lp110
Vaptosid-amd64
p111
asg20
I01
ss(Vrelations
p112
tp113
(dp114
Vinitramfs-fallback
p115
Vlinux-initramfs-tool
p116
sVgcc-6
p117
Vgcc-6
p118
sVinitramfs-tools
p119
Vinitramfs-tools (>= 0.121~)
p120
ss(Vimage
p121
g5
tp122
(dp123
Vbootloaders
p124
(lp125
Vgrub-pc
p126
aVextlinux
p127
aVgrub-efi-ia32
p128
asVinstall-stem
p129
Vvmlinuz
p130
sVbreaks
p131
Vxserver-xorg-input-vmmouse (<< 1:13.0.99)
p132
sVsuggests
p133
Vcrda
p134
ss(Vbuild
p135
g36
tp136
(dp137
Vdebug-info
p138
I00
sVimage-file
p139
Varch/x86/boot/bzImage
p140
ss(Vdescription
p141
g5
NVaptosid-686
p142
tp143
(dp144
Vhardware
p145
Vmodern PCs
p146
sVhardware-long
p147
VPCs with Intel Pentium Pro/II/III/4/4M/D/M, Xeon, Celeron, Core or Atom; AMD Geode LX/NX, Athlon (K7), Duron, Opteron, Sempron, Turion or Phenom; Transmeta Efficeon; VIA C3 "Nehemiah" or C7 processors
p148
sstp149
Rp150
.