ccopy_reg
_reconstructor
p0
(cdebian_linux.config
ConfigCore
p1
c__builtin__
dict
p2
(dp3
(Vbase
p4
Vi386
p5
tp6
(dp7
Vfeaturesets
p8
(lp9
Vnone
p10
aVnone
p11
asVkernel-arch
p12
Vx86
p13
ss(Vdescription
p14
tp15
(dp16
Vpart-long-xen
p17
VThis kernel also runs on a Xen hypervisor.\u000aIt supports both privileged (dom0) and unprivileged (domU) operation.
p18
sVpart-long-up
p19
VThis kernel is not suitable for SMP (multi-processor,\u000amulti-core or hyper-threaded) systems.
p20
ss(Vdescription
p21
g5
NVaptosid-686
p22
tp23
(dp24
Vhardware-long
p25
VPCs with Intel Pentium Pro/II/III/4/4M/D/M, Xeon, Celeron, Core or Atom; AMD Geode LX/NX, Athlon (K7), Duron, Opteron, Sempron, Turion or Phenom; Transmeta Efficeon; VIA C3 "Nehemiah" or C7 processors
p26
sVhardware
p27
Vmodern PCs
p28
ss(Vrelations
p29
tp30
(dp31
Vinitramfs-fallback
p32
Vlinux-initramfs-tool
p33
sVinitramfs-tools
p34
Vinitramfs-tools (>= 0.121~)
p35
sVgcc-7
p36
Vgcc-7
p37
ss(Vbase
p38
g5
g11
tp39
(dp40
Vimplicit-flavour
p41
I01
sVflavours
p42
(lp43
Vaptosid-686
p44
ass(Vdescription
p45
Vamd64
p46
Vnone
p47
Vaptosid-amd64
p48
tp49
(dp50
Vparts
p51
(lp52
Vxen
p53
ass(Vbuild
p54
g5
tp55
(dp56
Vimage-file
p57
Varch/x86/boot/bzImage
p58
sVdebug-info
p59
I00
ss(Vimage
p60
g46
tp61
(dp62
Vbreaks
p63
Vxserver-xorg-input-vmmouse (<< 1:13.0.99)
p64
sVinstall-stem
p65
Vvmlinuz
p66
sVsuggests
p67
Vcrda
p68
sVbootloaders
p69
(lp70
Vgrub-pc
p71
aVextlinux
p72
aVgrub-efi-amd64
p73
ass(Vbuild
p74
g46
tp75
(dp76
Vimage-file
p77
Varch/x86/boot/bzImage
p78
sVdebug-info
p79
I00
ss(Vabi
p80
tp81
(dp82
Vabiname
p83
V9.slh.2
p84
ss(Vimage
p85
g5
tp86
(dp87
Vbreaks
p88
Vxserver-xorg-input-vmmouse (<< 1:13.0.99)
p89
sVinstall-stem
p90
Vvmlinuz
p91
sVsuggests
p92
Vcrda
p93
sVbootloaders
p94
(lp95
Vgrub-pc
p96
aVextlinux
p97
aVgrub-efi-ia32
p98
ass(Vbase
p99
g46
g47
tp100
(dp101
g41
I01
sg42
(lp102
Vaptosid-amd64
p103
ass(Vimage
p104
tp105
(dp106
Vinitramfs-generators
p107
(lp108
Vinitramfs-tools
p109
aVinitramfs-fallback
p110
ass(Vdescription
p111
g46
NVaptosid-amd64
p112
tp113
(dp114
Vhardware-long
p115
VPCs with AMD64 or Intel 64 processors
p116
sVhardware
p117
V64-bit PCs
p118
ss(Vversion
p119
tp120
(dp121
Vabiname
p122
V4.12.0-9.slh.2
p123
sVsource
p124
V4.12-19
p125
sVupstream
p126
V4.12
p127
sVabiname_base
p128
V4.12.0
p129
ss(Vbase
p130
tp131
(dp132
Vfeaturesets
p133
(lp134
Vnone
p135
asVcompiler
p136
Vgcc-7
p137
sVarches
p138
(lp139
Vamd64
p140
aVi386
p141
ass(Vbase
p142
g46
tp143
(dp144
Vfeaturesets
p145
(lp146
g10
ag47
asVkernel-arch
p147
Vx86
p148
sstp149
Rp150
.