ccopy_reg
_reconstructor
p0
(cdebian_linux.config
ConfigCore
p1
c__builtin__
dict
p2
(dp3
(Vbase
p4
Vamd64
p5
Vnone
p6
tp7
(dp8
Vflavours
p9
(lp10
Vaptosid-amd64
p11
asVimplicit-flavour
p12
I01
ss(Vdescription
p13
tp14
(dp15
Vpart-long-up
p16
VThis kernel is not suitable for SMP (multi-processor,\u000amulti-core or hyper-threaded) systems.
p17
sVpart-long-xen
p18
VThis kernel also runs on a Xen hypervisor.\u000aIt supports both privileged (dom0) and unprivileged (domU) operation.
p19
ss(Vrelations
p20
tp21
(dp22
Vinitramfs-tools
p23
Vinitramfs-tools (>= 0.118+c0.aptosid.1~)
p24
sVinitramfs-fallback
p25
Vlinux-initramfs-tool
p26
sVgcc-5
p27
Vgcc-5
p28
ss(Vbuild
p29
Vi386
p30
tp31
(dp32
Vimage-file
p33
Varch/x86/boot/bzImage
p34
sVdebug-info
p35
I00
ss(Vimage
p36
g30
tp37
(dp38
Vsuggests
p39
Vcrda
p40
sVbootloaders
p41
(lp42
Vgrub-pc
p43
aVextlinux
p44
aVgrub-efi-ia32
p45
asVconfigs
p46
(lp47
sVinstall-stem
p48
Vvmlinuz
p49
ss(Vversion
p50
tp51
(dp52
Vabiname_base
p53
V4.5.0
p54
sVabiname
p55
V4.5.0-1.slh.1
p56
sVsource
p57
V4.5-4
p58
sVupstream
p59
V4.5
p60
ss(Vbase
p61
g30
tp62
(dp63
Vkernel-arch
p64
Vx86
p65
sVfeaturesets
p66
(lp67
Vnone
p68
aVnone
p69
ass(Vdescription
p70
g5
g6
Vaptosid-amd64
p71
tp72
(dp73
Vparts
p74
(lp75
Vxen
p76
ass(Vimage
p77
g5
NVaptosid-amd64
p78
tp79
(dp80
Vconfigs
p81
(lp82
Vkernelarch-x86/config-arch-64
p83
ass(Vimage
p84
tp85
(dp86
Vtype
p87
Vplain
p88
sVinitramfs-generators
p89
(lp90
Vinitramfs-tools
p91
aVinitramfs-fallback
p92
ass(Vdescription
p93
g30
NVaptosid-686
p94
tp95
(dp96
Vhardware
p97
Vmodern PCs
p98
sVhardware-long
p99
VPCs with Intel Pentium Pro/II/III/4/4M/D/M, Xeon, Celeron, Core or Atom; AMD Geode LX/NX, Athlon (K7), Duron, Opteron, Sempron, Turion or Phenom; Transmeta Efficeon; VIA C3 "Nehemiah" or C7 processors
p100
ss(Vdescription
p101
g5
NVaptosid-amd64
p102
tp103
(dp104
Vhardware
p105
V64-bit PCs
p106
sVhardware-long
p107
VPCs with AMD64 or Intel 64 processors
p108
ss(Vbase
p109
g30
g69
tp110
(dp111
g9
(lp112
Vaptosid-686
p113
asg12
I01
ss(Vimage
p114
g30
NVaptosid-686
p115
tp116
(dp117
Vrecommends
p118
Vlibc6-i686
p119
sVconfigs
p120
(lp121
Vkernelarch-x86/config-arch-32
p122
ass(Vbuild
p123
g5
tp124
(dp125
Vimage-file
p126
Varch/x86/boot/bzImage
p127
sVdebug-info
p128
I00
ss(Vimage
p129
g5
tp130
(dp131
Vsuggests
p132
Vcrda
p133
sVbootloaders
p134
(lp135
Vgrub-pc
p136
aVextlinux
p137
aVgrub-efi-amd64
p138
asVconfigs
p139
(lp140
sVinstall-stem
p141
Vvmlinuz
p142
ss(Vxen
p143
g5
g6
Vaptosid-amd64
p144
tp145
(dp146
Vflavours
p147
(lp148
Vaptosid-amd64
p149
ass(Vbase
p150
g5
tp151
(dp152
Vkernel-arch
p153
Vx86
p154
sVfeaturesets
p155
(lp156
g68
ag6
ass(Vbase
p157
tp158
(dp159
Vcompiler
p160
Vgcc-5
p161
sVarches
p162
(lp163
Vamd64
p164
aVi386
p165
asVfeaturesets
p166
(lp167
Vnone
p168
ass(Vabi
p169
tp170
(dp171
Vabiname
p172
V1.slh.1
p173
sstp174
Rp175
.