ccopy_reg
_reconstructor
p0
(cdebian_linux.config
ConfigCore
p1
c__builtin__
dict
p2
(dp3
(Vrelations
p4
tp5
(dp6
Vinitramfs-fallback
p7
Vlinux-initramfs-tool
p8
sVgcc-5
p9
Vgcc-5
p10
sVinitramfs-tools
p11
Vinitramfs-tools (>= 0.118+c0.aptosid.1~)
p12
ss(Vdescription
p13
Vamd64
p14
Vnone
p15
Vaptosid-amd64
p16
tp17
(dp18
Vparts
p19
(lp20
Vxen
p21
ass(Vimage
p22
g14
NVaptosid-amd64
p23
tp24
(dp25
Vconfigs
p26
(lp27
Vkernelarch-x86/config-arch-64
p28
ass(Vimage
p29
g14
tp30
(dp31
Vconfigs
p32
(lp33
sVbootloaders
p34
(lp35
Vgrub-pc
p36
aVextlinux
p37
aVgrub-efi-amd64
p38
asVsuggests
p39
Vcrda
p40
sVinstall-stem
p41
Vvmlinuz
p42
ss(Vbuild
p43
g14
tp44
(dp45
Vimage-file
p46
Varch/x86/boot/bzImage
p47
sVdebug-info
p48
I00
ss(Vxen
p49
g14
g15
Vaptosid-amd64
p50
tp51
(dp52
Vflavours
p53
(lp54
Vaptosid-amd64
p55
ass(Vimage
p56
Vi386
p57
NVaptosid-686
p58
tp59
(dp60
Vconfigs
p61
(lp62
Vkernelarch-x86/config-arch-32
p63
asVrecommends
p64
Vlibc6-i686
p65
ss(Vimage
p66
g57
tp67
(dp68
Vconfigs
p69
(lp70
sVbootloaders
p71
(lp72
Vgrub-pc
p73
aVextlinux
p74
aVgrub-efi-ia32
p75
asVsuggests
p76
Vcrda
p77
sVinstall-stem
p78
Vvmlinuz
p79
ss(Vabi
p80
tp81
(dp82
Vabiname
p83
V2.slh.2
p84
ss(Vbuild
p85
g57
tp86
(dp87
Vimage-file
p88
Varch/x86/boot/bzImage
p89
sVdebug-info
p90
I00
ss(Vdescription
p91
g57
NVaptosid-686
p92
tp93
(dp94
Vhardware-long
p95
VPCs with Intel Pentium Pro/II/III/4/4M/D/M, Xeon, Celeron, Core or Atom; AMD Geode LX/NX, Athlon (K7), Duron, Opteron, Sempron, Turion or Phenom; Transmeta Efficeon; VIA C3 "Nehemiah" or C7 processors
p96
sVhardware
p97
Vmodern PCs
p98
ss(Vbase
p99
tp100
(dp101
Vfeaturesets
p102
(lp103
Vnone
p104
asVarches
p105
(lp106
Vamd64
p107
aVi386
p108
asVcompiler
p109
Vgcc-5
p110
ss(Vdescription
p111
g14
NVaptosid-amd64
p112
tp113
(dp114
Vhardware-long
p115
VPCs with AMD64 or Intel 64 processors
p116
sVhardware
p117
V64-bit PCs
p118
ss(Vbase
p119
g14
tp120
(dp121
Vfeaturesets
p122
(lp123
Vnone
p124
ag15
asVkernel-arch
p125
Vx86
p126
ss(Vbase
p127
g57
Vnone
p128
tp129
(dp130
Vimplicit-flavour
p131
I01
sVflavours
p132
(lp133
Vaptosid-686
p134
ass(Vversion
p135
tp136
(dp137
Vupstream
p138
V4.3
p139
sVabiname
p140
V4.3.0-2.slh.2
p141
sVsource
p142
V4.3-9
p143
sVabiname_base
p144
V4.3.0
p145
ss(Vimage
p146
tp147
(dp148
Vinitramfs-generators
p149
(lp150
Vinitramfs-tools
p151
aVinitramfs-fallback
p152
asVtype
p153
Vplain
p154
ss(Vbase
p155
g57
tp156
(dp157
Vfeaturesets
p158
(lp159
g124
ag128
asVkernel-arch
p160
Vx86
p161
ss(Vdescription
p162
tp163
(dp164
Vpart-long-up
p165
VThis kernel is not suitable for SMP (multi-processor,\u000amulti-core or hyper-threaded) systems.
p166
sVpart-long-xen
p167
VThis kernel also runs on a Xen hypervisor.\u000aIt supports both privileged (dom0) and unprivileged (domU) operation.
p168
ss(Vbase
p169
g14
g15
tp170
(dp171
g131
I01
sg132
(lp172
Vaptosid-amd64
p173
asstp174
Rp175
.