ccopy_reg
_reconstructor
p0
(cdebian_linux.config
ConfigCore
p1
c__builtin__
dict
p2
(dp3
(Vdescription
p4
Vamd64
p5
NVaptosid-amd64
p6
tp7
(dp8
Vhardware-long
p9
VPCs with AMD64 or Intel 64 processors
p10
sVhardware
p11
V64-bit PCs
p12
ss(Vbase
p13
g5
tp14
(dp15
Vkernel-arch
p16
Vx86
p17
sVfeaturesets
p18
(lp19
Vnone
p20
aVnone
p21
ass(Vdescription
p22
g5
g21
Vaptosid-amd64
p23
tp24
(dp25
Vparts
p26
(lp27
Vxen
p28
ass(Vbase
p29
tp30
(dp31
Varches
p32
(lp33
Vamd64
p34
aVi386
p35
asVcompiler
p36
Vgcc-5
p37
sVfeaturesets
p38
(lp39
Vnone
p40
ass(Vbase
p41
Vi386
p42
Vnone
p43
tp44
(dp45
Vflavours
p46
(lp47
Vaptosid-686
p48
asVimplicit-flavour
p49
I01
ss(Vdescription
p50
tp51
(dp52
Vpart-long-up
p53
VThis kernel is not suitable for SMP (multi-processor,\u000amulti-core or hyper-threaded) systems.
p54
sVpart-long-xen
p55
VThis kernel also runs on a Xen hypervisor.\u000aIt supports both privileged (dom0) and unprivileged (domU) operation.
p56
ss(Vrelations
p57
tp58
(dp59
Vgcc-5
p60
Vgcc-5
p61
sVinitramfs-fallback
p62
Vlinux-initramfs-tool
p63
sVinitramfs-tools
p64
Vinitramfs-tools (>= 0.118+c0.aptosid.1~)
p65
ss(Vimage
p66
g42
NVaptosid-686
p67
tp68
(dp69
Vrecommends
p70
Vlibc6-i686
p71
sVconfigs
p72
(lp73
Vkernelarch-x86/config-arch-32
p74
ass(Vbuild
p75
g42
tp76
(dp77
Vdebug-info
p78
I00
sVimage-file
p79
Varch/x86/boot/bzImage
p80
ss(Vversion
p81
tp82
(dp83
Vupstream
p84
V4.3
p85
sVabiname_base
p86
V4.3.0
p87
sVabiname
p88
V4.3.0-0.slh.2
p89
sVsource
p90
V4.3-2
p91
ss(Vbase
p92
g5
g21
tp93
(dp94
g46
(lp95
Vaptosid-amd64
p96
asg49
I01
ss(Vimage
p97
g5
NVaptosid-amd64
p98
tp99
(dp100
Vconfigs
p101
(lp102
Vkernelarch-x86/config-arch-64
p103
ass(Vxen
p104
g5
g21
Vaptosid-amd64
p105
tp106
(dp107
Vflavours
p108
(lp109
Vaptosid-amd64
p110
ass(Vimage
p111
tp112
(dp113
Vtype
p114
Vplain
p115
sVinitramfs-generators
p116
(lp117
Vinitramfs-tools
p118
aVinitramfs-fallback
p119
ass(Vbuild
p120
g5
tp121
(dp122
Vdebug-info
p123
I00
sVimage-file
p124
Varch/x86/boot/bzImage
p125
ss(Vimage
p126
g42
tp127
(dp128
Vinstall-stem
p129
Vvmlinuz
p130
sVbootloaders
p131
(lp132
Vgrub-pc
p133
aVextlinux
p134
aVgrub-efi-ia32
p135
asVsuggests
p136
Vcrda
p137
sVconfigs
p138
(lp139
ss(Vdescription
p140
g42
NVaptosid-686
p141
tp142
(dp143
Vhardware-long
p144
VPCs with Intel Pentium Pro/II/III/4/4M/D/M, Xeon, Celeron, Core or Atom; AMD Geode LX/NX, Athlon (K7), Duron, Opteron, Sempron, Turion or Phenom; Transmeta Efficeon; VIA C3 "Nehemiah" or C7 processors
p145
sVhardware
p146
Vmodern PCs
p147
ss(Vabi
p148
tp149
(dp150
Vabiname
p151
V0.slh.2
p152
ss(Vbase
p153
g42
tp154
(dp155
Vkernel-arch
p156
Vx86
p157
sVfeaturesets
p158
(lp159
g20
ag43
ass(Vimage
p160
g5
tp161
(dp162
Vinstall-stem
p163
Vvmlinuz
p164
sVbootloaders
p165
(lp166
Vgrub-pc
p167
aVextlinux
p168
aVgrub-efi-amd64
p169
asVsuggests
p170
Vcrda
p171
sVconfigs
p172
(lp173
sstp174
Rp175
.