ccopy_reg
_reconstructor
p0
(cdebian_linux.config
ConfigCore
p1
c__builtin__
dict
p2
(dp3
(Vbase
p4
Vi386
p5
tp6
(dp7
Vkernel-arch
p8
Vx86
p9
sVfeaturesets
p10
(lp11
Vnone
p12
aVnone
p13
ass(Vimage
p14
tp15
(dp16
Vinitramfs-generators
p17
(lp18
Vinitramfs-tools
p19
aVinitramfs-fallback
p20
ass(Vrelations
p21
tp22
(dp23
Vinitramfs-tools
p24
Vinitramfs-tools (>= 0.121~)
p25
sVgcc-6
p26
Vgcc-6
p27
sVinitramfs-fallback
p28
Vlinux-initramfs-tool
p29
ss(Vdescription
p30
Vamd64
p31
Vnone
p32
Vaptosid-amd64
p33
tp34
(dp35
Vparts
p36
(lp37
Vxen
p38
ass(Vdescription
p39
g31
NVaptosid-amd64
p40
tp41
(dp42
Vhardware-long
p43
VPCs with AMD64 or Intel 64 processors
p44
sVhardware
p45
V64-bit PCs
p46
ss(Vbuild
p47
g5
tp48
(dp49
Vdebug-info
p50
I00
sVimage-file
p51
Varch/x86/boot/bzImage
p52
ss(Vimage
p53
g31
tp54
(dp55
Vbootloaders
p56
(lp57
Vgrub-pc
p58
aVextlinux
p59
aVgrub-efi-amd64
p60
asVsuggests
p61
Vcrda
p62
sVbreaks
p63
Vxserver-xorg-input-vmmouse (<< 1:13.0.99)
p64
sVinstall-stem
p65
Vvmlinuz
p66
ss(Vdescription
p67
g5
NVaptosid-686
p68
tp69
(dp70
Vhardware-long
p71
VPCs with Intel Pentium Pro/II/III/4/4M/D/M, Xeon, Celeron, Core or Atom; AMD Geode LX/NX, Athlon (K7), Duron, Opteron, Sempron, Turion or Phenom; Transmeta Efficeon; VIA C3 "Nehemiah" or C7 processors
p72
sVhardware
p73
Vmodern PCs
p74
ss(Vbase
p75
g5
g13
tp76
(dp77
Vimplicit-flavour
p78
I01
sVflavours
p79
(lp80
Vaptosid-686
p81
ass(Vabi
p82
tp83
(dp84
Vabiname
p85
V0.slh.2
p86
ss(Vbase
p87
g31
tp88
(dp89
Vkernel-arch
p90
Vx86
p91
sVfeaturesets
p92
(lp93
g12
ag32
ass(Vbase
p94
tp95
(dp96
Vcompiler
p97
Vgcc-6
p98
sVarches
p99
(lp100
Vamd64
p101
aVi386
p102
asVfeaturesets
p103
(lp104
Vnone
p105
ass(Vversion
p106
tp107
(dp108
Vabiname
p109
V4.10.0-0.slh.2
p110
sVabiname_base
p111
V4.10.0
p112
sVsource
p113
V4.10-2
p114
sVupstream
p115
V4.10
p116
ss(Vbuild
p117
g31
tp118
(dp119
Vdebug-info
p120
I00
sVimage-file
p121
Varch/x86/boot/bzImage
p122
ss(Vimage
p123
g5
tp124
(dp125
Vbootloaders
p126
(lp127
Vgrub-pc
p128
aVextlinux
p129
aVgrub-efi-ia32
p130
asVsuggests
p131
Vcrda
p132
sVbreaks
p133
Vxserver-xorg-input-vmmouse (<< 1:13.0.99)
p134
sVinstall-stem
p135
Vvmlinuz
p136
ss(Vdescription
p137
tp138
(dp139
Vpart-long-up
p140
VThis kernel is not suitable for SMP (multi-processor,\u000amulti-core or hyper-threaded) systems.
p141
sVpart-long-xen
p142
VThis kernel also runs on a Xen hypervisor.\u000aIt supports both privileged (dom0) and unprivileged (domU) operation.
p143
ss(Vbase
p144
g31
g32
tp145
(dp146
g78
I01
sg79
(lp147
Vaptosid-amd64
p148
asstp149
Rp150
.