ccopy_reg
_reconstructor
p0
(cdebian_linux.config
ConfigCore
p1
c__builtin__
dict
p2
(dp3
(Vabi
p4
tp5
(dp6
Vabiname
p7
V4.slh.1
p8
ss(Vdescription
p9
Vi386
p10
NVaptosid-686
p11
tp12
(dp13
Vhardware-long
p14
VPCs with Intel Pentium Pro/II/III/4/4M/D/M, Xeon, Celeron, Core or Atom; AMD Geode LX/NX, Athlon (K7), Duron, Opteron, Sempron, Turion or Phenom; Transmeta Efficeon; VIA C3 "Nehemiah" or C7 processors
p15
sVhardware
p16
Vmodern PCs
p17
ss(Vrelations
p18
tp19
(dp20
Vinitramfs-tools
p21
Vinitramfs-tools (>= 0.121~)
p22
sVgcc-7
p23
Vgcc-7
p24
sVinitramfs-fallback
p25
Vlinux-initramfs-tool
p26
ss(Vimage
p27
tp28
(dp29
Vinitramfs-generators
p30
(lp31
Vinitramfs-tools
p32
aVinitramfs-fallback
p33
ass(Vdescription
p34
tp35
(dp36
Vpart-long-xen
p37
VThis kernel also runs on a Xen hypervisor.\u000aIt supports both privileged (dom0) and unprivileged (domU) operation.
p38
sVpart-long-up
p39
VThis kernel is not suitable for SMP (multi-processor,\u000amulti-core or hyper-threaded) systems.
p40
ss(Vdescription
p41
Vamd64
p42
NVaptosid-amd64
p43
tp44
(dp45
Vhardware-long
p46
VPCs with AMD64 or Intel 64 processors
p47
sVhardware
p48
V64-bit PCs
p49
ss(Vbuild
p50
g42
tp51
(dp52
Vdebug-info
p53
I00
sVimage-file
p54
Varch/x86/boot/bzImage
p55
ss(Vimage
p56
g42
tp57
(dp58
Vinstall-stem
p59
Vvmlinuz
p60
sVbreaks
p61
Vxserver-xorg-input-vmmouse (<< 1:13.0.99)
p62
sVbootloaders
p63
(lp64
Vgrub-pc
p65
aVextlinux
p66
aVgrub-efi-amd64
p67
asVsuggests
p68
Vcrda
p69
ss(Vbase
p70
g10
tp71
(dp72
Vfeaturesets
p73
(lp74
Vnone
p75
aVnone
p76
asVkernel-arch
p77
Vx86
p78
ss(Vversion
p79
tp80
(dp81
Vabiname_base
p82
V4.13.0
p83
sVupstream
p84
V4.13
p85
sVabiname
p86
V4.13.0-4.slh.1
p87
sVsource
p88
V4.13-8
p89
ss(Vbase
p90
g42
Vnone
p91
tp92
(dp93
Vimplicit-flavour
p94
I01
sVflavours
p95
(lp96
Vaptosid-amd64
p97
ass(Vbase
p98
g42
tp99
(dp100
Vfeaturesets
p101
(lp102
g75
ag91
asVkernel-arch
p103
Vx86
p104
ss(Vbase
p105
tp106
(dp107
Varches
p108
(lp109
Vamd64
p110
aVi386
p111
asVcompiler
p112
Vgcc-7
p113
sVfeaturesets
p114
(lp115
Vnone
p116
ass(Vdescription
p117
g42
g91
Vaptosid-amd64
p118
tp119
(dp120
Vparts
p121
(lp122
Vxen
p123
ass(Vbuild
p124
g10
tp125
(dp126
Vdebug-info
p127
I00
sVimage-file
p128
Varch/x86/boot/bzImage
p129
ss(Vimage
p130
g10
tp131
(dp132
Vinstall-stem
p133
Vvmlinuz
p134
sVbreaks
p135
Vxserver-xorg-input-vmmouse (<< 1:13.0.99)
p136
sVbootloaders
p137
(lp138
Vgrub-pc
p139
aVextlinux
p140
aVgrub-efi-ia32
p141
asVsuggests
p142
Vcrda
p143
ss(Vbase
p144
g10
g76
tp145
(dp146
g94
I01
sg95
(lp147
Vaptosid-686
p148
asstp149
Rp150
.