ccopy_reg
_reconstructor
p0
(cdebian_linux.config
ConfigCore
p1
c__builtin__
dict
p2
(dp3
(Vdescription
p4
Vamd64
p5
NVaptosid-amd64
p6
tp7
(dp8
Vhardware-long
p9
VPCs with AMD64 or Intel 64 processors
p10
sVhardware
p11
V64-bit PCs
p12
ss(Vxen
p13
g5
Vnone
p14
Vaptosid-amd64
p15
tp16
(dp17
Vflavours
p18
(lp19
Vaptosid-amd64
p20
ass(Vversion
p21
tp22
(dp23
Vabiname
p24
V4.5.0-4.slh.2
p25
sVsource
p26
V4.5-12
p27
sVabiname_base
p28
V4.5.0
p29
sVupstream
p30
V4.5
p31
ss(Vimage
p32
g5
tp33
(dp34
Vinstall-stem
p35
Vvmlinuz
p36
sVbootloaders
p37
(lp38
Vgrub-pc
p39
aVextlinux
p40
aVgrub-efi-amd64
p41
asVconfigs
p42
(lp43
sVsuggests
p44
Vcrda
p45
ss(Vdescription
p46
Vi386
p47
NVaptosid-686
p48
tp49
(dp50
Vhardware-long
p51
VPCs with Intel Pentium Pro/II/III/4/4M/D/M, Xeon, Celeron, Core or Atom; AMD Geode LX/NX, Athlon (K7), Duron, Opteron, Sempron, Turion or Phenom; Transmeta Efficeon; VIA C3 "Nehemiah" or C7 processors
p52
sVhardware
p53
Vmodern PCs
p54
ss(Vrelations
p55
tp56
(dp57
Vgcc-5
p58
Vgcc-5
p59
sVinitramfs-tools
p60
Vinitramfs-tools (>= 0.121~)
p61
sVinitramfs-fallback
p62
Vlinux-initramfs-tool
p63
ss(Vbase
p64
g5
g14
tp65
(dp66
Vflavours
p67
(lp68
Vaptosid-amd64
p69
asVimplicit-flavour
p70
I01
ss(Vimage
p71
tp72
(dp73
Vinitramfs-generators
p74
(lp75
Vinitramfs-tools
p76
aVinitramfs-fallback
p77
asVtype
p78
Vplain
p79
ss(Vbase
p80
g47
Vnone
p81
tp82
(dp83
g67
(lp84
Vaptosid-686
p85
asg70
I01
ss(Vimage
p86
g47
tp87
(dp88
Vinstall-stem
p89
Vvmlinuz
p90
sVbootloaders
p91
(lp92
Vgrub-pc
p93
aVextlinux
p94
aVgrub-efi-ia32
p95
asVconfigs
p96
(lp97
sVsuggests
p98
Vcrda
p99
ss(Vbuild
p100
g5
tp101
(dp102
Vimage-file
p103
Varch/x86/boot/bzImage
p104
sVdebug-info
p105
I00
ss(Vbuild
p106
g47
tp107
(dp108
Vimage-file
p109
Varch/x86/boot/bzImage
p110
sVdebug-info
p111
I00
ss(Vdescription
p112
g5
g14
Vaptosid-amd64
p113
tp114
(dp115
Vparts
p116
(lp117
Vxen
p118
ass(Vbase
p119
tp120
(dp121
Varches
p122
(lp123
Vamd64
p124
aVi386
p125
asVfeaturesets
p126
(lp127
Vnone
p128
asVcompiler
p129
Vgcc-5
p130
ss(Vbase
p131
g47
tp132
(dp133
Vfeaturesets
p134
(lp135
Vnone
p136
ag81
asVkernel-arch
p137
Vx86
p138
ss(Vbase
p139
g5
tp140
(dp141
Vfeaturesets
p142
(lp143
g136
ag14
asVkernel-arch
p144
Vx86
p145
ss(Vimage
p146
g47
NVaptosid-686
p147
tp148
(dp149
Vrecommends
p150
Vlibc6-i686
p151
sVconfigs
p152
(lp153
Vkernelarch-x86/config-arch-32
p154
ass(Vabi
p155
tp156
(dp157
Vabiname
p158
V4.slh.2
p159
ss(Vimage
p160
g5
NVaptosid-amd64
p161
tp162
(dp163
Vconfigs
p164
(lp165
Vkernelarch-x86/config-arch-64
p166
ass(Vdescription
p167
tp168
(dp169
Vpart-long-up
p170
VThis kernel is not suitable for SMP (multi-processor,\u000amulti-core or hyper-threaded) systems.
p171
sVpart-long-xen
p172
VThis kernel also runs on a Xen hypervisor.\u000aIt supports both privileged (dom0) and unprivileged (domU) operation.
p173
sstp174
Rp175
.