ccopy_reg
_reconstructor
p0
(cdebian_linux.config
ConfigCore
p1
c__builtin__
dict
p2
(dp3
(Vabi
p4
tp5
(dp6
Vabiname
p7
V10.slh.1
p8
ss(Vbase
p9
Vamd64
p10
tp11
(dp12
Vfeaturesets
p13
(lp14
Vnone
p15
aVnone
p16
asVkernel-arch
p17
Vx86
p18
ss(Vdescription
p19
g10
NVaptosid-amd64
p20
tp21
(dp22
Vhardware
p23
V64-bit PCs
p24
sVhardware-long
p25
VPCs with AMD64 or Intel 64 processors
p26
ss(Vbase
p27
g10
g16
tp28
(dp29
Vflavours
p30
(lp31
Vaptosid-amd64
p32
asVimplicit-flavour
p33
I01
ss(Vdescription
p34
g10
g16
Vaptosid-amd64
p35
tp36
(dp37
Vparts
p38
(lp39
Vxen
p40
ass(Vbuild
p41
g10
tp42
(dp43
Vdebug-info
p44
I00
sVimage-file
p45
Varch/x86/boot/bzImage
p46
ss(Vimage
p47
g10
tp48
(dp49
Vbreaks
p50
Vxserver-xorg-input-vmmouse (<< 1:13.0.99)
p51
sVsuggests
p52
Vcrda
p53
sVinstall-stem
p54
Vvmlinuz
p55
sVbootloaders
p56
(lp57
Vgrub-pc
p58
aVextlinux
p59
aVgrub-efi-amd64
p60
ass(Vimage
p61
Vi386
p62
tp63
(dp64
Vbreaks
p65
Vxserver-xorg-input-vmmouse (<< 1:13.0.99)
p66
sVsuggests
p67
Vcrda
p68
sVinstall-stem
p69
Vvmlinuz
p70
sVbootloaders
p71
(lp72
Vgrub-pc
p73
aVextlinux
p74
aVgrub-efi-ia32
p75
ass(Vdescription
p76
g62
NVaptosid-686
p77
tp78
(dp79
Vhardware
p80
Vmodern PCs
p81
sVhardware-long
p82
VPCs with Intel Pentium Pro/II/III/4/4M/D/M, Xeon, Celeron, Core or Atom; AMD Geode LX/NX, Athlon (K7), Duron, Opteron, Sempron, Turion or Phenom; Transmeta Efficeon; VIA C3 "Nehemiah" or C7 processors
p83
ss(Vbuild
p84
g62
tp85
(dp86
Vdebug-info
p87
I00
sVimage-file
p88
Varch/x86/boot/bzImage
p89
ss(Vdescription
p90
tp91
(dp92
Vpart-long-up
p93
VThis kernel is not suitable for SMP (multi-processor,\u000amulti-core or hyper-threaded) systems.
p94
sVpart-long-xen
p95
VThis kernel also runs on a Xen hypervisor.\u000aIt supports both privileged (dom0) and unprivileged (domU) operation.
p96
ss(Vimage
p97
tp98
(dp99
Vinitramfs-generators
p100
(lp101
Vinitramfs-tools
p102
aVinitramfs-fallback
p103
ass(Vversion
p104
tp105
(dp106
Vsource
p107
V4.10-16
p108
sVupstream
p109
V4.10
p110
sVabiname_base
p111
V4.10.0
p112
sVabiname
p113
V4.10.0-10.slh.1
p114
ss(Vbase
p115
g62
Vnone
p116
tp117
(dp118
g30
(lp119
Vaptosid-686
p120
asg33
I01
ss(Vrelations
p121
tp122
(dp123
Vgcc-6
p124
Vgcc-6
p125
sVinitramfs-tools
p126
Vinitramfs-tools (>= 0.121~)
p127
sVinitramfs-fallback
p128
Vlinux-initramfs-tool
p129
ss(Vbase
p130
tp131
(dp132
Vfeaturesets
p133
(lp134
Vnone
p135
asVcompiler
p136
Vgcc-6
p137
sVarches
p138
(lp139
Vamd64
p140
aVi386
p141
ass(Vbase
p142
g62
tp143
(dp144
Vfeaturesets
p145
(lp146
g15
ag116
asVkernel-arch
p147
Vx86
p148
sstp149
Rp150
.