ccopy_reg
_reconstructor
p0
(cdebian_linux.config
ConfigCore
p1
c__builtin__
dict
p2
(dp3
(Vdescription
p4
Vamd64
p5
NVaptosid-amd64
p6
tp7
(dp8
Vhardware-long
p9
VPCs with AMD64 or Intel 64 processors
p10
sVhardware
p11
V64-bit PCs
p12
ss(Vbuild
p13
g5
tp14
(dp15
Vdebug-info
p16
I00
sVimage-file
p17
Varch/x86/boot/bzImage
p18
ss(Vdescription
p19
g5
Vnone
p20
Vaptosid-amd64
p21
tp22
(dp23
Vparts
p24
(lp25
Vxen
p26
ass(Vdescription
p27
tp28
(dp29
Vpart-long-xen
p30
VThis kernel also runs on a Xen hypervisor.\u000aIt supports both privileged (dom0) and unprivileged (domU) operation.
p31
sVpart-long-up
p32
VThis kernel is not suitable for SMP (multi-processor,\u000amulti-core or hyper-threaded) systems.
p33
ss(Vbase
p34
g5
g20
tp35
(dp36
Vimplicit-flavour
p37
I01
sVflavours
p38
(lp39
Vaptosid-amd64
p40
ass(Vbase
p41
g5
tp42
(dp43
Vkernel-arch
p44
Vx86
p45
sVfeaturesets
p46
(lp47
Vnone
p48
ag20
ass(Vbase
p49
Vi386
p50
tp51
(dp52
Vkernel-arch
p53
Vx86
p54
sVfeaturesets
p55
(lp56
g48
aVnone
p57
ass(Vversion
p58
tp59
(dp60
Vabiname_base
p61
V4.9.0
p62
sVabiname
p63
V4.9.0-8.slh.2
p64
sVsource
p65
V4.9-14
p66
sVupstream
p67
V4.9
p68
ss(Vimage
p69
tp70
(dp71
Vinitramfs-generators
p72
(lp73
Vinitramfs-tools
p74
aVinitramfs-fallback
p75
ass(Vimage
p76
g50
tp77
(dp78
Vinstall-stem
p79
Vvmlinuz
p80
sVbootloaders
p81
(lp82
Vgrub-pc
p83
aVextlinux
p84
aVgrub-efi-ia32
p85
asVsuggests
p86
Vcrda
p87
sVbreaks
p88
Vxserver-xorg-input-vmmouse (<< 1:13.0.99)
p89
ss(Vbase
p90
g50
g57
tp91
(dp92
g37
I01
sg38
(lp93
Vaptosid-686
p94
ass(Vdescription
p95
g50
NVaptosid-686
p96
tp97
(dp98
Vhardware-long
p99
VPCs with Intel Pentium Pro/II/III/4/4M/D/M, Xeon, Celeron, Core or Atom; AMD Geode LX/NX, Athlon (K7), Duron, Opteron, Sempron, Turion or Phenom; Transmeta Efficeon; VIA C3 "Nehemiah" or C7 processors
p100
sVhardware
p101
Vmodern PCs
p102
ss(Vrelations
p103
tp104
(dp105
Vgcc-6
p106
Vgcc-6
p107
sVinitramfs-fallback
p108
Vlinux-initramfs-tool
p109
sVinitramfs-tools
p110
Vinitramfs-tools (>= 0.121~)
p111
ss(Vbuild
p112
g50
tp113
(dp114
Vdebug-info
p115
I00
sVimage-file
p116
Varch/x86/boot/bzImage
p117
ss(Vbase
p118
tp119
(dp120
Varches
p121
(lp122
Vamd64
p123
aVi386
p124
asVcompiler
p125
Vgcc-6
p126
sVfeaturesets
p127
(lp128
Vnone
p129
ass(Vabi
p130
tp131
(dp132
Vabiname
p133
V8.slh.2
p134
ss(Vimage
p135
g5
tp136
(dp137
Vinstall-stem
p138
Vvmlinuz
p139
sVbootloaders
p140
(lp141
Vgrub-pc
p142
aVextlinux
p143
aVgrub-efi-amd64
p144
asVsuggests
p145
Vcrda
p146
sVbreaks
p147
Vxserver-xorg-input-vmmouse (<< 1:13.0.99)
p148
sstp149
Rp150
.