ccopy_reg
_reconstructor
p0
(cdebian_linux.config
ConfigCore
p1
c__builtin__
dict
p2
(dp3
(Vbase
p4
tp5
(dp6
Vcompiler
p7
Vgcc-5
p8
sVarches
p9
(lp10
Vamd64
p11
aVi386
p12
asVfeaturesets
p13
(lp14
Vnone
p15
ass(Vimage
p16
Vi386
p17
tp18
(dp19
Vconfigs
p20
(lp21
sVbootloaders
p22
(lp23
Vgrub-pc
p24
aVextlinux
p25
aVgrub-efi-ia32
p26
asVsuggests
p27
Vcrda
p28
sVinstall-stem
p29
Vvmlinuz
p30
ss(Vxen
p31
Vamd64
p32
Vnone
p33
Vaptosid-amd64
p34
tp35
(dp36
Vflavours
p37
(lp38
Vaptosid-amd64
p39
ass(Vimage
p40
g17
NVaptosid-686
p41
tp42
(dp43
Vconfigs
p44
(lp45
Vkernelarch-x86/config-arch-32
p46
asVrecommends
p47
Vlibc6-i686
p48
ss(Vbuild
p49
g32
tp50
(dp51
Vimage-file
p52
Varch/x86/boot/bzImage
p53
sVdebug-info
p54
I00
ss(Vversion
p55
tp56
(dp57
Vupstream
p58
V4.6
p59
sVabiname_base
p60
V4.6.0
p61
sVabiname
p62
V4.6.0-0.slh.3
p63
sVsource
p64
V4.6-4
p65
ss(Vabi
p66
tp67
(dp68
Vabiname
p69
V0.slh.3
p70
ss(Vbase
p71
g32
tp72
(dp73
Vkernel-arch
p74
Vx86
p75
sVfeaturesets
p76
(lp77
Vnone
p78
ag33
ass(Vbuild
p79
g17
tp80
(dp81
Vimage-file
p82
Varch/x86/boot/bzImage
p83
sVdebug-info
p84
I00
ss(Vrelations
p85
tp86
(dp87
Vinitramfs-tools
p88
Vinitramfs-tools (>= 0.121~)
p89
sVgcc-5
p90
Vgcc-5
p91
sVinitramfs-fallback
p92
Vlinux-initramfs-tool
p93
ss(Vbase
p94
g32
g33
tp95
(dp96
Vflavours
p97
(lp98
Vaptosid-amd64
p99
asVimplicit-flavour
p100
I01
ss(Vdescription
p101
g17
NVaptosid-686
p102
tp103
(dp104
Vhardware
p105
Vmodern PCs
p106
sVhardware-long
p107
VPCs with Intel Pentium Pro/II/III/4/4M/D/M, Xeon, Celeron, Core or Atom; AMD Geode LX/NX, Athlon (K7), Duron, Opteron, Sempron, Turion or Phenom; Transmeta Efficeon; VIA C3 "Nehemiah" or C7 processors
p108
ss(Vimage
p109
g32
NVaptosid-amd64
p110
tp111
(dp112
Vconfigs
p113
(lp114
Vkernelarch-x86/config-arch-64
p115
ass(Vdescription
p116
g32
g33
Vaptosid-amd64
p117
tp118
(dp119
Vparts
p120
(lp121
Vxen
p122
ass(Vbase
p123
g17
Vnone
p124
tp125
(dp126
g97
(lp127
Vaptosid-686
p128
asg100
I01
ss(Vdescription
p129
tp130
(dp131
Vpart-long-up
p132
VThis kernel is not suitable for SMP (multi-processor,\u000amulti-core or hyper-threaded) systems.
p133
sVpart-long-xen
p134
VThis kernel also runs on a Xen hypervisor.\u000aIt supports both privileged (dom0) and unprivileged (domU) operation.
p135
ss(Vdescription
p136
g32
NVaptosid-amd64
p137
tp138
(dp139
Vhardware
p140
V64-bit PCs
p141
sVhardware-long
p142
VPCs with AMD64 or Intel 64 processors
p143
ss(Vbase
p144
g17
tp145
(dp146
Vkernel-arch
p147
Vx86
p148
sVfeaturesets
p149
(lp150
g78
ag124
ass(Vimage
p151
tp152
(dp153
Vtype
p154
Vplain
p155
sVinitramfs-generators
p156
(lp157
Vinitramfs-tools
p158
aVinitramfs-fallback
p159
ass(Vimage
p160
g32
tp161
(dp162
Vconfigs
p163
(lp164
sVbootloaders
p165
(lp166
Vgrub-pc
p167
aVextlinux
p168
aVgrub-efi-amd64
p169
asVsuggests
p170
Vcrda
p171
sVinstall-stem
p172
Vvmlinuz
p173
sstp174
Rp175
.