ccopy_reg
_reconstructor
p0
(cdebian_linux.config
ConfigCore
p1
c__builtin__
dict
p2
(dp3
(Vimage
p4
Vamd64
p5
tp6
(dp7
Vinstall-stem
p8
Vvmlinuz
p9
sVbreaks
p10
Vxserver-xorg-input-vmmouse (<< 1:13.0.99)
p11
sVsuggests
p12
Vcrda
p13
sVbootloaders
p14
(lp15
Vgrub-pc
p16
aVextlinux
p17
aVgrub-efi-amd64
p18
ass(Vdescription
p19
tp20
(dp21
Vpart-long-up
p22
VThis kernel is not suitable for SMP (multi-processor,\u000amulti-core or hyper-threaded) systems.
p23
sVpart-long-xen
p24
VThis kernel also runs on a Xen hypervisor.\u000aIt supports both privileged (dom0) and unprivileged (domU) operation.
p25
ss(Vxen
p26
g5
Vnone
p27
Vaptosid-amd64
p28
tp29
(dp30
Vflavours
p31
(lp32
Vaptosid-amd64
p33
ass(Vrelations
p34
tp35
(dp36
Vinitramfs-fallback
p37
Vlinux-initramfs-tool
p38
sVgcc-5
p39
Vgcc-5
p40
sVinitramfs-tools
p41
Vinitramfs-tools (>= 0.121~)
p42
ss(Vdescription
p43
g5
g27
Vaptosid-amd64
p44
tp45
(dp46
Vparts
p47
(lp48
Vxen
p49
ass(Vimage
p50
Vi386
p51
tp52
(dp53
Vinstall-stem
p54
Vvmlinuz
p55
sVbreaks
p56
Vxserver-xorg-input-vmmouse (<< 1:13.0.99)
p57
sVsuggests
p58
Vcrda
p59
sVbootloaders
p60
(lp61
Vgrub-pc
p62
aVextlinux
p63
aVgrub-efi-ia32
p64
ass(Vbase
p65
g51
Vnone
p66
tp67
(dp68
Vimplicit-flavour
p69
I01
sVflavours
p70
(lp71
Vaptosid-686
p72
ass(Vbase
p73
g5
tp74
(dp75
Vkernel-arch
p76
Vx86
p77
sVfeaturesets
p78
(lp79
Vnone
p80
ag27
ass(Vbuild
p81
g51
tp82
(dp83
Vdebug-info
p84
I00
sVimage-file
p85
Varch/x86/boot/bzImage
p86
ss(Vversion
p87
tp88
(dp89
Vabiname
p90
V4.7.0-0.slh.2
p91
sVabiname_base
p92
V4.7.0
p93
sVsource
p94
V4.7-3
p95
sVupstream
p96
V4.7
p97
ss(Vdescription
p98
g51
NVaptosid-686
p99
tp100
(dp101
Vhardware
p102
Vmodern PCs
p103
sVhardware-long
p104
VPCs with Intel Pentium Pro/II/III/4/4M/D/M, Xeon, Celeron, Core or Atom; AMD Geode LX/NX, Athlon (K7), Duron, Opteron, Sempron, Turion or Phenom; Transmeta Efficeon; VIA C3 "Nehemiah" or C7 processors
p105
ss(Vimage
p106
tp107
(dp108
Vinitramfs-generators
p109
(lp110
Vinitramfs-tools
p111
aVinitramfs-fallback
p112
ass(Vabi
p113
tp114
(dp115
Vabiname
p116
V0.slh.2
p117
ss(Vbase
p118
g5
g27
tp119
(dp120
g69
I01
sg70
(lp121
Vaptosid-amd64
p122
ass(Vbase
p123
tp124
(dp125
Varches
p126
(lp127
Vamd64
p128
aVi386
p129
asVcompiler
p130
Vgcc-5
p131
sVfeaturesets
p132
(lp133
Vnone
p134
ass(Vbuild
p135
g5
tp136
(dp137
Vdebug-info
p138
I00
sVimage-file
p139
Varch/x86/boot/bzImage
p140
ss(Vbase
p141
g51
tp142
(dp143
Vkernel-arch
p144
Vx86
p145
sVfeaturesets
p146
(lp147
g80
ag66
ass(Vdescription
p148
g5
NVaptosid-amd64
p149
tp150
(dp151
Vhardware
p152
V64-bit PCs
p153
sVhardware-long
p154
VPCs with AMD64 or Intel 64 processors
p155
sstp156
Rp157
.