ccopy_reg
_reconstructor
p0
(cdebian_linux.config
ConfigCore
p1
c__builtin__
dict
p2
(dp3
(Vdescription
p4
tp5
(dp6
Vpart-long-xen
p7
VThis kernel also runs on a Xen hypervisor.\u000aIt supports both privileged (dom0) and unprivileged (domU) operation.
p8
sVpart-long-up
p9
VThis kernel is not suitable for SMP (multi-processor,\u000amulti-core or hyper-threaded) systems.
p10
ss(Vrelations
p11
tp12
(dp13
Vgcc-6
p14
Vgcc-6
p15
sVinitramfs-tools
p16
Vinitramfs-tools (>= 0.121~)
p17
sVinitramfs-fallback
p18
Vlinux-initramfs-tool
p19
ss(Vbuild
p20
Vi386
p21
tp22
(dp23
Vimage-file
p24
Varch/x86/boot/bzImage
p25
sVdebug-info
p26
I00
ss(Vdescription
p27
Vamd64
p28
NVaptosid-amd64
p29
tp30
(dp31
Vhardware
p32
V64-bit PCs
p33
sVhardware-long
p34
VPCs with AMD64 or Intel 64 processors
p35
ss(Vdescription
p36
g21
NVaptosid-686
p37
tp38
(dp39
Vhardware
p40
Vmodern PCs
p41
sVhardware-long
p42
VPCs with Intel Pentium Pro/II/III/4/4M/D/M, Xeon, Celeron, Core or Atom; AMD Geode LX/NX, Athlon (K7), Duron, Opteron, Sempron, Turion or Phenom; Transmeta Efficeon; VIA C3 "Nehemiah" or C7 processors
p43
ss(Vabi
p44
tp45
(dp46
Vabiname
p47
V0.slh.3
p48
ss(Vbase
p49
g28
Vnone
p50
tp51
(dp52
Vflavours
p53
(lp54
Vaptosid-amd64
p55
asVimplicit-flavour
p56
I01
ss(Vbase
p57
tp58
(dp59
Vfeaturesets
p60
(lp61
Vnone
p62
asVarches
p63
(lp64
Vamd64
p65
aVi386
p66
asVcompiler
p67
Vgcc-6
p68
ss(Vbase
p69
g21
Vnone
p70
tp71
(dp72
g53
(lp73
Vaptosid-686
p74
asg56
I01
ss(Vimage
p75
g28
tp76
(dp77
Vbootloaders
p78
(lp79
Vgrub-pc
p80
aVextlinux
p81
aVgrub-efi-amd64
p82
asVbreaks
p83
Vxserver-xorg-input-vmmouse (<< 1:13.0.99)
p84
sVsuggests
p85
Vcrda
p86
sVinstall-stem
p87
Vvmlinuz
p88
ss(Vbase
p89
g28
tp90
(dp91
Vfeaturesets
p92
(lp93
Vnone
p94
ag50
asVkernel-arch
p95
Vx86
p96
ss(Vversion
p97
tp98
(dp99
Vabiname_base
p100
V4.11.0
p101
sVupstream
p102
V4.11
p103
sVsource
p104
V4.11-3
p105
sVabiname
p106
V4.11.0-0.slh.3
p107
ss(Vdescription
p108
g28
g50
Vaptosid-amd64
p109
tp110
(dp111
Vparts
p112
(lp113
Vxen
p114
ass(Vimage
p115
g21
tp116
(dp117
Vbootloaders
p118
(lp119
Vgrub-pc
p120
aVextlinux
p121
aVgrub-efi-ia32
p122
asVbreaks
p123
Vxserver-xorg-input-vmmouse (<< 1:13.0.99)
p124
sVsuggests
p125
Vcrda
p126
sVinstall-stem
p127
Vvmlinuz
p128
ss(Vbuild
p129
g28
tp130
(dp131
Vimage-file
p132
Varch/x86/boot/bzImage
p133
sVdebug-info
p134
I00
ss(Vbase
p135
g21
tp136
(dp137
Vfeaturesets
p138
(lp139
g94
ag70
asVkernel-arch
p140
Vx86
p141
ss(Vimage
p142
tp143
(dp144
Vinitramfs-generators
p145
(lp146
Vinitramfs-tools
p147
aVinitramfs-fallback
p148
asstp149
Rp150
.