ccopy_reg
_reconstructor
p0
(cdebian_linux.config
ConfigCore
p1
c__builtin__
dict
p2
(dp3
(Vdescription
p4
tp5
(dp6
Vpart-long-up
p7
VThis kernel is not suitable for SMP (multi-processor,\u000amulti-core or hyper-threaded) systems.
p8
sVpart-long-xen
p9
VThis kernel also runs on a Xen hypervisor.\u000aIt supports both privileged (dom0) and unprivileged (domU) operation.
p10
ss(Vbuild
p11
Vi386
p12
tp13
(dp14
Vdebug-info
p15
I00
sVimage-file
p16
Varch/x86/boot/bzImage
p17
ss(Vimage
p18
Vamd64
p19
tp20
(dp21
Vinstall-stem
p22
Vvmlinuz
p23
sVsuggests
p24
Vcrda
p25
sVbootloaders
p26
(lp27
Vgrub-pc
p28
aVextlinux
p29
aVgrub-efi-amd64
p30
asVconfigs
p31
(lp32
ss(Vbase
p33
g12
Vnone
p34
tp35
(dp36
Vimplicit-flavour
p37
I01
sVflavours
p38
(lp39
Vaptosid-686
p40
ass(Vdescription
p41
g19
Vnone
p42
Vaptosid-amd64
p43
tp44
(dp45
Vparts
p46
(lp47
Vxen
p48
ass(Vbuild
p49
g19
tp50
(dp51
Vdebug-info
p52
I00
sVimage-file
p53
Varch/x86/boot/bzImage
p54
ss(Vdescription
p55
g12
NVaptosid-686
p56
tp57
(dp58
Vhardware
p59
Vmodern PCs
p60
sVhardware-long
p61
VPCs with Intel Pentium Pro/II/III/4/4M/D/M, Xeon, Celeron, Core or Atom; AMD Geode LX/NX, Athlon (K7), Duron, Opteron, Sempron, Turion or Phenom; Transmeta Efficeon; VIA C3 "Nehemiah" or C7 processors
p62
ss(Vdescription
p63
g19
NVaptosid-amd64
p64
tp65
(dp66
Vhardware
p67
V64-bit PCs
p68
sVhardware-long
p69
VPCs with AMD64 or Intel 64 processors
p70
ss(Vabi
p71
tp72
(dp73
Vabiname
p74
V0.slh.3
p75
ss(Vbase
p76
g19
tp77
(dp78
Vkernel-arch
p79
Vx86
p80
sVfeaturesets
p81
(lp82
Vnone
p83
ag42
ass(Vimage
p84
g12
NVaptosid-686
p85
tp86
(dp87
Vrecommends
p88
Vlibc6-i686
p89
sVconfigs
p90
(lp91
Vkernelarch-x86/config-arch-32
p92
ass(Vrelations
p93
tp94
(dp95
Vinitramfs-fallback
p96
Vlinux-initramfs-tool
p97
sVgcc-5
p98
Vgcc-5
p99
sVinitramfs-tools
p100
Vinitramfs-tools (>= 0.121~)
p101
ss(Vbase
p102
g12
tp103
(dp104
Vkernel-arch
p105
Vx86
p106
sVfeaturesets
p107
(lp108
g83
ag34
ass(Vimage
p109
tp110
(dp111
Vtype
p112
Vplain
p113
sVinitramfs-generators
p114
(lp115
Vinitramfs-tools
p116
aVinitramfs-fallback
p117
ass(Vxen
p118
g19
g42
Vaptosid-amd64
p119
tp120
(dp121
Vflavours
p122
(lp123
Vaptosid-amd64
p124
ass(Vimage
p125
g19
NVaptosid-amd64
p126
tp127
(dp128
Vconfigs
p129
(lp130
Vkernelarch-x86/config-arch-64
p131
ass(Vbase
p132
tp133
(dp134
Varches
p135
(lp136
Vamd64
p137
aVi386
p138
asVcompiler
p139
Vgcc-5
p140
sVfeaturesets
p141
(lp142
Vnone
p143
ass(Vversion
p144
tp145
(dp146
Vabiname_base
p147
V4.6.0
p148
sVupstream
p149
V4.6
p150
sVabiname
p151
V4.6.0-0.slh.3
p152
sVsource
p153
V4.6-4
p154
ss(Vimage
p155
g12
tp156
(dp157
Vinstall-stem
p158
Vvmlinuz
p159
sVsuggests
p160
Vcrda
p161
sVbootloaders
p162
(lp163
Vgrub-pc
p164
aVextlinux
p165
aVgrub-efi-ia32
p166
asVconfigs
p167
(lp168
ss(Vbase
p169
g19
g42
tp170
(dp171
g37
I01
sg38
(lp172
Vaptosid-amd64
p173
asstp174
Rp175
.