ccopy_reg
_reconstructor
p0
(cdebian_linux.config
ConfigCore
p1
c__builtin__
dict
p2
(dp3
(Vbase
p4
Vi386
p5
tp6
(dp7
Vkernel-arch
p8
Vx86
p9
sVfeaturesets
p10
(lp11
Vnone
p12
aVnone
p13
ass(Vbase
p14
Vamd64
p15
tp16
(dp17
Vkernel-arch
p18
Vx86
p19
sVfeaturesets
p20
(lp21
g12
aVnone
p22
ass(Vversion
p23
tp24
(dp25
Vsource
p26
V4.8-10
p27
sVabiname
p28
V4.8.0-6.slh.1
p29
sVupstream
p30
V4.8
p31
sVabiname_base
p32
V4.8.0
p33
ss(Vimage
p34
g15
tp35
(dp36
Vbootloaders
p37
(lp38
Vgrub-pc
p39
aVextlinux
p40
aVgrub-efi-amd64
p41
asVsuggests
p42
Vcrda
p43
sVbreaks
p44
Vxserver-xorg-input-vmmouse (<< 1:13.0.99)
p45
sVinstall-stem
p46
Vvmlinuz
p47
ss(Vabi
p48
tp49
(dp50
Vabiname
p51
V6.slh.1
p52
ss(Vimage
p53
tp54
(dp55
Vinitramfs-generators
p56
(lp57
Vinitramfs-tools
p58
aVinitramfs-fallback
p59
ass(Vbuild
p60
g5
tp61
(dp62
Vdebug-info
p63
I00
sVimage-file
p64
Varch/x86/boot/bzImage
p65
ss(Vdescription
p66
g15
g22
Vaptosid-amd64
p67
tp68
(dp69
Vparts
p70
(lp71
Vxen
p72
ass(Vbase
p73
g5
g13
tp74
(dp75
Vimplicit-flavour
p76
I01
sVflavours
p77
(lp78
Vaptosid-686
p79
ass(Vxen
p80
g15
g22
Vaptosid-amd64
p81
tp82
(dp83
Vflavours
p84
(lp85
Vaptosid-amd64
p86
ass(Vdescription
p87
tp88
(dp89
Vpart-long-up
p90
VThis kernel is not suitable for SMP (multi-processor,\u000amulti-core or hyper-threaded) systems.
p91
sVpart-long-xen
p92
VThis kernel also runs on a Xen hypervisor.\u000aIt supports both privileged (dom0) and unprivileged (domU) operation.
p93
ss(Vbuild
p94
g15
tp95
(dp96
Vdebug-info
p97
I00
sVimage-file
p98
Varch/x86/boot/bzImage
p99
ss(Vbase
p100
g15
g22
tp101
(dp102
g76
I01
sg77
(lp103
Vaptosid-amd64
p104
ass(Vdescription
p105
g15
NVaptosid-amd64
p106
tp107
(dp108
Vhardware-long
p109
VPCs with AMD64 or Intel 64 processors
p110
sVhardware
p111
V64-bit PCs
p112
ss(Vdescription
p113
g5
NVaptosid-686
p114
tp115
(dp116
Vhardware-long
p117
VPCs with Intel Pentium Pro/II/III/4/4M/D/M, Xeon, Celeron, Core or Atom; AMD Geode LX/NX, Athlon (K7), Duron, Opteron, Sempron, Turion or Phenom; Transmeta Efficeon; VIA C3 "Nehemiah" or C7 processors
p118
sVhardware
p119
Vmodern PCs
p120
ss(Vrelations
p121
tp122
(dp123
Vinitramfs-tools
p124
Vinitramfs-tools (>= 0.121~)
p125
sVinitramfs-fallback
p126
Vlinux-initramfs-tool
p127
sVgcc-6
p128
Vgcc-6
p129
ss(Vbase
p130
tp131
(dp132
Vcompiler
p133
Vgcc-6
p134
sVarches
p135
(lp136
Vamd64
p137
aVi386
p138
asVfeaturesets
p139
(lp140
Vnone
p141
ass(Vimage
p142
g5
tp143
(dp144
Vbootloaders
p145
(lp146
Vgrub-pc
p147
aVextlinux
p148
aVgrub-efi-ia32
p149
asVsuggests
p150
Vcrda
p151
sVbreaks
p152
Vxserver-xorg-input-vmmouse (<< 1:13.0.99)
p153
sVinstall-stem
p154
Vvmlinuz
p155
sstp156
Rp157
.