ccopy_reg
_reconstructor
p0
(cdebian_linux.config
ConfigCore
p1
c__builtin__
dict
p2
(dp3
(Vbuild
p4
Vi386
p5
tp6
(dp7
Vimage-file
p8
Varch/x86/boot/bzImage
p9
sVdebug-info
p10
I00
ss(Vversion
p11
tp12
(dp13
Vabiname_base
p14
V4.11.0
p15
sVupstream
p16
V4.11
p17
sVsource
p18
V4.11-1
p19
sVabiname
p20
V4.11.0-0.slh.1
p21
ss(Vrelations
p22
tp23
(dp24
Vinitramfs-tools
p25
Vinitramfs-tools (>= 0.121~)
p26
sVgcc-6
p27
Vgcc-6
p28
sVinitramfs-fallback
p29
Vlinux-initramfs-tool
p30
ss(Vimage
p31
tp32
(dp33
Vinitramfs-generators
p34
(lp35
Vinitramfs-tools
p36
aVinitramfs-fallback
p37
ass(Vdescription
p38
g5
NVaptosid-686
p39
tp40
(dp41
Vhardware-long
p42
VPCs with Intel Pentium Pro/II/III/4/4M/D/M, Xeon, Celeron, Core or Atom; AMD Geode LX/NX, Athlon (K7), Duron, Opteron, Sempron, Turion or Phenom; Transmeta Efficeon; VIA C3 "Nehemiah" or C7 processors
p43
sVhardware
p44
Vmodern PCs
p45
ss(Vdescription
p46
tp47
(dp48
Vpart-long-xen
p49
VThis kernel also runs on a Xen hypervisor.\u000aIt supports both privileged (dom0) and unprivileged (domU) operation.
p50
sVpart-long-up
p51
VThis kernel is not suitable for SMP (multi-processor,\u000amulti-core or hyper-threaded) systems.
p52
ss(Vdescription
p53
Vamd64
p54
NVaptosid-amd64
p55
tp56
(dp57
Vhardware-long
p58
VPCs with AMD64 or Intel 64 processors
p59
sVhardware
p60
V64-bit PCs
p61
ss(Vabi
p62
tp63
(dp64
Vabiname
p65
V0.slh.1
p66
ss(Vdescription
p67
g54
Vnone
p68
Vaptosid-amd64
p69
tp70
(dp71
Vparts
p72
(lp73
Vxen
p74
ass(Vimage
p75
g5
tp76
(dp77
Vbreaks
p78
Vxserver-xorg-input-vmmouse (<< 1:13.0.99)
p79
sVbootloaders
p80
(lp81
Vgrub-pc
p82
aVextlinux
p83
aVgrub-efi-ia32
p84
asVsuggests
p85
Vcrda
p86
sVinstall-stem
p87
Vvmlinuz
p88
ss(Vbase
p89
g54
tp90
(dp91
Vfeaturesets
p92
(lp93
Vnone
p94
ag68
asVkernel-arch
p95
Vx86
p96
ss(Vbuild
p97
g54
tp98
(dp99
Vimage-file
p100
Varch/x86/boot/bzImage
p101
sVdebug-info
p102
I00
ss(Vbase
p103
tp104
(dp105
Vfeaturesets
p106
(lp107
Vnone
p108
asVarches
p109
(lp110
Vamd64
p111
aVi386
p112
asVcompiler
p113
Vgcc-6
p114
ss(Vbase
p115
g54
g68
tp116
(dp117
Vimplicit-flavour
p118
I01
sVflavours
p119
(lp120
Vaptosid-amd64
p121
ass(Vimage
p122
g54
tp123
(dp124
Vbreaks
p125
Vxserver-xorg-input-vmmouse (<< 1:13.0.99)
p126
sVbootloaders
p127
(lp128
Vgrub-pc
p129
aVextlinux
p130
aVgrub-efi-amd64
p131
asVsuggests
p132
Vcrda
p133
sVinstall-stem
p134
Vvmlinuz
p135
ss(Vbase
p136
g5
Vnone
p137
tp138
(dp139
g118
I01
sg119
(lp140
Vaptosid-686
p141
ass(Vbase
p142
g5
tp143
(dp144
Vfeaturesets
p145
(lp146
g94
ag137
asVkernel-arch
p147
Vx86
p148
sstp149
Rp150
.