ccopy_reg
_reconstructor
p0
(cdebian_linux.config
ConfigCore
p1
c__builtin__
dict
p2
(dp3
(Vdescription
p4
tp5
(dp6
Vpart-long-up
p7
VThis kernel is not suitable for SMP (multi-processor,\u000amulti-core or hyper-threaded) systems.
p8
sVpart-long-xen
p9
VThis kernel also runs on a Xen hypervisor.\u000aIt supports both privileged (dom0) and unprivileged (domU) operation.
p10
ss(Vrelations
p11
tp12
(dp13
Vinitramfs-fallback
p14
Vlinux-initramfs-tool
p15
sVgcc-7
p16
Vgcc-7
p17
sVinitramfs-tools
p18
Vinitramfs-tools (>= 0.121~)
p19
ss(Vdescription
p20
Vamd64
p21
Vnone
p22
Vaptosid-amd64
p23
tp24
(dp25
Vparts
p26
(lp27
Vxen
p28
ass(Vdescription
p29
g21
NVaptosid-amd64
p30
tp31
(dp32
Vhardware
p33
V64-bit PCs
p34
sVhardware-long
p35
VPCs with AMD64 or Intel 64 processors
p36
ss(Vbuild
p37
g21
tp38
(dp39
Vdebug-info
p40
I00
sVimage-file
p41
Varch/x86/boot/bzImage
p42
ss(Vimage
p43
g21
tp44
(dp45
Vbreaks
p46
Vxserver-xorg-input-vmmouse (<< 1:13.0.99)
p47
sVbootloaders
p48
(lp49
Vgrub-pc
p50
aVextlinux
p51
aVgrub-efi-amd64
p52
asVinstall-stem
p53
Vvmlinuz
p54
sVsuggests
p55
Vcrda
p56
ss(Vbase
p57
g21
g22
tp58
(dp59
Vimplicit-flavour
p60
I01
sVflavours
p61
(lp62
Vaptosid-amd64
p63
ass(Vbase
p64
tp65
(dp66
Varches
p67
(lp68
Vamd64
p69
aVi386
p70
asVcompiler
p71
Vgcc-7
p72
sVfeaturesets
p73
(lp74
Vnone
p75
ass(Vbase
p76
Vi386
p77
tp78
(dp79
Vfeaturesets
p80
(lp81
Vnone
p82
aVnone
p83
asVkernel-arch
p84
Vx86
p85
ss(Vimage
p86
g77
tp87
(dp88
Vbreaks
p89
Vxserver-xorg-input-vmmouse (<< 1:13.0.99)
p90
sVbootloaders
p91
(lp92
Vgrub-pc
p93
aVextlinux
p94
aVgrub-efi-ia32
p95
asVinstall-stem
p96
Vvmlinuz
p97
sVsuggests
p98
Vcrda
p99
ss(Vimage
p100
tp101
(dp102
Vinitramfs-generators
p103
(lp104
Vinitramfs-tools
p105
aVinitramfs-fallback
p106
ass(Vbuild
p107
g77
tp108
(dp109
Vdebug-info
p110
I00
sVimage-file
p111
Varch/x86/boot/bzImage
p112
ss(Vabi
p113
tp114
(dp115
Vabiname
p116
V4.slh.2
p117
ss(Vdescription
p118
g77
NVaptosid-686
p119
tp120
(dp121
Vhardware
p122
Vmodern PCs
p123
sVhardware-long
p124
VPCs with Intel Pentium Pro/II/III/4/4M/D/M, Xeon, Celeron, Core or Atom; AMD Geode LX/NX, Athlon (K7), Duron, Opteron, Sempron, Turion or Phenom; Transmeta Efficeon; VIA C3 "Nehemiah" or C7 processors
p125
ss(Vbase
p126
g21
tp127
(dp128
Vfeaturesets
p129
(lp130
g82
ag22
asVkernel-arch
p131
Vx86
p132
ss(Vversion
p133
tp134
(dp135
Vabiname
p136
V4.13.0-4.slh.2
p137
sVsource
p138
V4.13-9
p139
sVabiname_base
p140
V4.13.0
p141
sVupstream
p142
V4.13
p143
ss(Vbase
p144
g77
g83
tp145
(dp146
g60
I01
sg61
(lp147
Vaptosid-686
p148
asstp149
Rp150
.