ccopy_reg
_reconstructor
p0
(cdebian_linux.config
ConfigCore
p1
c__builtin__
dict
p2
(dp3
(Vimage
p4
Vi386
p5
tp6
(dp7
Vbootloaders
p8
(lp9
Vgrub-pc
p10
aVextlinux
p11
aVgrub-efi-ia32
p12
asVsuggests
p13
Vcrda
p14
sVbreaks
p15
Vxserver-xorg-input-vmmouse (<< 1:13.0.99)
p16
sVinstall-stem
p17
Vvmlinuz
p18
ss(Vbuild
p19
Vamd64
p20
tp21
(dp22
Vimage-file
p23
Varch/x86/boot/bzImage
p24
sVdebug-info
p25
I00
ss(Vbuild
p26
g5
tp27
(dp28
Vimage-file
p29
Varch/x86/boot/bzImage
p30
sVdebug-info
p31
I00
ss(Vimage
p32
g20
tp33
(dp34
Vbootloaders
p35
(lp36
Vgrub-pc
p37
aVextlinux
p38
aVgrub-efi-amd64
p39
asVsuggests
p40
Vcrda
p41
sVbreaks
p42
Vxserver-xorg-input-vmmouse (<< 1:13.0.99)
p43
sVinstall-stem
p44
Vvmlinuz
p45
ss(Vdescription
p46
g20
NVaptosid-amd64
p47
tp48
(dp49
Vhardware-long
p50
VPCs with AMD64 or Intel 64 processors
p51
sVhardware
p52
V64-bit PCs
p53
ss(Vrelations
p54
tp55
(dp56
Vinitramfs-tools
p57
Vinitramfs-tools (>= 0.121~)
p58
sVgcc-6
p59
Vgcc-6
p60
sVinitramfs-fallback
p61
Vlinux-initramfs-tool
p62
ss(Vbase
p63
g20
tp64
(dp65
Vfeaturesets
p66
(lp67
Vnone
p68
aVnone
p69
asVkernel-arch
p70
Vx86
p71
ss(Vdescription
p72
tp73
(dp74
Vpart-long-xen
p75
VThis kernel also runs on a Xen hypervisor.\u000aIt supports both privileged (dom0) and unprivileged (domU) operation.
p76
sVpart-long-up
p77
VThis kernel is not suitable for SMP (multi-processor,\u000amulti-core or hyper-threaded) systems.
p78
ss(Vversion
p79
tp80
(dp81
Vabiname_base
p82
V4.10.0
p83
sVsource
p84
V4.10-7
p85
sVabiname
p86
V4.10.0-2.slh.2
p87
sVupstream
p88
V4.10
p89
ss(Vbase
p90
tp91
(dp92
Vfeaturesets
p93
(lp94
Vnone
p95
asVcompiler
p96
Vgcc-6
p97
sVarches
p98
(lp99
Vamd64
p100
aVi386
p101
ass(Vbase
p102
g5
tp103
(dp104
Vfeaturesets
p105
(lp106
g68
aVnone
p107
asVkernel-arch
p108
Vx86
p109
ss(Vbase
p110
g20
g69
tp111
(dp112
Vimplicit-flavour
p113
I01
sVflavours
p114
(lp115
Vaptosid-amd64
p116
ass(Vabi
p117
tp118
(dp119
Vabiname
p120
V2.slh.2
p121
ss(Vdescription
p122
g20
g69
Vaptosid-amd64
p123
tp124
(dp125
Vparts
p126
(lp127
Vxen
p128
ass(Vimage
p129
tp130
(dp131
Vinitramfs-generators
p132
(lp133
Vinitramfs-tools
p134
aVinitramfs-fallback
p135
ass(Vdescription
p136
g5
NVaptosid-686
p137
tp138
(dp139
Vhardware-long
p140
VPCs with Intel Pentium Pro/II/III/4/4M/D/M, Xeon, Celeron, Core or Atom; AMD Geode LX/NX, Athlon (K7), Duron, Opteron, Sempron, Turion or Phenom; Transmeta Efficeon; VIA C3 "Nehemiah" or C7 processors
p141
sVhardware
p142
Vmodern PCs
p143
ss(Vbase
p144
g5
g107
tp145
(dp146
g113
I01
sg114
(lp147
Vaptosid-686
p148
asstp149
Rp150
.