ccopy_reg
_reconstructor
p0
(cdebian_linux.config
ConfigCore
p1
c__builtin__
dict
p2
(dp3
(Vabi
p4
tp5
(dp6
Vabiname
p7
V1.slh.1
p8
ss(Vxen
p9
Vamd64
p10
Vnone
p11
Vaptosid-amd64
p12
tp13
(dp14
Vflavours
p15
(lp16
Vaptosid-amd64
p17
ass(Vbuild
p18
g10
tp19
(dp20
Vdebug-info
p21
I00
sVimage-file
p22
Varch/x86/boot/bzImage
p23
ss(Vbase
p24
Vi386
p25
Vnone
p26
tp27
(dp28
Vimplicit-flavour
p29
I01
sVflavours
p30
(lp31
Vaptosid-686
p32
ass(Vdescription
p33
g10
g11
Vaptosid-amd64
p34
tp35
(dp36
Vparts
p37
(lp38
Vxen
p39
ass(Vbase
p40
g25
tp41
(dp42
Vkernel-arch
p43
Vx86
p44
sVfeaturesets
p45
(lp46
Vnone
p47
ag26
ass(Vimage
p48
g25
tp49
(dp50
Vbreaks
p51
Vxserver-xorg-input-vmmouse (<< 1:13.0.99)
p52
sVsuggests
p53
Vcrda
p54
sVbootloaders
p55
(lp56
Vgrub-pc
p57
aVextlinux
p58
aVgrub-efi-ia32
p59
asVinstall-stem
p60
Vvmlinuz
p61
ss(Vdescription
p62
tp63
(dp64
Vpart-long-xen
p65
VThis kernel also runs on a Xen hypervisor.\u000aIt supports both privileged (dom0) and unprivileged (domU) operation.
p66
sVpart-long-up
p67
VThis kernel is not suitable for SMP (multi-processor,\u000amulti-core or hyper-threaded) systems.
p68
ss(Vrelations
p69
tp70
(dp71
Vinitramfs-fallback
p72
Vlinux-initramfs-tool
p73
sVinitramfs-tools
p74
Vinitramfs-tools (>= 0.121~)
p75
sVgcc-6
p76
Vgcc-6
p77
ss(Vdescription
p78
g10
NVaptosid-amd64
p79
tp80
(dp81
Vhardware-long
p82
VPCs with AMD64 or Intel 64 processors
p83
sVhardware
p84
V64-bit PCs
p85
ss(Vbase
p86
tp87
(dp88
Vcompiler
p89
Vgcc-6
p90
sVarches
p91
(lp92
Vamd64
p93
aVi386
p94
asVfeaturesets
p95
(lp96
Vnone
p97
ass(Vimage
p98
tp99
(dp100
Vinitramfs-generators
p101
(lp102
Vinitramfs-tools
p103
aVinitramfs-fallback
p104
ass(Vbase
p105
g10
g11
tp106
(dp107
g29
I01
sg30
(lp108
Vaptosid-amd64
p109
ass(Vversion
p110
tp111
(dp112
Vupstream
p113
V4.7
p114
sVabiname_base
p115
V4.7.0
p116
sVsource
p117
V4.7-8
p118
sVabiname
p119
V4.7.0-1.slh.1
p120
ss(Vdescription
p121
g25
NVaptosid-686
p122
tp123
(dp124
Vhardware-long
p125
VPCs with Intel Pentium Pro/II/III/4/4M/D/M, Xeon, Celeron, Core or Atom; AMD Geode LX/NX, Athlon (K7), Duron, Opteron, Sempron, Turion or Phenom; Transmeta Efficeon; VIA C3 "Nehemiah" or C7 processors
p126
sVhardware
p127
Vmodern PCs
p128
ss(Vimage
p129
g10
tp130
(dp131
Vbreaks
p132
Vxserver-xorg-input-vmmouse (<< 1:13.0.99)
p133
sVsuggests
p134
Vcrda
p135
sVbootloaders
p136
(lp137
Vgrub-pc
p138
aVextlinux
p139
aVgrub-efi-amd64
p140
asVinstall-stem
p141
Vvmlinuz
p142
ss(Vbuild
p143
g25
tp144
(dp145
Vdebug-info
p146
I00
sVimage-file
p147
Varch/x86/boot/bzImage
p148
ss(Vbase
p149
g10
tp150
(dp151
Vkernel-arch
p152
Vx86
p153
sVfeaturesets
p154
(lp155
g47
ag11
asstp156
Rp157
.