ccopy_reg
_reconstructor
p0
(cdebian_linux.config
ConfigCore
p1
c__builtin__
dict
p2
(dp3
(Vdescription
p4
Vamd64
p5
NVaptosid-amd64
p6
tp7
(dp8
Vhardware-long
p9
VPCs with AMD64 or Intel 64 processors
p10
sVhardware
p11
V64-bit PCs
p12
ss(Vbuild
p13
g5
tp14
(dp15
Vimage-file
p16
Varch/x86/boot/bzImage
p17
sVdebug-info
p18
I00
ss(Vabi
p19
tp20
(dp21
Vabiname
p22
V2.slh.1
p23
ss(Vbase
p24
g5
Vnone
p25
tp26
(dp27
Vflavours
p28
(lp29
Vaptosid-amd64
p30
asVimplicit-flavour
p31
I01
ss(Vimage
p32
tp33
(dp34
Vinitramfs-generators
p35
(lp36
Vinitramfs-tools
p37
aVinitramfs-fallback
p38
ass(Vrelations
p39
tp40
(dp41
Vinitramfs-tools
p42
Vinitramfs-tools (>= 0.121~)
p43
sVinitramfs-fallback
p44
Vlinux-initramfs-tool
p45
sVgcc-6
p46
Vgcc-6
p47
ss(Vimage
p48
Vi386
p49
tp50
(dp51
Vbreaks
p52
Vxserver-xorg-input-vmmouse (<< 1:13.0.99)
p53
sVsuggests
p54
Vcrda
p55
sVbootloaders
p56
(lp57
Vgrub-pc
p58
aVextlinux
p59
aVgrub-efi-ia32
p60
asVinstall-stem
p61
Vvmlinuz
p62
ss(Vversion
p63
tp64
(dp65
Vabiname_base
p66
V4.12.0
p67
sVupstream
p68
V4.12
p69
sVsource
p70
V4.12-4
p71
sVabiname
p72
V4.12.0-2.slh.1
p73
ss(Vbase
p74
g5
tp75
(dp76
Vfeaturesets
p77
(lp78
Vnone
p79
ag25
asVkernel-arch
p80
Vx86
p81
ss(Vbuild
p82
g49
tp83
(dp84
Vimage-file
p85
Varch/x86/boot/bzImage
p86
sVdebug-info
p87
I00
ss(Vbase
p88
g49
tp89
(dp90
Vfeaturesets
p91
(lp92
g79
aVnone
p93
asVkernel-arch
p94
Vx86
p95
ss(Vdescription
p96
g49
NVaptosid-686
p97
tp98
(dp99
Vhardware-long
p100
VPCs with Intel Pentium Pro/II/III/4/4M/D/M, Xeon, Celeron, Core or Atom; AMD Geode LX/NX, Athlon (K7), Duron, Opteron, Sempron, Turion or Phenom; Transmeta Efficeon; VIA C3 "Nehemiah" or C7 processors
p101
sVhardware
p102
Vmodern PCs
p103
ss(Vimage
p104
g5
tp105
(dp106
Vbreaks
p107
Vxserver-xorg-input-vmmouse (<< 1:13.0.99)
p108
sVsuggests
p109
Vcrda
p110
sVbootloaders
p111
(lp112
Vgrub-pc
p113
aVextlinux
p114
aVgrub-efi-amd64
p115
asVinstall-stem
p116
Vvmlinuz
p117
ss(Vbase
p118
g49
g93
tp119
(dp120
g28
(lp121
Vaptosid-686
p122
asg31
I01
ss(Vdescription
p123
g5
g25
Vaptosid-amd64
p124
tp125
(dp126
Vparts
p127
(lp128
Vxen
p129
ass(Vdescription
p130
tp131
(dp132
Vpart-long-xen
p133
VThis kernel also runs on a Xen hypervisor.\u000aIt supports both privileged (dom0) and unprivileged (domU) operation.
p134
sVpart-long-up
p135
VThis kernel is not suitable for SMP (multi-processor,\u000amulti-core or hyper-threaded) systems.
p136
ss(Vbase
p137
tp138
(dp139
Vcompiler
p140
Vgcc-6
p141
sVfeaturesets
p142
(lp143
Vnone
p144
asVarches
p145
(lp146
Vamd64
p147
aVi386
p148
asstp149
Rp150
.