ccopy_reg
_reconstructor
p0
(cdebian_linux.config
ConfigCore
p1
c__builtin__
dict
p2
(dp3
(Vabi
p4
tp5
(dp6
Vabiname
p7
V3.slh.2
p8
ss(Vimage
p9
Vamd64
p10
tp11
(dp12
Vinstall-stem
p13
Vvmlinuz
p14
sVsuggests
p15
Vcrda
p16
sVconfigs
p17
(lp18
sVbootloaders
p19
(lp20
Vgrub-pc
p21
aVextlinux
p22
aVgrub-efi-amd64
p23
ass(Vrelations
p24
tp25
(dp26
Vinitramfs-fallback
p27
Vlinux-initramfs-tool
p28
sVgcc-5
p29
Vgcc-5
p30
sVinitramfs-tools
p31
Vinitramfs-tools (>= 0.118+c0.aptosid.1~)
p32
ss(Vdescription
p33
g10
Vnone
p34
Vaptosid-amd64
p35
tp36
(dp37
Vparts
p38
(lp39
Vxen
p40
ass(Vdescription
p41
g10
NVaptosid-amd64
p42
tp43
(dp44
Vhardware-long
p45
VPCs with AMD64 or Intel 64 processors
p46
sVhardware
p47
V64-bit PCs
p48
ss(Vbuild
p49
g10
tp50
(dp51
Vimage-file
p52
Varch/x86/boot/bzImage
p53
sVdebug-info
p54
I00
ss(Vversion
p55
tp56
(dp57
Vabiname
p58
V4.3.0-3.slh.2
p59
sVupstream
p60
V4.3
p61
sVabiname_base
p62
V4.3.0
p63
sVsource
p64
V4.3-11
p65
ss(Vbuild
p66
Vi386
p67
tp68
(dp69
Vimage-file
p70
Varch/x86/boot/bzImage
p71
sVdebug-info
p72
I00
ss(Vbase
p73
tp74
(dp75
Varches
p76
(lp77
Vamd64
p78
aVi386
p79
asVfeaturesets
p80
(lp81
Vnone
p82
asVcompiler
p83
Vgcc-5
p84
ss(Vbase
p85
g10
tp86
(dp87
Vfeaturesets
p88
(lp89
Vnone
p90
ag34
asVkernel-arch
p91
Vx86
p92
ss(Vimage
p93
tp94
(dp95
Vinitramfs-generators
p96
(lp97
Vinitramfs-tools
p98
aVinitramfs-fallback
p99
asVtype
p100
Vplain
p101
ss(Vimage
p102
g67
tp103
(dp104
Vinstall-stem
p105
Vvmlinuz
p106
sVsuggests
p107
Vcrda
p108
sVconfigs
p109
(lp110
sVbootloaders
p111
(lp112
Vgrub-pc
p113
aVextlinux
p114
aVgrub-efi-ia32
p115
ass(Vbase
p116
g67
tp117
(dp118
Vfeaturesets
p119
(lp120
g90
aVnone
p121
asVkernel-arch
p122
Vx86
p123
ss(Vdescription
p124
tp125
(dp126
Vpart-long-up
p127
VThis kernel is not suitable for SMP (multi-processor,\u000amulti-core or hyper-threaded) systems.
p128
sVpart-long-xen
p129
VThis kernel also runs on a Xen hypervisor.\u000aIt supports both privileged (dom0) and unprivileged (domU) operation.
p130
ss(Vxen
p131
g10
g34
Vaptosid-amd64
p132
tp133
(dp134
Vflavours
p135
(lp136
Vaptosid-amd64
p137
ass(Vimage
p138
g10
NVaptosid-amd64
p139
tp140
(dp141
Vconfigs
p142
(lp143
Vkernelarch-x86/config-arch-64
p144
ass(Vbase
p145
g67
g121
tp146
(dp147
Vimplicit-flavour
p148
I01
sVflavours
p149
(lp150
Vaptosid-686
p151
ass(Vbase
p152
g10
g34
tp153
(dp154
g148
I01
sg149
(lp155
Vaptosid-amd64
p156
ass(Vimage
p157
g67
NVaptosid-686
p158
tp159
(dp160
Vrecommends
p161
Vlibc6-i686
p162
sVconfigs
p163
(lp164
Vkernelarch-x86/config-arch-32
p165
ass(Vdescription
p166
g67
NVaptosid-686
p167
tp168
(dp169
Vhardware-long
p170
VPCs with Intel Pentium Pro/II/III/4/4M/D/M, Xeon, Celeron, Core or Atom; AMD Geode LX/NX, Athlon (K7), Duron, Opteron, Sempron, Turion or Phenom; Transmeta Efficeon; VIA C3 "Nehemiah" or C7 processors
p171
sVhardware
p172
Vmodern PCs
p173
sstp174
Rp175
.