ccopy_reg
_reconstructor
p0
(cdebian_linux.config
ConfigCore
p1
c__builtin__
dict
p2
(dp3
(Vimage
p4
Vamd64
p5
NVaptosid-amd64
p6
tp7
(dp8
Vconfigs
p9
(lp10
Vkernelarch-x86/config-arch-64
p11
ass(Vbase
p12
Vi386
p13
tp14
(dp15
Vkernel-arch
p16
Vx86
p17
sVfeaturesets
p18
(lp19
Vnone
p20
aVnone
p21
ass(Vimage
p22
g13
NVaptosid-686
p23
tp24
(dp25
Vrecommends
p26
Vlibc6-i686
p27
sVconfigs
p28
(lp29
Vkernelarch-x86/config-arch-32
p30
ass(Vbase
p31
g5
tp32
(dp33
Vkernel-arch
p34
Vx86
p35
sVfeaturesets
p36
(lp37
g20
aVnone
p38
ass(Vversion
p39
tp40
(dp41
Vupstream
p42
V4.6
p43
sVabiname
p44
V4.6.0-2.slh.3
p45
sVsource
p46
V4.6-8
p47
sVabiname_base
p48
V4.6.0
p49
ss(Vdescription
p50
g5
g38
Vaptosid-amd64
p51
tp52
(dp53
Vparts
p54
(lp55
Vxen
p56
ass(Vbase
p57
g13
g21
tp58
(dp59
Vimplicit-flavour
p60
I01
sVflavours
p61
(lp62
Vaptosid-686
p63
ass(Vdescription
p64
tp65
(dp66
Vpart-long-up
p67
VThis kernel is not suitable for SMP (multi-processor,\u000amulti-core or hyper-threaded) systems.
p68
sVpart-long-xen
p69
VThis kernel also runs on a Xen hypervisor.\u000aIt supports both privileged (dom0) and unprivileged (domU) operation.
p70
ss(Vbuild
p71
g5
tp72
(dp73
Vdebug-info
p74
I00
sVimage-file
p75
Varch/x86/boot/bzImage
p76
ss(Vbase
p77
g5
g38
tp78
(dp79
g60
I01
sg61
(lp80
Vaptosid-amd64
p81
ass(Vdescription
p82
g5
NVaptosid-amd64
p83
tp84
(dp85
Vhardware-long
p86
VPCs with AMD64 or Intel 64 processors
p87
sVhardware
p88
V64-bit PCs
p89
ss(Vrelations
p90
tp91
(dp92
Vinitramfs-tools
p93
Vinitramfs-tools (>= 0.121~)
p94
sVinitramfs-fallback
p95
Vlinux-initramfs-tool
p96
sVgcc-5
p97
Vgcc-5
p98
ss(Vimage
p99
tp100
(dp101
Vinitramfs-generators
p102
(lp103
Vinitramfs-tools
p104
aVinitramfs-fallback
p105
asVtype
p106
Vplain
p107
ss(Vdescription
p108
g13
NVaptosid-686
p109
tp110
(dp111
Vhardware-long
p112
VPCs with Intel Pentium Pro/II/III/4/4M/D/M, Xeon, Celeron, Core or Atom; AMD Geode LX/NX, Athlon (K7), Duron, Opteron, Sempron, Turion or Phenom; Transmeta Efficeon; VIA C3 "Nehemiah" or C7 processors
p113
sVhardware
p114
Vmodern PCs
p115
ss(Vbuild
p116
g13
tp117
(dp118
Vdebug-info
p119
I00
sVimage-file
p120
Varch/x86/boot/bzImage
p121
ss(Vimage
p122
g13
tp123
(dp124
Vinstall-stem
p125
Vvmlinuz
p126
sVbootloaders
p127
(lp128
Vgrub-pc
p129
aVextlinux
p130
aVgrub-efi-ia32
p131
asVconfigs
p132
(lp133
sVsuggests
p134
Vcrda
p135
ss(Vxen
p136
g5
g38
Vaptosid-amd64
p137
tp138
(dp139
Vflavours
p140
(lp141
Vaptosid-amd64
p142
ass(Vimage
p143
g5
tp144
(dp145
Vinstall-stem
p146
Vvmlinuz
p147
sVbootloaders
p148
(lp149
Vgrub-pc
p150
aVextlinux
p151
aVgrub-efi-amd64
p152
asVconfigs
p153
(lp154
sVsuggests
p155
Vcrda
p156
ss(Vabi
p157
tp158
(dp159
Vabiname
p160
V2.slh.3
p161
ss(Vbase
p162
tp163
(dp164
Varches
p165
(lp166
Vamd64
p167
aVi386
p168
asVcompiler
p169
Vgcc-5
p170
sVfeaturesets
p171
(lp172
Vnone
p173
asstp174
Rp175
.