ccopy_reg
_reconstructor
p0
(cdebian_linux.config
ConfigCore
p1
c__builtin__
dict
p2
(dp3
(Vdescription
p4
Vamd64
p5
Vnone
p6
Vaptosid-amd64
p7
tp8
(dp9
Vparts
p10
(lp11
Vxen
p12
ass(Vbase
p13
tp14
(dp15
Vfeaturesets
p16
(lp17
Vnone
p18
asVcompiler
p19
Vgcc-6
p20
sVarches
p21
(lp22
Vamd64
p23
aVi386
p24
ass(Vbase
p25
Vi386
p26
tp27
(dp28
Vfeaturesets
p29
(lp30
Vnone
p31
aVnone
p32
asVkernel-arch
p33
Vx86
p34
ss(Vbase
p35
g5
g6
tp36
(dp37
Vflavours
p38
(lp39
Vaptosid-amd64
p40
asVimplicit-flavour
p41
I01
ss(Vabi
p42
tp43
(dp44
Vabiname
p45
V4.slh.2
p46
ss(Vbase
p47
g26
g32
tp48
(dp49
g38
(lp50
Vaptosid-686
p51
asg41
I01
ss(Vdescription
p52
g5
NVaptosid-amd64
p53
tp54
(dp55
Vhardware
p56
V64-bit PCs
p57
sVhardware-long
p58
VPCs with AMD64 or Intel 64 processors
p59
ss(Vimage
p60
tp61
(dp62
Vinitramfs-generators
p63
(lp64
Vinitramfs-tools
p65
aVinitramfs-fallback
p66
ass(Vbuild
p67
g26
tp68
(dp69
Vdebug-info
p70
I00
sVimage-file
p71
Varch/x86/boot/bzImage
p72
ss(Vrelations
p73
tp74
(dp75
Vgcc-6
p76
Vgcc-6
p77
sVinitramfs-fallback
p78
Vlinux-initramfs-tool
p79
sVinitramfs-tools
p80
Vinitramfs-tools (>= 0.121~)
p81
ss(Vimage
p82
g26
tp83
(dp84
Vinstall-stem
p85
Vvmlinuz
p86
sVbreaks
p87
Vxserver-xorg-input-vmmouse (<< 1:13.0.99)
p88
sVbootloaders
p89
(lp90
Vgrub-pc
p91
aVextlinux
p92
aVgrub-efi-ia32
p93
asVsuggests
p94
Vcrda
p95
ss(Vdescription
p96
g26
NVaptosid-686
p97
tp98
(dp99
Vhardware
p100
Vmodern PCs
p101
sVhardware-long
p102
VPCs with Intel Pentium Pro/II/III/4/4M/D/M, Xeon, Celeron, Core or Atom; AMD Geode LX/NX, Athlon (K7), Duron, Opteron, Sempron, Turion or Phenom; Transmeta Efficeon; VIA C3 "Nehemiah" or C7 processors
p103
ss(Vversion
p104
tp105
(dp106
Vabiname_base
p107
V4.10.0
p108
sVupstream
p109
V4.10
p110
sVsource
p111
V4.10-9
p112
sVabiname
p113
V4.10.0-4.slh.2
p114
ss(Vimage
p115
g5
tp116
(dp117
Vinstall-stem
p118
Vvmlinuz
p119
sVbreaks
p120
Vxserver-xorg-input-vmmouse (<< 1:13.0.99)
p121
sVbootloaders
p122
(lp123
Vgrub-pc
p124
aVextlinux
p125
aVgrub-efi-amd64
p126
asVsuggests
p127
Vcrda
p128
ss(Vdescription
p129
tp130
(dp131
Vpart-long-up
p132
VThis kernel is not suitable for SMP (multi-processor,\u000amulti-core or hyper-threaded) systems.
p133
sVpart-long-xen
p134
VThis kernel also runs on a Xen hypervisor.\u000aIt supports both privileged (dom0) and unprivileged (domU) operation.
p135
ss(Vbuild
p136
g5
tp137
(dp138
Vdebug-info
p139
I00
sVimage-file
p140
Varch/x86/boot/bzImage
p141
ss(Vbase
p142
g5
tp143
(dp144
Vfeaturesets
p145
(lp146
g31
ag6
asVkernel-arch
p147
Vx86
p148
sstp149
Rp150
.