ccopy_reg
_reconstructor
p1
(cdebian_linux.config
ConfigCore
p2
c__builtin__
dict
p3
(dp4
(S'image'
S'amd64'
p5
tp6
(dp7
S'suggests'
p8
S'crda'
p9
sS'configs'
p10
(lp11
S'kernelarch-x86/config'
p12
asS'bootloaders'
p13
(lp14
S'grub-pc'
p15
aS'extlinux'
p16
aS'grub-efi-amd64'
p17
ass(S'description'
g5
NS'aptosid-amd64'
tp18
(dp19
S'hardware'
p20
S'64-bit PCs'
p21
sS'hardware-long'
p22
S'PCs with AMD64 or Intel 64 processors'
p23
ss(S'base'
p24
g5
S'none'
p25
tp26
(dp27
S'implicit-flavour'
p28
I01
sS'flavours'
p29
(lp30
S'aptosid-amd64'
p31
ass(S'base'
g5
tp32
(dp33
S'kernel-arch'
p34
S'x86'
p35
sS'featuresets'
p36
(lp37
g25
ass(S'image'
p38
tp39
(dp40
S'initramfs-generators'
p41
(lp42
S'initramfs-tools'
p43
aS'initramfs-fallback'
p44
asS'type'
p45
S'plain'
p46
ss(S'build'
g5
NS'aptosid-amd64'
tp47
(dp48
S'debug-info'
p49
I00
ss(S'image'
g5
NS'aptosid-amd64'
tp50
(dp51
S'configs'
p52
(lp53
S'kernelarch-x86/config-arch-64'
p54
ass(S'version'
p55
tp56
(dp57
S'abiname'
p58
S'3.12-1.slh.2'
p59
sS'source'
p60
V3.12-5
p61
ss(S'base'
p62
S'i386'
p63
tp64
(dp65
S'kernel-arch'
p66
S'x86'
p67
sg36
(lp68
g25
ass(S'build'
g63
NS'aptosid-686'
tp69
(dp70
S'debug-info'
p71
I00
ss(S'abi'
p72
tp73
(dp74
S'abiname'
p75
S'1.slh.2'
p76
ss(S'image'
p77
g63
tp78
(dp79
S'suggests'
p80
S'crda'
p81
sS'configs'
p82
(lp83
S'kernelarch-x86/config'
p84
asS'bootloaders'
p85
(lp86
S'grub-pc'
p87
aS'extlinux'
p88
ass(S'image'
g63
NS'aptosid-686'
tp89
(dp90
S'configs'
p91
(lp92
S'kernelarch-x86/config-arch-32'
p93
asS'recommends'
p94
S'libc6-i686'
p95
ss(g24
g63
g25
tp96
(dp97
g28
I01
sg29
(lp98
S'aptosid-686'
p99
ass(S'description'
g63
NS'aptosid-686'
tp100
(dp101
S'hardware'
p102
S'modern PCs'
p103
sS'hardware-long'
p104
S'PCs with Intel Pentium Pro/II/III/4/4M/D/M, Xeon, Celeron, Core or Atom; AMD Geode LX/NX, Athlon (K7), Duron, Opteron, Sempron, Turion or Phenom; Transmeta Efficeon; VIA C3 "Nehemiah" or C7 processors'
p105
ss(S'base'
p106
tp107
(dp108
S'arches'
p109
(lp110
S'amd64'
p111
aS'i386'
p112
asS'featuresets'
p113
(lp114
S'none'
p115
asS'compiler'
p116
S'gcc-4.8'
p117
ss(S'relations'
p118
tp119
(dp120
S'initramfs-fallback'
p121
S'linux-initramfs-tool'
p122
sS'lilo'
p123
S'lilo (>= 22.8-8.2~)'
p124
sS'gcc-4.8'
p125
S'gcc-4.8'
p126
sS'initramfs-tools'
p127
S'initramfs-tools (>= 0.110~)'
p128
sS'elilo'
p129
S'elilo (>= 3.12-3.1~)'
p130
sstRp131
.