ccopy_reg
_reconstructor
p0
(cdebian_linux.config
ConfigCore
p1
c__builtin__
dict
p2
(dp3
(Vimage
p4
Vamd64
p5
tp6
(dp7
Vconfigs
p8
(lp9
sVinstall-stem
p10
Vvmlinuz
p11
sVbootloaders
p12
(lp13
Vgrub-pc
p14
aVextlinux
p15
aVgrub-efi-amd64
p16
asVsuggests
p17
Vcrda
p18
ss(Vdescription
p19
Vi386
p20
NVaptosid-686
p21
tp22
(dp23
Vhardware-long
p24
VPCs with Intel Pentium Pro/II/III/4/4M/D/M, Xeon, Celeron, Core or Atom; AMD Geode LX/NX, Athlon (K7), Duron, Opteron, Sempron, Turion or Phenom; Transmeta Efficeon; VIA C3 "Nehemiah" or C7 processors
p25
sVhardware
p26
Vmodern PCs
p27
ss(Vbase
p28
tp29
(dp30
Varches
p31
(lp32
Vamd64
p33
aVi386
p34
asVcompiler
p35
Vgcc-5
p36
sVfeaturesets
p37
(lp38
Vnone
p39
ass(Vversion
p40
tp41
(dp42
Vabiname
p43
V4.3.0-3.slh.2
p44
sVupstream
p45
V4.3
p46
sVabiname_base
p47
V4.3.0
p48
sVsource
p49
V4.3-11
p50
ss(Vdescription
p51
g5
Vnone
p52
Vaptosid-amd64
p53
tp54
(dp55
Vparts
p56
(lp57
Vxen
p58
ass(Vbase
p59
g20
Vnone
p60
tp61
(dp62
Vimplicit-flavour
p63
I01
sVflavours
p64
(lp65
Vaptosid-686
p66
ass(Vdescription
p67
g5
NVaptosid-amd64
p68
tp69
(dp70
Vhardware-long
p71
VPCs with AMD64 or Intel 64 processors
p72
sVhardware
p73
V64-bit PCs
p74
ss(Vdescription
p75
tp76
(dp77
Vpart-long-up
p78
VThis kernel is not suitable for SMP (multi-processor,\u000amulti-core or hyper-threaded) systems.
p79
sVpart-long-xen
p80
VThis kernel also runs on a Xen hypervisor.\u000aIt supports both privileged (dom0) and unprivileged (domU) operation.
p81
ss(Vbase
p82
g5
g52
tp83
(dp84
g63
I01
sg64
(lp85
Vaptosid-amd64
p86
ass(Vbase
p87
g5
tp88
(dp89
Vkernel-arch
p90
Vx86
p91
sVfeaturesets
p92
(lp93
Vnone
p94
ag52
ass(Vimage
p95
g20
NVaptosid-686
p96
tp97
(dp98
Vconfigs
p99
(lp100
Vkernelarch-x86/config-arch-32
p101
asVrecommends
p102
Vlibc6-i686
p103
ss(Vabi
p104
tp105
(dp106
Vabiname
p107
V3.slh.2
p108
ss(Vxen
p109
g5
g52
Vaptosid-amd64
p110
tp111
(dp112
Vflavours
p113
(lp114
Vaptosid-amd64
p115
ass(Vrelations
p116
tp117
(dp118
Vgcc-5
p119
Vgcc-5
p120
sVinitramfs-fallback
p121
Vlinux-initramfs-tool
p122
sVinitramfs-tools
p123
Vinitramfs-tools (>= 0.118+c0.aptosid.1~)
p124
ss(Vimage
p125
g20
tp126
(dp127
Vconfigs
p128
(lp129
sVinstall-stem
p130
Vvmlinuz
p131
sVbootloaders
p132
(lp133
Vgrub-pc
p134
aVextlinux
p135
aVgrub-efi-ia32
p136
asVsuggests
p137
Vcrda
p138
ss(Vimage
p139
g5
NVaptosid-amd64
p140
tp141
(dp142
Vconfigs
p143
(lp144
Vkernelarch-x86/config-arch-64
p145
ass(Vbuild
p146
g5
tp147
(dp148
Vdebug-info
p149
I00
sVimage-file
p150
Varch/x86/boot/bzImage
p151
ss(Vbuild
p152
g20
tp153
(dp154
Vdebug-info
p155
I00
sVimage-file
p156
Varch/x86/boot/bzImage
p157
ss(Vbase
p158
g20
tp159
(dp160
Vkernel-arch
p161
Vx86
p162
sVfeaturesets
p163
(lp164
g94
ag60
ass(Vimage
p165
tp166
(dp167
Vtype
p168
Vplain
p169
sVinitramfs-generators
p170
(lp171
Vinitramfs-tools
p172
aVinitramfs-fallback
p173
asstp174
Rp175
.