ccopy_reg
_reconstructor
p0
(cdebian_linux.config
ConfigCore
p1
c__builtin__
dict
p2
(dp3
(Vbuild
p4
Vamd64
p5
tp6
(dp7
Vdebug-info
p8
I00
sVimage-file
p9
Varch/x86/boot/bzImage
p10
ss(Vimage
p11
Vi386
p12
NVaptosid-686
p13
tp14
(dp15
Vrecommends
p16
Vlibc6-i686
p17
sVconfigs
p18
(lp19
Vkernelarch-x86/config-arch-32
p20
ass(Vimage
p21
g5
NVaptosid-amd64
p22
tp23
(dp24
Vconfigs
p25
(lp26
Vkernelarch-x86/config-arch-64
p27
ass(Vimage
p28
g5
tp29
(dp30
Vconfigs
p31
(lp32
sVinstall-stem
p33
Vvmlinuz
p34
sVsuggests
p35
Vcrda
p36
sVbootloaders
p37
(lp38
Vgrub-pc
p39
aVextlinux
p40
aVgrub-efi-amd64
p41
ass(Vbase
p42
g5
Vnone
p43
tp44
(dp45
Vimplicit-flavour
p46
I01
sVflavours
p47
(lp48
Vaptosid-amd64
p49
ass(Vimage
p50
g12
tp51
(dp52
Vconfigs
p53
(lp54
sVinstall-stem
p55
Vvmlinuz
p56
sVsuggests
p57
Vcrda
p58
sVbootloaders
p59
(lp60
Vgrub-pc
p61
aVextlinux
p62
aVgrub-efi-ia32
p63
ass(Vabi
p64
tp65
(dp66
Vabiname
p67
V0.slh.5
p68
ss(Vbase
p69
tp70
(dp71
Varches
p72
(lp73
Vamd64
p74
aVi386
p75
asVcompiler
p76
Vgcc-5
p77
sVfeaturesets
p78
(lp79
Vnone
p80
ass(Vversion
p81
tp82
(dp83
Vupstream
p84
V4.3
p85
sVabiname_base
p86
V4.3.0
p87
sVabiname
p88
V4.3.0-0.slh.5
p89
sVsource
p90
V4.3-5
p91
ss(Vdescription
p92
tp93
(dp94
Vpart-long-up
p95
VThis kernel is not suitable for SMP (multi-processor,\u000amulti-core or hyper-threaded) systems.
p96
sVpart-long-xen
p97
VThis kernel also runs on a Xen hypervisor.\u000aIt supports both privileged (dom0) and unprivileged (domU) operation.
p98
ss(Vbase
p99
g12
Vnone
p100
tp101
(dp102
g46
I01
sg47
(lp103
Vaptosid-686
p104
ass(Vdescription
p105
g12
NVaptosid-686
p106
tp107
(dp108
Vhardware
p109
Vmodern PCs
p110
sVhardware-long
p111
VPCs with Intel Pentium Pro/II/III/4/4M/D/M, Xeon, Celeron, Core or Atom; AMD Geode LX/NX, Athlon (K7), Duron, Opteron, Sempron, Turion or Phenom; Transmeta Efficeon; VIA C3 "Nehemiah" or C7 processors
p112
ss(Vbuild
p113
g12
tp114
(dp115
Vdebug-info
p116
I00
sVimage-file
p117
Varch/x86/boot/bzImage
p118
ss(Vbase
p119
g5
tp120
(dp121
Vkernel-arch
p122
Vx86
p123
sVfeaturesets
p124
(lp125
Vnone
p126
ag43
ass(Vbase
p127
g12
tp128
(dp129
Vkernel-arch
p130
Vx86
p131
sVfeaturesets
p132
(lp133
g126
ag100
ass(Vimage
p134
tp135
(dp136
Vtype
p137
Vplain
p138
sVinitramfs-generators
p139
(lp140
Vinitramfs-tools
p141
aVinitramfs-fallback
p142
ass(Vxen
p143
g5
g43
Vaptosid-amd64
p144
tp145
(dp146
Vflavours
p147
(lp148
Vaptosid-amd64
p149
ass(Vrelations
p150
tp151
(dp152
Vgcc-5
p153
Vgcc-5
p154
sVinitramfs-fallback
p155
Vlinux-initramfs-tool
p156
sVinitramfs-tools
p157
Vinitramfs-tools (>= 0.118+c0.aptosid.1~)
p158
ss(Vdescription
p159
g5
g43
Vaptosid-amd64
p160
tp161
(dp162
Vparts
p163
(lp164
Vxen
p165
ass(Vdescription
p166
g5
NVaptosid-amd64
p167
tp168
(dp169
Vhardware
p170
V64-bit PCs
p171
sVhardware-long
p172
VPCs with AMD64 or Intel 64 processors
p173
sstp174
Rp175
.