ccopy_reg
_reconstructor
p0
(cdebian_linux.config
ConfigCore
p1
c__builtin__
dict
p2
(dp3
(Vbase
p4
Vamd64
p5
tp6
(dp7
Vfeaturesets
p8
(lp9
Vnone
p10
aVnone
p11
asVkernel-arch
p12
Vx86
p13
ss(Vbuild
p14
Vi386
p15
tp16
(dp17
Vimage-file
p18
Varch/x86/boot/bzImage
p19
sVdebug-info
p20
I00
ss(Vabi
p21
tp22
(dp23
Vabiname
p24
V13.slh.1
p25
ss(Vbase
p26
g15
Vnone
p27
tp28
(dp29
Vimplicit-flavour
p30
I01
sVflavours
p31
(lp32
Vaptosid-686
p33
ass(Vdescription
p34
tp35
(dp36
Vpart-long-up
p37
VThis kernel is not suitable for SMP (multi-processor,\u000amulti-core or hyper-threaded) systems.
p38
sVpart-long-xen
p39
VThis kernel also runs on a Xen hypervisor.\u000aIt supports both privileged (dom0) and unprivileged (domU) operation.
p40
ss(Vbuild
p41
g5
tp42
(dp43
Vimage-file
p44
Varch/x86/boot/bzImage
p45
sVdebug-info
p46
I00
ss(Vimage
p47
g5
tp48
(dp49
Vbreaks
p50
Vxserver-xorg-input-vmmouse (<< 1:13.0.99)
p51
sVinstall-stem
p52
Vvmlinuz
p53
sVsuggests
p54
Vcrda
p55
sVbootloaders
p56
(lp57
Vgrub-pc
p58
aVextlinux
p59
aVgrub-efi-amd64
p60
ass(Vdescription
p61
g5
g11
Vaptosid-amd64
p62
tp63
(dp64
Vparts
p65
(lp66
Vxen
p67
ass(Vbase
p68
tp69
(dp70
Varches
p71
(lp72
Vamd64
p73
aVi386
p74
asVcompiler
p75
Vgcc-6
p76
sVfeaturesets
p77
(lp78
Vnone
p79
ass(Vxen
p80
g5
g11
Vaptosid-amd64
p81
tp82
(dp83
Vflavours
p84
(lp85
Vaptosid-amd64
p86
ass(Vimage
p87
tp88
(dp89
Vinitramfs-generators
p90
(lp91
Vinitramfs-tools
p92
aVinitramfs-fallback
p93
ass(Vbase
p94
g5
g11
tp95
(dp96
g30
I01
sg31
(lp97
Vaptosid-amd64
p98
ass(Vimage
p99
g15
tp100
(dp101
Vbreaks
p102
Vxserver-xorg-input-vmmouse (<< 1:13.0.99)
p103
sVinstall-stem
p104
Vvmlinuz
p105
sVsuggests
p106
Vcrda
p107
sVbootloaders
p108
(lp109
Vgrub-pc
p110
aVextlinux
p111
aVgrub-efi-ia32
p112
ass(Vrelations
p113
tp114
(dp115
Vgcc-6
p116
Vgcc-6
p117
sVinitramfs-fallback
p118
Vlinux-initramfs-tool
p119
sVinitramfs-tools
p120
Vinitramfs-tools (>= 0.121~)
p121
ss(Vversion
p122
tp123
(dp124
Vabiname_base
p125
V4.8.0
p126
sVsource
p127
V4.8-22
p128
sVupstream
p129
V4.8
p130
sVabiname
p131
V4.8.0-13.slh.1
p132
ss(Vdescription
p133
g5
NVaptosid-amd64
p134
tp135
(dp136
Vhardware-long
p137
VPCs with AMD64 or Intel 64 processors
p138
sVhardware
p139
V64-bit PCs
p140
ss(Vbase
p141
g15
tp142
(dp143
Vfeaturesets
p144
(lp145
g10
ag27
asVkernel-arch
p146
Vx86
p147
ss(Vdescription
p148
g15
NVaptosid-686
p149
tp150
(dp151
Vhardware-long
p152
VPCs with Intel Pentium Pro/II/III/4/4M/D/M, Xeon, Celeron, Core or Atom; AMD Geode LX/NX, Athlon (K7), Duron, Opteron, Sempron, Turion or Phenom; Transmeta Efficeon; VIA C3 "Nehemiah" or C7 processors
p153
sVhardware
p154
Vmodern PCs
p155
sstp156
Rp157
.