ccopy_reg
_reconstructor
p0
(cdebian_linux.config
ConfigCore
p1
c__builtin__
dict
p2
(dp3
(Vimage
p4
tp5
(dp6
Vinitramfs-generators
p7
(lp8
Vinitramfs-tools
p9
aVinitramfs-fallback
p10
ass(Vimage
p11
Vamd64
p12
tp13
(dp14
Vbreaks
p15
Vxserver-xorg-input-vmmouse (<< 1:13.0.99)
p16
sVinstall-stem
p17
Vvmlinuz
p18
sVbootloaders
p19
(lp20
Vgrub-pc
p21
aVextlinux
p22
aVgrub-efi-amd64
p23
asVsuggests
p24
Vcrda
p25
ss(Vbuild
p26
g12
tp27
(dp28
Vdebug-info
p29
I00
sVimage-file
p30
Varch/x86/boot/bzImage
p31
ss(Vimage
p32
Vi386
p33
tp34
(dp35
Vbreaks
p36
Vxserver-xorg-input-vmmouse (<< 1:13.0.99)
p37
sVinstall-stem
p38
Vvmlinuz
p39
sVbootloaders
p40
(lp41
Vgrub-pc
p42
aVextlinux
p43
aVgrub-efi-ia32
p44
asVsuggests
p45
Vcrda
p46
ss(Vbase
p47
g33
Vnone
p48
tp49
(dp50
Vflavours
p51
(lp52
Vaptosid-686
p53
asVimplicit-flavour
p54
I01
ss(Vabi
p55
tp56
(dp57
Vabiname
p58
V4.slh.1
p59
ss(Vbase
p60
tp61
(dp62
Vcompiler
p63
Vgcc-6
p64
sVfeaturesets
p65
(lp66
Vnone
p67
asVarches
p68
(lp69
Vamd64
p70
aVi386
p71
ass(Vversion
p72
tp73
(dp74
Vupstream
p75
V4.11
p76
sVabiname
p77
V4.11.0-4.slh.1
p78
sVsource
p79
V4.11-10
p80
sVabiname_base
p81
V4.11.0
p82
ss(Vdescription
p83
tp84
(dp85
Vpart-long-xen
p86
VThis kernel also runs on a Xen hypervisor.\u000aIt supports both privileged (dom0) and unprivileged (domU) operation.
p87
sVpart-long-up
p88
VThis kernel is not suitable for SMP (multi-processor,\u000amulti-core or hyper-threaded) systems.
p89
ss(Vbuild
p90
g33
tp91
(dp92
Vdebug-info
p93
I00
sVimage-file
p94
Varch/x86/boot/bzImage
p95
ss(Vrelations
p96
tp97
(dp98
Vinitramfs-fallback
p99
Vlinux-initramfs-tool
p100
sVinitramfs-tools
p101
Vinitramfs-tools (>= 0.121~)
p102
sVgcc-6
p103
Vgcc-6
p104
ss(Vbase
p105
g12
tp106
(dp107
Vkernel-arch
p108
Vx86
p109
sVfeaturesets
p110
(lp111
Vnone
p112
aVnone
p113
ass(Vdescription
p114
g12
g113
Vaptosid-amd64
p115
tp116
(dp117
Vparts
p118
(lp119
Vxen
p120
ass(Vdescription
p121
g12
NVaptosid-amd64
p122
tp123
(dp124
Vhardware
p125
V64-bit PCs
p126
sVhardware-long
p127
VPCs with AMD64 or Intel 64 processors
p128
ss(Vdescription
p129
g33
NVaptosid-686
p130
tp131
(dp132
Vhardware
p133
Vmodern PCs
p134
sVhardware-long
p135
VPCs with Intel Pentium Pro/II/III/4/4M/D/M, Xeon, Celeron, Core or Atom; AMD Geode LX/NX, Athlon (K7), Duron, Opteron, Sempron, Turion or Phenom; Transmeta Efficeon; VIA C3 "Nehemiah" or C7 processors
p136
ss(Vbase
p137
g12
g113
tp138
(dp139
g51
(lp140
Vaptosid-amd64
p141
asg54
I01
ss(Vbase
p142
g33
tp143
(dp144
Vkernel-arch
p145
Vx86
p146
sVfeaturesets
p147
(lp148
g112
ag48
asstp149
Rp150
.