ccopy_reg
_reconstructor
p0
(cdebian_linux.config
ConfigCore
p1
c__builtin__
dict
p2
(dp3
(Vbase
p4
Vi386
p5
Vnone
p6
tp7
(dp8
Vflavours
p9
(lp10
Vaptosid-686
p11
asVimplicit-flavour
p12
I01
ss(Vdescription
p13
Vamd64
p14
NVaptosid-amd64
p15
tp16
(dp17
Vhardware-long
p18
VPCs with AMD64 or Intel 64 processors
p19
sVhardware
p20
V64-bit PCs
p21
ss(Vversion
p22
tp23
(dp24
Vabiname_base
p25
V4.5.0
p26
sVsource
p27
V4.5-10
p28
sVabiname
p29
V4.5.0-3.slh.1
p30
sVupstream
p31
V4.5
p32
ss(Vimage
p33
g14
tp34
(dp35
Vconfigs
p36
(lp37
sVsuggests
p38
Vcrda
p39
sVbootloaders
p40
(lp41
Vgrub-pc
p42
aVextlinux
p43
aVgrub-efi-amd64
p44
asVinstall-stem
p45
Vvmlinuz
p46
ss(Vxen
p47
g14
Vnone
p48
Vaptosid-amd64
p49
tp50
(dp51
Vflavours
p52
(lp53
Vaptosid-amd64
p54
ass(Vimage
p55
g14
NVaptosid-amd64
p56
tp57
(dp58
Vconfigs
p59
(lp60
Vkernelarch-x86/config-arch-64
p61
ass(Vimage
p62
g5
tp63
(dp64
Vconfigs
p65
(lp66
sVsuggests
p67
Vcrda
p68
sVbootloaders
p69
(lp70
Vgrub-pc
p71
aVextlinux
p72
aVgrub-efi-ia32
p73
asVinstall-stem
p74
Vvmlinuz
p75
ss(Vbase
p76
tp77
(dp78
Vcompiler
p79
Vgcc-5
p80
sVfeaturesets
p81
(lp82
Vnone
p83
asVarches
p84
(lp85
Vamd64
p86
aVi386
p87
ass(Vbase
p88
g14
tp89
(dp90
Vfeaturesets
p91
(lp92
Vnone
p93
ag48
asVkernel-arch
p94
Vx86
p95
ss(Vdescription
p96
tp97
(dp98
Vpart-long-xen
p99
VThis kernel also runs on a Xen hypervisor.\u000aIt supports both privileged (dom0) and unprivileged (domU) operation.
p100
sVpart-long-up
p101
VThis kernel is not suitable for SMP (multi-processor,\u000amulti-core or hyper-threaded) systems.
p102
ss(Vbuild
p103
g14
tp104
(dp105
Vdebug-info
p106
I00
sVimage-file
p107
Varch/x86/boot/bzImage
p108
ss(Vdescription
p109
g14
g48
Vaptosid-amd64
p110
tp111
(dp112
Vparts
p113
(lp114
Vxen
p115
ass(Vimage
p116
g5
NVaptosid-686
p117
tp118
(dp119
Vconfigs
p120
(lp121
Vkernelarch-x86/config-arch-32
p122
asVrecommends
p123
Vlibc6-i686
p124
ss(Vimage
p125
tp126
(dp127
Vinitramfs-generators
p128
(lp129
Vinitramfs-tools
p130
aVinitramfs-fallback
p131
asVtype
p132
Vplain
p133
ss(Vrelations
p134
tp135
(dp136
Vgcc-5
p137
Vgcc-5
p138
sVinitramfs-tools
p139
Vinitramfs-tools (>= 0.121~)
p140
sVinitramfs-fallback
p141
Vlinux-initramfs-tool
p142
ss(Vbase
p143
g5
tp144
(dp145
Vfeaturesets
p146
(lp147
g93
ag6
asVkernel-arch
p148
Vx86
p149
ss(Vbuild
p150
g5
tp151
(dp152
Vdebug-info
p153
I00
sVimage-file
p154
Varch/x86/boot/bzImage
p155
ss(Vabi
p156
tp157
(dp158
Vabiname
p159
V3.slh.1
p160
ss(Vdescription
p161
g5
NVaptosid-686
p162
tp163
(dp164
Vhardware-long
p165
VPCs with Intel Pentium Pro/II/III/4/4M/D/M, Xeon, Celeron, Core or Atom; AMD Geode LX/NX, Athlon (K7), Duron, Opteron, Sempron, Turion or Phenom; Transmeta Efficeon; VIA C3 "Nehemiah" or C7 processors
p166
sVhardware
p167
Vmodern PCs
p168
ss(Vbase
p169
g14
g48
tp170
(dp171
g9
(lp172
Vaptosid-amd64
p173
asg12
I01
sstp174
Rp175
.