ccopy_reg
_reconstructor
p0
(cdebian_linux.config
ConfigCore
p1
c__builtin__
dict
p2
(dp3
(Vbase
p4
Vamd64
p5
tp6
(dp7
Vfeaturesets
p8
(lp9
Vnone
p10
aVnone
p11
asVkernel-arch
p12
Vx86
p13
ss(Vbase
p14
g5
g11
tp15
(dp16
Vimplicit-flavour
p17
I01
sVflavours
p18
(lp19
Vaptosid-amd64
p20
ass(Vbuild
p21
g5
tp22
(dp23
Vdebug-info
p24
I00
sVimage-file
p25
Varch/x86/boot/bzImage
p26
ss(Vdescription
p27
Vi386
p28
NVaptosid-686
p29
tp30
(dp31
Vhardware-long
p32
VPCs with Intel Pentium Pro/II/III/4/4M/D/M, Xeon, Celeron, Core or Atom; AMD Geode LX/NX, Athlon (K7), Duron, Opteron, Sempron, Turion or Phenom; Transmeta Efficeon; VIA C3 "Nehemiah" or C7 processors
p33
sVhardware
p34
Vmodern PCs
p35
ss(Vimage
p36
g28
tp37
(dp38
Vbreaks
p39
Vxserver-xorg-input-vmmouse (<< 1:13.0.99)
p40
sVsuggests
p41
Vcrda
p42
sVinstall-stem
p43
Vvmlinuz
p44
sVbootloaders
p45
(lp46
Vgrub-pc
p47
aVextlinux
p48
aVgrub-efi-ia32
p49
ass(Vversion
p50
tp51
(dp52
Vupstream
p53
V4.7
p54
sVabiname_base
p55
V4.7.0
p56
sVsource
p57
V4.7-5
p58
sVabiname
p59
V4.7.0-0.slh.2
p60
ss(Vimage
p61
tp62
(dp63
Vinitramfs-generators
p64
(lp65
Vinitramfs-tools
p66
aVinitramfs-fallback
p67
ass(Vdescription
p68
g5
NVaptosid-amd64
p69
tp70
(dp71
Vhardware-long
p72
VPCs with AMD64 or Intel 64 processors
p73
sVhardware
p74
V64-bit PCs
p75
ss(Vimage
p76
g5
tp77
(dp78
Vbreaks
p79
Vxserver-xorg-input-vmmouse (<< 1:13.0.99)
p80
sVsuggests
p81
Vcrda
p82
sVinstall-stem
p83
Vvmlinuz
p84
sVbootloaders
p85
(lp86
Vgrub-pc
p87
aVextlinux
p88
aVgrub-efi-amd64
p89
ass(Vxen
p90
g5
g11
Vaptosid-amd64
p91
tp92
(dp93
Vflavours
p94
(lp95
Vaptosid-amd64
p96
ass(Vrelations
p97
tp98
(dp99
Vgcc-6
p100
Vgcc-6
p101
sVinitramfs-tools
p102
Vinitramfs-tools (>= 0.121~)
p103
sVinitramfs-fallback
p104
Vlinux-initramfs-tool
p105
ss(Vabi
p106
tp107
(dp108
Vabiname
p109
V0.slh.2
p110
ss(Vbase
p111
g28
tp112
(dp113
Vfeaturesets
p114
(lp115
g10
aVnone
p116
asVkernel-arch
p117
Vx86
p118
ss(Vbase
p119
g28
g116
tp120
(dp121
g17
I01
sg18
(lp122
Vaptosid-686
p123
ass(Vdescription
p124
tp125
(dp126
Vpart-long-up
p127
VThis kernel is not suitable for SMP (multi-processor,\u000amulti-core or hyper-threaded) systems.
p128
sVpart-long-xen
p129
VThis kernel also runs on a Xen hypervisor.\u000aIt supports both privileged (dom0) and unprivileged (domU) operation.
p130
ss(Vbuild
p131
g28
tp132
(dp133
Vdebug-info
p134
I00
sVimage-file
p135
Varch/x86/boot/bzImage
p136
ss(Vbase
p137
tp138
(dp139
Vcompiler
p140
Vgcc-6
p141
sVfeaturesets
p142
(lp143
Vnone
p144
asVarches
p145
(lp146
Vamd64
p147
aVi386
p148
ass(Vdescription
p149
g5
g11
Vaptosid-amd64
p150
tp151
(dp152
Vparts
p153
(lp154
Vxen
p155
asstp156
Rp157
.