ccopy_reg
_reconstructor
p0
(cdebian_linux.config
ConfigCore
p1
c__builtin__
dict
p2
(dp3
(Vdescription
p4
Vi386
p5
NVaptosid-686
p6
tp7
(dp8
Vhardware
p9
Vmodern PCs
p10
sVhardware-long
p11
VPCs with Intel Pentium Pro/II/III/4/4M/D/M, Xeon, Celeron, Core or Atom; AMD Geode LX/NX, Athlon (K7), Duron, Opteron, Sempron, Turion or Phenom; Transmeta Efficeon; VIA C3 "Nehemiah" or C7 processors
p12
ss(Vbase
p13
Vamd64
p14
Vnone
p15
tp16
(dp17
Vflavours
p18
(lp19
Vaptosid-amd64
p20
asVimplicit-flavour
p21
I01
ss(Vbuild
p22
g5
tp23
(dp24
Vdebug-info
p25
I00
sVimage-file
p26
Varch/x86/boot/bzImage
p27
ss(Vdescription
p28
g14
g15
Vaptosid-amd64
p29
tp30
(dp31
Vparts
p32
(lp33
Vxen
p34
ass(Vdescription
p35
g14
NVaptosid-amd64
p36
tp37
(dp38
Vhardware
p39
V64-bit PCs
p40
sVhardware-long
p41
VPCs with AMD64 or Intel 64 processors
p42
ss(Vversion
p43
tp44
(dp45
Vabiname_base
p46
V4.6.0
p47
sVabiname
p48
V4.6.0-0.slh.2
p49
sVsource
p50
V4.6-3
p51
sVupstream
p52
V4.6
p53
ss(Vrelations
p54
tp55
(dp56
Vgcc-5
p57
Vgcc-5
p58
sVinitramfs-fallback
p59
Vlinux-initramfs-tool
p60
sVinitramfs-tools
p61
Vinitramfs-tools (>= 0.121~)
p62
ss(Vimage
p63
g14
NVaptosid-amd64
p64
tp65
(dp66
Vconfigs
p67
(lp68
Vkernelarch-x86/config-arch-64
p69
ass(Vxen
p70
g14
g15
Vaptosid-amd64
p71
tp72
(dp73
Vflavours
p74
(lp75
Vaptosid-amd64
p76
ass(Vbase
p77
g5
tp78
(dp79
Vkernel-arch
p80
Vx86
p81
sVfeaturesets
p82
(lp83
Vnone
p84
aVnone
p85
ass(Vimage
p86
tp87
(dp88
Vtype
p89
Vplain
p90
sVinitramfs-generators
p91
(lp92
Vinitramfs-tools
p93
aVinitramfs-fallback
p94
ass(Vbase
p95
tp96
(dp97
Varches
p98
(lp99
Vamd64
p100
aVi386
p101
asVcompiler
p102
Vgcc-5
p103
sVfeaturesets
p104
(lp105
Vnone
p106
ass(Vimage
p107
g14
tp108
(dp109
Vconfigs
p110
(lp111
sVinstall-stem
p112
Vvmlinuz
p113
sVsuggests
p114
Vcrda
p115
sVbootloaders
p116
(lp117
Vgrub-pc
p118
aVextlinux
p119
aVgrub-efi-amd64
p120
ass(Vbase
p121
g14
tp122
(dp123
Vkernel-arch
p124
Vx86
p125
sVfeaturesets
p126
(lp127
g84
ag15
ass(Vbase
p128
g5
g85
tp129
(dp130
g18
(lp131
Vaptosid-686
p132
asg21
I01
ss(Vabi
p133
tp134
(dp135
Vabiname
p136
V0.slh.2
p137
ss(Vbuild
p138
g14
tp139
(dp140
Vdebug-info
p141
I00
sVimage-file
p142
Varch/x86/boot/bzImage
p143
ss(Vimage
p144
g5
NVaptosid-686
p145
tp146
(dp147
Vconfigs
p148
(lp149
Vkernelarch-x86/config-arch-32
p150
asVrecommends
p151
Vlibc6-i686
p152
ss(Vdescription
p153
tp154
(dp155
Vpart-long-up
p156
VThis kernel is not suitable for SMP (multi-processor,\u000amulti-core or hyper-threaded) systems.
p157
sVpart-long-xen
p158
VThis kernel also runs on a Xen hypervisor.\u000aIt supports both privileged (dom0) and unprivileged (domU) operation.
p159
ss(Vimage
p160
g5
tp161
(dp162
Vconfigs
p163
(lp164
sVinstall-stem
p165
Vvmlinuz
p166
sVsuggests
p167
Vcrda
p168
sVbootloaders
p169
(lp170
Vgrub-pc
p171
aVextlinux
p172
aVgrub-efi-ia32
p173
asstp174
Rp175
.