ccopy_reg
_reconstructor
p0
(cdebian_linux.config
ConfigCore
p1
c__builtin__
dict
p2
(dp3
(Vbase
p4
Vi386
p5
tp6
(dp7
Vkernel-arch
p8
Vx86
p9
sVfeaturesets
p10
(lp11
Vnone
p12
aVnone
p13
ass(Vbuild
p14
Vamd64
p15
tp16
(dp17
Vimage-file
p18
Varch/x86/boot/bzImage
p19
sVdebug-info
p20
I00
ss(Vimage
p21
g5
tp22
(dp23
Vinstall-stem
p24
Vvmlinuz
p25
sVsuggests
p26
Vcrda
p27
sVbootloaders
p28
(lp29
Vgrub-pc
p30
aVextlinux
p31
aVgrub-efi-ia32
p32
asVbreaks
p33
Vxserver-xorg-input-vmmouse (<< 1:13.0.99)
p34
ss(Vabi
p35
tp36
(dp37
Vabiname
p38
V0.slh.2
p39
ss(Vbase
p40
g15
tp41
(dp42
Vkernel-arch
p43
Vx86
p44
sVfeaturesets
p45
(lp46
g12
aVnone
p47
ass(Vdescription
p48
tp49
(dp50
Vpart-long-up
p51
VThis kernel is not suitable for SMP (multi-processor,\u000amulti-core or hyper-threaded) systems.
p52
sVpart-long-xen
p53
VThis kernel also runs on a Xen hypervisor.\u000aIt supports both privileged (dom0) and unprivileged (domU) operation.
p54
ss(Vdescription
p55
g15
g47
Vaptosid-amd64
p56
tp57
(dp58
Vparts
p59
(lp60
Vxen
p61
ass(Vbase
p62
g5
g13
tp63
(dp64
Vflavours
p65
(lp66
Vaptosid-686
p67
asVimplicit-flavour
p68
I01
ss(Vbase
p69
g15
g47
tp70
(dp71
g65
(lp72
Vaptosid-amd64
p73
asg68
I01
ss(Vxen
p74
g15
g47
Vaptosid-amd64
p75
tp76
(dp77
Vflavours
p78
(lp79
Vaptosid-amd64
p80
ass(Vdescription
p81
g15
NVaptosid-amd64
p82
tp83
(dp84
Vhardware-long
p85
VPCs with AMD64 or Intel 64 processors
p86
sVhardware
p87
V64-bit PCs
p88
ss(Vbuild
p89
g5
tp90
(dp91
Vimage-file
p92
Varch/x86/boot/bzImage
p93
sVdebug-info
p94
I00
ss(Vimage
p95
g15
tp96
(dp97
Vinstall-stem
p98
Vvmlinuz
p99
sVsuggests
p100
Vcrda
p101
sVbootloaders
p102
(lp103
Vgrub-pc
p104
aVextlinux
p105
aVgrub-efi-amd64
p106
asVbreaks
p107
Vxserver-xorg-input-vmmouse (<< 1:13.0.99)
p108
ss(Vrelations
p109
tp110
(dp111
Vinitramfs-tools
p112
Vinitramfs-tools (>= 0.121~)
p113
sVgcc-6
p114
Vgcc-6
p115
sVinitramfs-fallback
p116
Vlinux-initramfs-tool
p117
ss(Vdescription
p118
g5
NVaptosid-686
p119
tp120
(dp121
Vhardware-long
p122
VPCs with Intel Pentium Pro/II/III/4/4M/D/M, Xeon, Celeron, Core or Atom; AMD Geode LX/NX, Athlon (K7), Duron, Opteron, Sempron, Turion or Phenom; Transmeta Efficeon; VIA C3 "Nehemiah" or C7 processors
p123
sVhardware
p124
Vmodern PCs
p125
ss(Vbase
p126
tp127
(dp128
Varches
p129
(lp130
Vamd64
p131
aVi386
p132
asVcompiler
p133
Vgcc-6
p134
sVfeaturesets
p135
(lp136
Vnone
p137
ass(Vversion
p138
tp139
(dp140
Vabiname
p141
V4.8.0-0.slh.2
p142
sVsource
p143
V4.8-2
p144
sVabiname_base
p145
V4.8.0
p146
sVupstream
p147
V4.8
p148
ss(Vimage
p149
tp150
(dp151
Vinitramfs-generators
p152
(lp153
Vinitramfs-tools
p154
aVinitramfs-fallback
p155
asstp156
Rp157
.