ccopy_reg
_reconstructor
p0
(cdebian_linux.config
ConfigCore
p1
c__builtin__
dict
p2
(dp3
(Vimage
p4
Vamd64
p5
NVaptosid-amd64
p6
tp7
(dp8
Vconfigs
p9
(lp10
Vkernelarch-x86/config-arch-64
p11
ass(Vrelations
p12
tp13
(dp14
Vinitramfs-tools
p15
Vinitramfs-tools (>= 0.118+c0.aptosid.1~)
p16
sVinitramfs-fallback
p17
Vlinux-initramfs-tool
p18
sVgcc-5
p19
Vgcc-5
p20
ss(Vbase
p21
g5
tp22
(dp23
Vfeaturesets
p24
(lp25
Vnone
p26
aVnone
p27
asVkernel-arch
p28
Vx86
p29
ss(Vdescription
p30
tp31
(dp32
Vpart-long-up
p33
VThis kernel is not suitable for SMP (multi-processor,\u000amulti-core or hyper-threaded) systems.
p34
sVpart-long-xen
p35
VThis kernel also runs on a Xen hypervisor.\u000aIt supports both privileged (dom0) and unprivileged (domU) operation.
p36
ss(Vimage
p37
Vi386
p38
tp39
(dp40
Vconfigs
p41
(lp42
sVsuggests
p43
Vcrda
p44
sVbootloaders
p45
(lp46
Vgrub-pc
p47
aVextlinux
p48
aVgrub-efi-ia32
p49
asVinstall-stem
p50
Vvmlinuz
p51
ss(Vxen
p52
g5
g27
Vaptosid-amd64
p53
tp54
(dp55
Vflavours
p56
(lp57
Vaptosid-amd64
p58
ass(Vbuild
p59
g38
tp60
(dp61
Vimage-file
p62
Varch/x86/boot/bzImage
p63
sVdebug-info
p64
I00
ss(Vbuild
p65
g5
tp66
(dp67
Vimage-file
p68
Varch/x86/boot/bzImage
p69
sVdebug-info
p70
I00
ss(Vdescription
p71
g5
g27
Vaptosid-amd64
p72
tp73
(dp74
Vparts
p75
(lp76
Vxen
p77
ass(Vbase
p78
g38
Vnone
p79
tp80
(dp81
Vflavours
p82
(lp83
Vaptosid-686
p84
asVimplicit-flavour
p85
I01
ss(Vdescription
p86
g38
NVaptosid-686
p87
tp88
(dp89
Vhardware-long
p90
VPCs with Intel Pentium Pro/II/III/4/4M/D/M, Xeon, Celeron, Core or Atom; AMD Geode LX/NX, Athlon (K7), Duron, Opteron, Sempron, Turion or Phenom; Transmeta Efficeon; VIA C3 "Nehemiah" or C7 processors
p91
sVhardware
p92
Vmodern PCs
p93
ss(Vbase
p94
g5
g27
tp95
(dp96
g82
(lp97
Vaptosid-amd64
p98
asg85
I01
ss(Vimage
p99
g5
tp100
(dp101
Vconfigs
p102
(lp103
sVsuggests
p104
Vcrda
p105
sVbootloaders
p106
(lp107
Vgrub-pc
p108
aVextlinux
p109
aVgrub-efi-amd64
p110
asVinstall-stem
p111
Vvmlinuz
p112
ss(Vimage
p113
g38
NVaptosid-686
p114
tp115
(dp116
Vconfigs
p117
(lp118
Vkernelarch-x86/config-arch-32
p119
asVrecommends
p120
Vlibc6-i686
p121
ss(Vabi
p122
tp123
(dp124
Vabiname
p125
V0.slh.3
p126
ss(Vversion
p127
tp128
(dp129
Vsource
p130
V4.5-3
p131
sVupstream
p132
V4.5
p133
sVabiname
p134
V4.5.0-0.slh.3
p135
sVabiname_base
p136
V4.5.0
p137
ss(Vbase
p138
g38
tp139
(dp140
Vfeaturesets
p141
(lp142
g26
ag79
asVkernel-arch
p143
Vx86
p144
ss(Vimage
p145
tp146
(dp147
Vtype
p148
Vplain
p149
sVinitramfs-generators
p150
(lp151
Vinitramfs-tools
p152
aVinitramfs-fallback
p153
ass(Vbase
p154
tp155
(dp156
Vfeaturesets
p157
(lp158
Vnone
p159
asVarches
p160
(lp161
Vamd64
p162
aVi386
p163
asVcompiler
p164
Vgcc-5
p165
ss(Vdescription
p166
g5
NVaptosid-amd64
p167
tp168
(dp169
Vhardware-long
p170
VPCs with AMD64 or Intel 64 processors
p171
sVhardware
p172
V64-bit PCs
p173
sstp174
Rp175
.