ccopy_reg
_reconstructor
p0
(cdebian_linux.config
ConfigCore
p1
c__builtin__
dict
p2
(dp3
(Vbase
p4
Vamd64
p5
Vnone
p6
tp7
(dp8
Vimplicit-flavour
p9
I01
sVflavours
p10
(lp11
Vaptosid-amd64
p12
ass(Vimage
p13
Vi386
p14
tp15
(dp16
Vinstall-stem
p17
Vvmlinuz
p18
sVbootloaders
p19
(lp20
Vgrub-pc
p21
aVextlinux
p22
aVgrub-efi-ia32
p23
asVbreaks
p24
Vxserver-xorg-input-vmmouse (<< 1:13.0.99)
p25
sVsuggests
p26
Vcrda
p27
ss(Vdescription
p28
g5
NVaptosid-amd64
p29
tp30
(dp31
Vhardware-long
p32
VPCs with AMD64 or Intel 64 processors
p33
sVhardware
p34
V64-bit PCs
p35
ss(Vdescription
p36
g14
NVaptosid-686
p37
tp38
(dp39
Vhardware-long
p40
VPCs with Intel Pentium Pro/II/III/4/4M/D/M, Xeon, Celeron, Core or Atom; AMD Geode LX/NX, Athlon (K7), Duron, Opteron, Sempron, Turion or Phenom; Transmeta Efficeon; VIA C3 "Nehemiah" or C7 processors
p41
sVhardware
p42
Vmodern PCs
p43
ss(Vimage
p44
tp45
(dp46
Vinitramfs-generators
p47
(lp48
Vinitramfs-tools
p49
aVinitramfs-fallback
p50
ass(Vbase
p51
tp52
(dp53
Vcompiler
p54
Vgcc-6
p55
sVarches
p56
(lp57
Vamd64
p58
aVi386
p59
asVfeaturesets
p60
(lp61
Vnone
p62
ass(Vxen
p63
g5
g6
Vaptosid-amd64
p64
tp65
(dp66
Vflavours
p67
(lp68
Vaptosid-amd64
p69
ass(Vrelations
p70
tp71
(dp72
Vgcc-6
p73
Vgcc-6
p74
sVinitramfs-fallback
p75
Vlinux-initramfs-tool
p76
sVinitramfs-tools
p77
Vinitramfs-tools (>= 0.121~)
p78
ss(Vbase
p79
g14
tp80
(dp81
Vkernel-arch
p82
Vx86
p83
sVfeaturesets
p84
(lp85
Vnone
p86
aVnone
p87
ass(Vbase
p88
g14
g87
tp89
(dp90
g9
I01
sg10
(lp91
Vaptosid-686
p92
ass(Vabi
p93
tp94
(dp95
Vabiname
p96
V5.slh.1
p97
ss(Vbase
p98
g5
tp99
(dp100
Vkernel-arch
p101
Vx86
p102
sVfeaturesets
p103
(lp104
g86
ag6
ass(Vbuild
p105
g14
tp106
(dp107
Vdebug-info
p108
I00
sVimage-file
p109
Varch/x86/boot/bzImage
p110
ss(Vdescription
p111
g5
g6
Vaptosid-amd64
p112
tp113
(dp114
Vparts
p115
(lp116
Vxen
p117
ass(Vbuild
p118
g5
tp119
(dp120
Vdebug-info
p121
I00
sVimage-file
p122
Varch/x86/boot/bzImage
p123
ss(Vdescription
p124
tp125
(dp126
Vpart-long-up
p127
VThis kernel is not suitable for SMP (multi-processor,\u000amulti-core or hyper-threaded) systems.
p128
sVpart-long-xen
p129
VThis kernel also runs on a Xen hypervisor.\u000aIt supports both privileged (dom0) and unprivileged (domU) operation.
p130
ss(Vversion
p131
tp132
(dp133
Vupstream
p134
V4.8
p135
sVsource
p136
V4.8-9
p137
sVabiname
p138
V4.8.0-5.slh.1
p139
sVabiname_base
p140
V4.8.0
p141
ss(Vimage
p142
g5
tp143
(dp144
Vinstall-stem
p145
Vvmlinuz
p146
sVbootloaders
p147
(lp148
Vgrub-pc
p149
aVextlinux
p150
aVgrub-efi-amd64
p151
asVbreaks
p152
Vxserver-xorg-input-vmmouse (<< 1:13.0.99)
p153
sVsuggests
p154
Vcrda
p155
sstp156
Rp157
.