ccopy_reg
_reconstructor
p0
(cdebian_linux.config
ConfigCore
p1
c__builtin__
dict
p2
(dp3
(Vimage
p4
Vamd64
p5
tp6
(dp7
Vsuggests
p8
Vcrda
p9
sVinstall-stem
p10
Vvmlinuz
p11
sVbreaks
p12
Vxserver-xorg-input-vmmouse (<< 1:13.0.99)
p13
sVbootloaders
p14
(lp15
Vgrub-pc
p16
aVextlinux
p17
aVgrub-efi-amd64
p18
ass(Vdescription
p19
g5
NVaptosid-amd64
p20
tp21
(dp22
Vhardware-long
p23
VPCs with AMD64 or Intel 64 processors
p24
sVhardware
p25
V64-bit PCs
p26
ss(Vdescription
p27
Vi386
p28
NVaptosid-686
p29
tp30
(dp31
Vhardware-long
p32
VPCs with Intel Pentium Pro/II/III/4/4M/D/M, Xeon, Celeron, Core or Atom; AMD Geode LX/NX, Athlon (K7), Duron, Opteron, Sempron, Turion or Phenom; Transmeta Efficeon; VIA C3 "Nehemiah" or C7 processors
p33
sVhardware
p34
Vmodern PCs
p35
ss(Vimage
p36
tp37
(dp38
Vinitramfs-generators
p39
(lp40
Vinitramfs-tools
p41
aVinitramfs-fallback
p42
ass(Vabi
p43
tp44
(dp45
Vabiname
p46
V9.slh.1
p47
ss(Vbuild
p48
g5
tp49
(dp50
Vimage-file
p51
Varch/x86/boot/bzImage
p52
sVdebug-info
p53
I00
ss(Vimage
p54
g28
tp55
(dp56
Vsuggests
p57
Vcrda
p58
sVinstall-stem
p59
Vvmlinuz
p60
sVbreaks
p61
Vxserver-xorg-input-vmmouse (<< 1:13.0.99)
p62
sVbootloaders
p63
(lp64
Vgrub-pc
p65
aVextlinux
p66
aVgrub-efi-ia32
p67
ass(Vbase
p68
g28
tp69
(dp70
Vkernel-arch
p71
Vx86
p72
sVfeaturesets
p73
(lp74
Vnone
p75
aVnone
p76
ass(Vbase
p77
tp78
(dp79
Vfeaturesets
p80
(lp81
Vnone
p82
asVarches
p83
(lp84
Vamd64
p85
aVi386
p86
asVcompiler
p87
Vgcc-6
p88
ss(Vbase
p89
g5
Vnone
p90
tp91
(dp92
Vimplicit-flavour
p93
I01
sVflavours
p94
(lp95
Vaptosid-amd64
p96
ass(Vbuild
p97
g28
tp98
(dp99
Vimage-file
p100
Varch/x86/boot/bzImage
p101
sVdebug-info
p102
I00
ss(Vrelations
p103
tp104
(dp105
Vinitramfs-fallback
p106
Vlinux-initramfs-tool
p107
sVinitramfs-tools
p108
Vinitramfs-tools (>= 0.121~)
p109
sVgcc-6
p110
Vgcc-6
p111
ss(Vbase
p112
g28
g76
tp113
(dp114
g93
I01
sg94
(lp115
Vaptosid-686
p116
ass(Vdescription
p117
tp118
(dp119
Vpart-long-xen
p120
VThis kernel also runs on a Xen hypervisor.\u000aIt supports both privileged (dom0) and unprivileged (domU) operation.
p121
sVpart-long-up
p122
VThis kernel is not suitable for SMP (multi-processor,\u000amulti-core or hyper-threaded) systems.
p123
ss(Vversion
p124
tp125
(dp126
Vabiname
p127
V4.10.0-9.slh.1
p128
sVabiname_base
p129
V4.10.0
p130
sVupstream
p131
V4.10
p132
sVsource
p133
V4.10-14
p134
ss(Vbase
p135
g5
tp136
(dp137
Vkernel-arch
p138
Vx86
p139
sVfeaturesets
p140
(lp141
g75
ag90
ass(Vdescription
p142
g5
g90
Vaptosid-amd64
p143
tp144
(dp145
Vparts
p146
(lp147
Vxen
p148
asstp149
Rp150
.