ccopy_reg
_reconstructor
p0
(cdebian_linux.config
ConfigCore
p1
c__builtin__
dict
p2
(dp3
(Vrelations
p4
tp5
(dp6
Vinitramfs-fallback
p7
Vlinux-initramfs-tool
p8
sVgcc-6
p9
Vgcc-6
p10
sVinitramfs-tools
p11
Vinitramfs-tools (>= 0.121~)
p12
ss(Vimage
p13
Vi386
p14
tp15
(dp16
Vinstall-stem
p17
Vvmlinuz
p18
sVbootloaders
p19
(lp20
Vgrub-pc
p21
aVextlinux
p22
aVgrub-efi-ia32
p23
asVsuggests
p24
Vcrda
p25
sVbreaks
p26
Vxserver-xorg-input-vmmouse (<< 1:13.0.99)
p27
ss(Vdescription
p28
Vamd64
p29
Vnone
p30
Vaptosid-amd64
p31
tp32
(dp33
Vparts
p34
(lp35
Vxen
p36
ass(Vbase
p37
g14
tp38
(dp39
Vkernel-arch
p40
Vx86
p41
sVfeaturesets
p42
(lp43
Vnone
p44
aVnone
p45
ass(Vbuild
p46
g14
tp47
(dp48
Vimage-file
p49
Varch/x86/boot/bzImage
p50
sVdebug-info
p51
I00
ss(Vabi
p52
tp53
(dp54
Vabiname
p55
V7.slh.1
p56
ss(Vimage
p57
tp58
(dp59
Vinitramfs-generators
p60
(lp61
Vinitramfs-tools
p62
aVinitramfs-fallback
p63
ass(Vimage
p64
g29
tp65
(dp66
Vinstall-stem
p67
Vvmlinuz
p68
sVbootloaders
p69
(lp70
Vgrub-pc
p71
aVextlinux
p72
aVgrub-efi-amd64
p73
asVsuggests
p74
Vcrda
p75
sVbreaks
p76
Vxserver-xorg-input-vmmouse (<< 1:13.0.99)
p77
ss(Vbase
p78
tp79
(dp80
Varches
p81
(lp82
Vamd64
p83
aVi386
p84
asVcompiler
p85
Vgcc-6
p86
sVfeaturesets
p87
(lp88
Vnone
p89
ass(Vbuild
p90
g29
tp91
(dp92
Vimage-file
p93
Varch/x86/boot/bzImage
p94
sVdebug-info
p95
I00
ss(Vdescription
p96
g14
NVaptosid-686
p97
tp98
(dp99
Vhardware-long
p100
VPCs with Intel Pentium Pro/II/III/4/4M/D/M, Xeon, Celeron, Core or Atom; AMD Geode LX/NX, Athlon (K7), Duron, Opteron, Sempron, Turion or Phenom; Transmeta Efficeon; VIA C3 "Nehemiah" or C7 processors
p101
sVhardware
p102
Vmodern PCs
p103
ss(Vbase
p104
g29
g30
tp105
(dp106
Vflavours
p107
(lp108
Vaptosid-amd64
p109
asVimplicit-flavour
p110
I01
ss(Vbase
p111
g14
g45
tp112
(dp113
g107
(lp114
Vaptosid-686
p115
asg110
I01
ss(Vdescription
p116
tp117
(dp118
Vpart-long-xen
p119
VThis kernel also runs on a Xen hypervisor.\u000aIt supports both privileged (dom0) and unprivileged (domU) operation.
p120
sVpart-long-up
p121
VThis kernel is not suitable for SMP (multi-processor,\u000amulti-core or hyper-threaded) systems.
p122
ss(Vdescription
p123
g29
NVaptosid-amd64
p124
tp125
(dp126
Vhardware-long
p127
VPCs with AMD64 or Intel 64 processors
p128
sVhardware
p129
V64-bit PCs
p130
ss(Vversion
p131
tp132
(dp133
Vsource
p134
V4.10-12
p135
sVabiname
p136
V4.10.0-7.slh.1
p137
sVabiname_base
p138
V4.10.0
p139
sVupstream
p140
V4.10
p141
ss(Vbase
p142
g29
tp143
(dp144
Vkernel-arch
p145
Vx86
p146
sVfeaturesets
p147
(lp148
g44
ag30
asstp149
Rp150
.