ccopy_reg
_reconstructor
p0
(cdebian_linux.config
ConfigCore
p1
c__builtin__
dict
p2
(dp3
(Vbase
p4
Vamd64
p5
tp6
(dp7
Vkernel-arch
p8
Vx86
p9
sVfeaturesets
p10
(lp11
Vnone
p12
aVnone
p13
ass(Vdescription
p14
Vi386
p15
NVaptosid-686
p16
tp17
(dp18
Vhardware
p19
Vmodern PCs
p20
sVhardware-long
p21
VPCs with Intel Pentium Pro/II/III/4/4M/D/M, Xeon, Celeron, Core or Atom; AMD Geode LX/NX, Athlon (K7), Duron, Opteron, Sempron, Turion or Phenom; Transmeta Efficeon; VIA C3 "Nehemiah" or C7 processors
p22
ss(Vbase
p23
g5
g13
tp24
(dp25
Vflavours
p26
(lp27
Vaptosid-amd64
p28
asVimplicit-flavour
p29
I01
ss(Vdescription
p30
g5
NVaptosid-amd64
p31
tp32
(dp33
Vhardware
p34
V64-bit PCs
p35
sVhardware-long
p36
VPCs with AMD64 or Intel 64 processors
p37
ss(Vimage
p38
g15
tp39
(dp40
Vsuggests
p41
Vcrda
p42
sVbreaks
p43
Vxserver-xorg-input-vmmouse (<< 1:13.0.99)
p44
sVbootloaders
p45
(lp46
Vgrub-pc
p47
aVextlinux
p48
aVgrub-efi-ia32
p49
asVinstall-stem
p50
Vvmlinuz
p51
ss(Vbase
p52
g15
tp53
(dp54
Vkernel-arch
p55
Vx86
p56
sVfeaturesets
p57
(lp58
g12
aVnone
p59
ass(Vdescription
p60
tp61
(dp62
Vpart-long-xen
p63
VThis kernel also runs on a Xen hypervisor.\u000aIt supports both privileged (dom0) and unprivileged (domU) operation.
p64
sVpart-long-up
p65
VThis kernel is not suitable for SMP (multi-processor,\u000amulti-core or hyper-threaded) systems.
p66
ss(Vbase
p67
g15
g59
tp68
(dp69
g26
(lp70
Vaptosid-686
p71
asg29
I01
ss(Vrelations
p72
tp73
(dp74
Vinitramfs-fallback
p75
Vlinux-initramfs-tool
p76
sVgcc-6
p77
Vgcc-6
p78
sVinitramfs-tools
p79
Vinitramfs-tools (>= 0.121~)
p80
ss(Vbase
p81
tp82
(dp83
Varches
p84
(lp85
Vamd64
p86
aVi386
p87
asVcompiler
p88
Vgcc-6
p89
sVfeaturesets
p90
(lp91
Vnone
p92
ass(Vimage
p93
tp94
(dp95
Vinitramfs-generators
p96
(lp97
Vinitramfs-tools
p98
aVinitramfs-fallback
p99
ass(Vabi
p100
tp101
(dp102
Vabiname
p103
V4.slh.1
p104
ss(Vbuild
p105
g5
tp106
(dp107
Vimage-file
p108
Varch/x86/boot/bzImage
p109
sVdebug-info
p110
I00
ss(Vdescription
p111
g5
g13
Vaptosid-amd64
p112
tp113
(dp114
Vparts
p115
(lp116
Vxen
p117
ass(Vversion
p118
tp119
(dp120
Vabiname_base
p121
V4.10.0
p122
sVsource
p123
V4.10-8
p124
sVupstream
p125
V4.10
p126
sVabiname
p127
V4.10.0-4.slh.1
p128
ss(Vimage
p129
g5
tp130
(dp131
Vsuggests
p132
Vcrda
p133
sVbreaks
p134
Vxserver-xorg-input-vmmouse (<< 1:13.0.99)
p135
sVbootloaders
p136
(lp137
Vgrub-pc
p138
aVextlinux
p139
aVgrub-efi-amd64
p140
asVinstall-stem
p141
Vvmlinuz
p142
ss(Vbuild
p143
g15
tp144
(dp145
Vimage-file
p146
Varch/x86/boot/bzImage
p147
sVdebug-info
p148
I00
sstp149
Rp150
.