ccopy_reg
_reconstructor
p0
(cdebian_linux.config
ConfigCore
p1
c__builtin__
dict
p2
(dp3
(Vbase
p4
tp5
(dp6
Varches
p7
(lp8
Vamd64
p9
aVi386
p10
asVcompiler
p11
Vgcc-6
p12
sVfeaturesets
p13
(lp14
Vnone
p15
ass(Vbase
p16
Vi386
p17
tp18
(dp19
Vkernel-arch
p20
Vx86
p21
sVfeaturesets
p22
(lp23
Vnone
p24
aVnone
p25
ass(Vdescription
p26
tp27
(dp28
Vpart-long-xen
p29
VThis kernel also runs on a Xen hypervisor.\u000aIt supports both privileged (dom0) and unprivileged (domU) operation.
p30
sVpart-long-up
p31
VThis kernel is not suitable for SMP (multi-processor,\u000amulti-core or hyper-threaded) systems.
p32
ss(Vbuild
p33
Vamd64
p34
tp35
(dp36
Vdebug-info
p37
I00
sVimage-file
p38
Varch/x86/boot/bzImage
p39
ss(Vrelations
p40
tp41
(dp42
Vgcc-6
p43
Vgcc-6
p44
sVinitramfs-fallback
p45
Vlinux-initramfs-tool
p46
sVinitramfs-tools
p47
Vinitramfs-tools (>= 0.121~)
p48
ss(Vimage
p49
g17
tp50
(dp51
Vbreaks
p52
Vxserver-xorg-input-vmmouse (<< 1:13.0.99)
p53
sVbootloaders
p54
(lp55
Vgrub-pc
p56
aVextlinux
p57
aVgrub-efi-ia32
p58
asVsuggests
p59
Vcrda
p60
sVinstall-stem
p61
Vvmlinuz
p62
ss(Vdescription
p63
g17
NVaptosid-686
p64
tp65
(dp66
Vhardware
p67
Vmodern PCs
p68
sVhardware-long
p69
VPCs with Intel Pentium Pro/II/III/4/4M/D/M, Xeon, Celeron, Core or Atom; AMD Geode LX/NX, Athlon (K7), Duron, Opteron, Sempron, Turion or Phenom; Transmeta Efficeon; VIA C3 "Nehemiah" or C7 processors
p70
ss(Vabi
p71
tp72
(dp73
Vabiname
p74
V5.slh.1
p75
ss(Vdescription
p76
g34
NVaptosid-amd64
p77
tp78
(dp79
Vhardware
p80
V64-bit PCs
p81
sVhardware-long
p82
VPCs with AMD64 or Intel 64 processors
p83
ss(Vbase
p84
g34
Vnone
p85
tp86
(dp87
Vflavours
p88
(lp89
Vaptosid-amd64
p90
asVimplicit-flavour
p91
I01
ss(Vversion
p92
tp93
(dp94
Vabiname_base
p95
V4.10.0
p96
sVabiname
p97
V4.10.0-5.slh.1
p98
sVupstream
p99
V4.10
p100
sVsource
p101
V4.10-10
p102
ss(Vbase
p103
g34
tp104
(dp105
Vkernel-arch
p106
Vx86
p107
sVfeaturesets
p108
(lp109
g24
ag85
ass(Vimage
p110
tp111
(dp112
Vinitramfs-generators
p113
(lp114
Vinitramfs-tools
p115
aVinitramfs-fallback
p116
ass(Vdescription
p117
g34
g85
Vaptosid-amd64
p118
tp119
(dp120
Vparts
p121
(lp122
Vxen
p123
ass(Vbase
p124
g17
g25
tp125
(dp126
g88
(lp127
Vaptosid-686
p128
asg91
I01
ss(Vbuild
p129
g17
tp130
(dp131
Vdebug-info
p132
I00
sVimage-file
p133
Varch/x86/boot/bzImage
p134
ss(Vimage
p135
g34
tp136
(dp137
Vbreaks
p138
Vxserver-xorg-input-vmmouse (<< 1:13.0.99)
p139
sVbootloaders
p140
(lp141
Vgrub-pc
p142
aVextlinux
p143
aVgrub-efi-amd64
p144
asVsuggests
p145
Vcrda
p146
sVinstall-stem
p147
Vvmlinuz
p148
sstp149
Rp150
.