ccopy_reg
_reconstructor
p0
(cdebian_linux.config
ConfigCore
p1
c__builtin__
dict
p2
(dp3
(Vimage
p4
Vamd64
p5
NVaptosid-amd64
p6
tp7
(dp8
Vconfigs
p9
(lp10
Vkernelarch-x86/config-arch-64
p11
ass(Vdescription
p12
g5
NVaptosid-amd64
p13
tp14
(dp15
Vhardware-long
p16
VPCs with AMD64 or Intel 64 processors
p17
sVhardware
p18
V64-bit PCs
p19
ss(Vrelations
p20
tp21
(dp22
Vgcc-5
p23
Vgcc-5
p24
sVinitramfs-fallback
p25
Vlinux-initramfs-tool
p26
sVinitramfs-tools
p27
Vinitramfs-tools (>= 0.118+c0.aptosid.1~)
p28
ss(Vbuild
p29
Vi386
p30
tp31
(dp32
Vimage-file
p33
Varch/x86/boot/bzImage
p34
sVdebug-info
p35
I00
ss(Vdescription
p36
tp37
(dp38
Vpart-long-xen
p39
VThis kernel also runs on a Xen hypervisor.\u000aIt supports both privileged (dom0) and unprivileged (domU) operation.
p40
sVpart-long-up
p41
VThis kernel is not suitable for SMP (multi-processor,\u000amulti-core or hyper-threaded) systems.
p42
ss(Vimage
p43
tp44
(dp45
Vinitramfs-generators
p46
(lp47
Vinitramfs-tools
p48
aVinitramfs-fallback
p49
asVtype
p50
Vplain
p51
ss(Vdescription
p52
g30
NVaptosid-686
p53
tp54
(dp55
Vhardware-long
p56
VPCs with Intel Pentium Pro/II/III/4/4M/D/M, Xeon, Celeron, Core or Atom; AMD Geode LX/NX, Athlon (K7), Duron, Opteron, Sempron, Turion or Phenom; Transmeta Efficeon; VIA C3 "Nehemiah" or C7 processors
p57
sVhardware
p58
Vmodern PCs
p59
ss(Vbuild
p60
g5
tp61
(dp62
Vimage-file
p63
Varch/x86/boot/bzImage
p64
sVdebug-info
p65
I00
ss(Vversion
p66
tp67
(dp68
Vsource
p69
V4.3-12
p70
sVabiname_base
p71
V4.3.0
p72
sVupstream
p73
V4.3
p74
sVabiname
p75
V4.3.0-3.slh.3
p76
ss(Vbase
p77
g5
Vnone
p78
tp79
(dp80
Vflavours
p81
(lp82
Vaptosid-amd64
p83
asVimplicit-flavour
p84
I01
ss(Vbase
p85
tp86
(dp87
Varches
p88
(lp89
Vamd64
p90
aVi386
p91
asVfeaturesets
p92
(lp93
Vnone
p94
asVcompiler
p95
Vgcc-5
p96
ss(Vabi
p97
tp98
(dp99
Vabiname
p100
V3.slh.3
p101
ss(Vbase
p102
g30
tp103
(dp104
Vfeaturesets
p105
(lp106
Vnone
p107
aVnone
p108
asVkernel-arch
p109
Vx86
p110
ss(Vimage
p111
g30
NVaptosid-686
p112
tp113
(dp114
Vrecommends
p115
Vlibc6-i686
p116
sVconfigs
p117
(lp118
Vkernelarch-x86/config-arch-32
p119
ass(Vxen
p120
g5
g78
Vaptosid-amd64
p121
tp122
(dp123
Vflavours
p124
(lp125
Vaptosid-amd64
p126
ass(Vimage
p127
g5
tp128
(dp129
Vsuggests
p130
Vcrda
p131
sVinstall-stem
p132
Vvmlinuz
p133
sVconfigs
p134
(lp135
sVbootloaders
p136
(lp137
Vgrub-pc
p138
aVextlinux
p139
aVgrub-efi-amd64
p140
ass(Vimage
p141
g30
tp142
(dp143
Vsuggests
p144
Vcrda
p145
sVinstall-stem
p146
Vvmlinuz
p147
sVconfigs
p148
(lp149
sVbootloaders
p150
(lp151
Vgrub-pc
p152
aVextlinux
p153
aVgrub-efi-ia32
p154
ass(Vbase
p155
g5
tp156
(dp157
Vfeaturesets
p158
(lp159
g107
ag78
asVkernel-arch
p160
Vx86
p161
ss(Vbase
p162
g30
g108
tp163
(dp164
g81
(lp165
Vaptosid-686
p166
asg84
I01
ss(Vdescription
p167
g5
g78
Vaptosid-amd64
p168
tp169
(dp170
Vparts
p171
(lp172
Vxen
p173
asstp174
Rp175
.