ccopy_reg
_reconstructor
p0
(cdebian_linux.config
ConfigCore
p1
c__builtin__
dict
p2
(dp3
(Vbase
p4
Vamd64
p5
Vnone
p6
tp7
(dp8
Vimplicit-flavour
p9
I01
sVflavours
p10
(lp11
Vaptosid-amd64
p12
ass(Vabi
p13
tp14
(dp15
Vabiname
p16
V11.slh.1
p17
ss(Vimage
p18
Vi386
p19
tp20
(dp21
Vinstall-stem
p22
Vvmlinuz
p23
sVbreaks
p24
Vxserver-xorg-input-vmmouse (<< 1:13.0.99)
p25
sVbootloaders
p26
(lp27
Vgrub-pc
p28
aVextlinux
p29
aVgrub-efi-ia32
p30
asVsuggests
p31
Vcrda
p32
ss(Vdescription
p33
g5
NVaptosid-amd64
p34
tp35
(dp36
Vhardware-long
p37
VPCs with AMD64 or Intel 64 processors
p38
sVhardware
p39
V64-bit PCs
p40
ss(Vdescription
p41
tp42
(dp43
Vpart-long-up
p44
VThis kernel is not suitable for SMP (multi-processor,\u000amulti-core or hyper-threaded) systems.
p45
sVpart-long-xen
p46
VThis kernel also runs on a Xen hypervisor.\u000aIt supports both privileged (dom0) and unprivileged (domU) operation.
p47
ss(Vbuild
p48
g5
tp49
(dp50
Vdebug-info
p51
I00
sVimage-file
p52
Varch/x86/boot/bzImage
p53
ss(Vbase
p54
g19
tp55
(dp56
Vkernel-arch
p57
Vx86
p58
sVfeaturesets
p59
(lp60
Vnone
p61
aVnone
p62
ass(Vimage
p63
tp64
(dp65
Vinitramfs-generators
p66
(lp67
Vinitramfs-tools
p68
aVinitramfs-fallback
p69
ass(Vdescription
p70
g5
g6
Vaptosid-amd64
p71
tp72
(dp73
Vparts
p74
(lp75
Vxen
p76
ass(Vxen
p77
g5
g6
Vaptosid-amd64
p78
tp79
(dp80
Vflavours
p81
(lp82
Vaptosid-amd64
p83
ass(Vrelations
p84
tp85
(dp86
Vgcc-6
p87
Vgcc-6
p88
sVinitramfs-fallback
p89
Vlinux-initramfs-tool
p90
sVinitramfs-tools
p91
Vinitramfs-tools (>= 0.121~)
p92
ss(Vimage
p93
g5
tp94
(dp95
Vinstall-stem
p96
Vvmlinuz
p97
sVbreaks
p98
Vxserver-xorg-input-vmmouse (<< 1:13.0.99)
p99
sVbootloaders
p100
(lp101
Vgrub-pc
p102
aVextlinux
p103
aVgrub-efi-amd64
p104
asVsuggests
p105
Vcrda
p106
ss(Vbase
p107
g19
g62
tp108
(dp109
g9
I01
sg10
(lp110
Vaptosid-686
p111
ass(Vversion
p112
tp113
(dp114
Vabiname_base
p115
V4.8.0
p116
sVsource
p117
V4.8-17
p118
sVabiname
p119
V4.8.0-11.slh.1
p120
sVupstream
p121
V4.8
p122
ss(Vbuild
p123
g19
tp124
(dp125
Vdebug-info
p126
I00
sVimage-file
p127
Varch/x86/boot/bzImage
p128
ss(Vbase
p129
g5
tp130
(dp131
Vkernel-arch
p132
Vx86
p133
sVfeaturesets
p134
(lp135
g61
ag6
ass(Vbase
p136
tp137
(dp138
Vcompiler
p139
Vgcc-6
p140
sVarches
p141
(lp142
Vamd64
p143
aVi386
p144
asVfeaturesets
p145
(lp146
Vnone
p147
ass(Vdescription
p148
g19
NVaptosid-686
p149
tp150
(dp151
Vhardware-long
p152
VPCs with Intel Pentium Pro/II/III/4/4M/D/M, Xeon, Celeron, Core or Atom; AMD Geode LX/NX, Athlon (K7), Duron, Opteron, Sempron, Turion or Phenom; Transmeta Efficeon; VIA C3 "Nehemiah" or C7 processors
p153
sVhardware
p154
Vmodern PCs
p155
sstp156
Rp157
.