ccopy_reg
_reconstructor
p0
(cdebian_linux.config
ConfigCore
p1
c__builtin__
dict
p2
(dp3
(Vbase
p4
tp5
(dp6
Varches
p7
(lp8
Vamd64
p9
aVi386
p10
asVfeaturesets
p11
(lp12
Vnone
p13
asVcompiler
p14
Vgcc-6
p15
ss(Vdescription
p16
tp17
(dp18
Vpart-long-xen
p19
VThis kernel also runs on a Xen hypervisor.\u000aIt supports both privileged (dom0) and unprivileged (domU) operation.
p20
sVpart-long-up
p21
VThis kernel is not suitable for SMP (multi-processor,\u000amulti-core or hyper-threaded) systems.
p22
ss(Vdescription
p23
Vamd64
p24
Vnone
p25
Vaptosid-amd64
p26
tp27
(dp28
Vparts
p29
(lp30
Vxen
p31
ass(Vdescription
p32
g24
NVaptosid-amd64
p33
tp34
(dp35
Vhardware
p36
V64-bit PCs
p37
sVhardware-long
p38
VPCs with AMD64 or Intel 64 processors
p39
ss(Vbase
p40
Vi386
p41
Vnone
p42
tp43
(dp44
Vimplicit-flavour
p45
I01
sVflavours
p46
(lp47
Vaptosid-686
p48
ass(Vbase
p49
g24
g25
tp50
(dp51
g45
I01
sg46
(lp52
Vaptosid-amd64
p53
ass(Vimage
p54
g41
tp55
(dp56
Vsuggests
p57
Vcrda
p58
sVbreaks
p59
Vxserver-xorg-input-vmmouse (<< 1:13.0.99)
p60
sVinstall-stem
p61
Vvmlinuz
p62
sVbootloaders
p63
(lp64
Vgrub-pc
p65
aVextlinux
p66
aVgrub-efi-ia32
p67
ass(Vabi
p68
tp69
(dp70
Vabiname
p71
V7.slh.1
p72
ss(Vversion
p73
tp74
(dp75
Vabiname_base
p76
V4.11.0
p77
sVsource
p78
V4.11-14
p79
sVupstream
p80
V4.11
p81
sVabiname
p82
V4.11.0-7.slh.1
p83
ss(Vbase
p84
g41
tp85
(dp86
Vkernel-arch
p87
Vx86
p88
sVfeaturesets
p89
(lp90
Vnone
p91
ag42
ass(Vrelations
p92
tp93
(dp94
Vgcc-6
p95
Vgcc-6
p96
sVinitramfs-fallback
p97
Vlinux-initramfs-tool
p98
sVinitramfs-tools
p99
Vinitramfs-tools (>= 0.121~)
p100
ss(Vbuild
p101
g41
tp102
(dp103
Vdebug-info
p104
I00
sVimage-file
p105
Varch/x86/boot/bzImage
p106
ss(Vdescription
p107
g41
NVaptosid-686
p108
tp109
(dp110
Vhardware
p111
Vmodern PCs
p112
sVhardware-long
p113
VPCs with Intel Pentium Pro/II/III/4/4M/D/M, Xeon, Celeron, Core or Atom; AMD Geode LX/NX, Athlon (K7), Duron, Opteron, Sempron, Turion or Phenom; Transmeta Efficeon; VIA C3 "Nehemiah" or C7 processors
p114
ss(Vbase
p115
g24
tp116
(dp117
Vkernel-arch
p118
Vx86
p119
sVfeaturesets
p120
(lp121
g91
ag25
ass(Vimage
p122
g24
tp123
(dp124
Vsuggests
p125
Vcrda
p126
sVbreaks
p127
Vxserver-xorg-input-vmmouse (<< 1:13.0.99)
p128
sVinstall-stem
p129
Vvmlinuz
p130
sVbootloaders
p131
(lp132
Vgrub-pc
p133
aVextlinux
p134
aVgrub-efi-amd64
p135
ass(Vimage
p136
tp137
(dp138
Vinitramfs-generators
p139
(lp140
Vinitramfs-tools
p141
aVinitramfs-fallback
p142
ass(Vbuild
p143
g24
tp144
(dp145
Vdebug-info
p146
I00
sVimage-file
p147
Varch/x86/boot/bzImage
p148
sstp149
Rp150
.