ccopy_reg
_reconstructor
p0
(cdebian_linux.config
ConfigCore
p1
c__builtin__
dict
p2
(dp3
(Vbase
p4
tp5
(dp6
Varches
p7
(lp8
Vamd64
p9
aVi386
p10
asVfeaturesets
p11
(lp12
Vnone
p13
asVcompiler
p14
Vgcc-7
p15
ss(Vbase
p16
Vamd64
p17
Vnone
p18
tp19
(dp20
Vimplicit-flavour
p21
I01
sVflavours
p22
(lp23
Vaptosid-amd64
p24
ass(Vbase
p25
g17
tp26
(dp27
Vkernel-arch
p28
Vx86
p29
sVfeaturesets
p30
(lp31
Vnone
p32
ag18
ass(Vimage
p33
tp34
(dp35
Vinitramfs-generators
p36
(lp37
Vinitramfs-tools
p38
aVinitramfs-fallback
p39
ass(Vrelations
p40
tp41
(dp42
Vinitramfs-fallback
p43
Vlinux-initramfs-tool
p44
sVinitramfs-tools
p45
Vinitramfs-tools (>= 0.121~)
p46
sVgcc-7
p47
Vgcc-7
p48
ss(Vdescription
p49
g17
NVaptosid-amd64
p50
tp51
(dp52
Vhardware
p53
V64-bit PCs
p54
sVhardware-long
p55
VPCs with AMD64 or Intel 64 processors
p56
ss(Vbuild
p57
Vi386
p58
tp59
(dp60
Vimage-file
p61
Varch/x86/boot/bzImage
p62
sVdebug-info
p63
I00
ss(Vbuild
p64
g17
tp65
(dp66
Vimage-file
p67
Varch/x86/boot/bzImage
p68
sVdebug-info
p69
I00
ss(Vbase
p70
g58
tp71
(dp72
Vkernel-arch
p73
Vx86
p74
sVfeaturesets
p75
(lp76
g32
aVnone
p77
ass(Vdescription
p78
g17
g18
Vaptosid-amd64
p79
tp80
(dp81
Vparts
p82
(lp83
Vxen
p84
ass(Vabi
p85
tp86
(dp87
Vabiname
p88
V5.slh.1
p89
ss(Vdescription
p90
tp91
(dp92
Vpart-long-up
p93
VThis kernel is not suitable for SMP (multi-processor,\u000amulti-core or hyper-threaded) systems.
p94
sVpart-long-xen
p95
VThis kernel also runs on a Xen hypervisor.\u000aIt supports both privileged (dom0) and unprivileged (domU) operation.
p96
ss(Vdescription
p97
g58
NVaptosid-686
p98
tp99
(dp100
Vhardware
p101
Vmodern PCs
p102
sVhardware-long
p103
VPCs with Intel Pentium Pro/II/III/4/4M/D/M, Xeon, Celeron, Core or Atom; AMD Geode LX/NX, Athlon (K7), Duron, Opteron, Sempron, Turion or Phenom; Transmeta Efficeon; VIA C3 "Nehemiah" or C7 processors
p104
ss(Vbase
p105
g58
g77
tp106
(dp107
g21
I01
sg22
(lp108
Vaptosid-686
p109
ass(Vimage
p110
g58
tp111
(dp112
Vbreaks
p113
Vxserver-xorg-input-vmmouse (<< 1:13.0.99)
p114
sVinstall-stem
p115
Vvmlinuz
p116
sVbootloaders
p117
(lp118
Vgrub-pc
p119
aVextlinux
p120
aVgrub-efi-ia32
p121
asVsuggests
p122
Vcrda
p123
ss(Vimage
p124
g17
tp125
(dp126
Vbreaks
p127
Vxserver-xorg-input-vmmouse (<< 1:13.0.99)
p128
sVinstall-stem
p129
Vvmlinuz
p130
sVbootloaders
p131
(lp132
Vgrub-pc
p133
aVextlinux
p134
aVgrub-efi-amd64
p135
asVsuggests
p136
Vcrda
p137
ss(Vversion
p138
tp139
(dp140
Vupstream
p141
V4.13
p142
sVsource
p143
V4.13-11
p144
sVabiname
p145
V4.13.0-5.slh.1
p146
sVabiname_base
p147
V4.13.0
p148
sstp149
Rp150
.