ccopy_reg
_reconstructor
p0
(cdebian_linux.config
ConfigCore
p1
c__builtin__
dict
p2
(dp3
(Vdescription
p4
Vamd64
p5
NVaptosid-amd64
p6
tp7
(dp8
Vhardware
p9
V64-bit PCs
p10
sVhardware-long
p11
VPCs with AMD64 or Intel 64 processors
p12
ss(Vbuild
p13
g5
tp14
(dp15
Vimage-file
p16
Varch/x86/boot/bzImage
p17
sVdebug-info
p18
I00
ss(Vimage
p19
Vi386
p20
tp21
(dp22
Vsuggests
p23
Vcrda
p24
sVconfigs
p25
(lp26
sVbootloaders
p27
(lp28
Vgrub-pc
p29
aVextlinux
p30
aVgrub-efi-ia32
p31
asVinstall-stem
p32
Vvmlinuz
p33
ss(Vimage
p34
g5
NVaptosid-amd64
p35
tp36
(dp37
Vconfigs
p38
(lp39
Vkernelarch-x86/config-arch-64
p40
ass(Vdescription
p41
g20
NVaptosid-686
p42
tp43
(dp44
Vhardware
p45
Vmodern PCs
p46
sVhardware-long
p47
VPCs with Intel Pentium Pro/II/III/4/4M/D/M, Xeon, Celeron, Core or Atom; AMD Geode LX/NX, Athlon (K7), Duron, Opteron, Sempron, Turion or Phenom; Transmeta Efficeon; VIA C3 "Nehemiah" or C7 processors
p48
ss(Vxen
p49
g5
Vnone
p50
Vaptosid-amd64
p51
tp52
(dp53
Vflavours
p54
(lp55
Vaptosid-amd64
p56
ass(Vimage
p57
g5
tp58
(dp59
Vsuggests
p60
Vcrda
p61
sVconfigs
p62
(lp63
sVbootloaders
p64
(lp65
Vgrub-pc
p66
aVextlinux
p67
aVgrub-efi-amd64
p68
asVinstall-stem
p69
Vvmlinuz
p70
ss(Vbase
p71
tp72
(dp73
Varches
p74
(lp75
Vamd64
p76
aVi386
p77
asVcompiler
p78
Vgcc-5
p79
sVfeaturesets
p80
(lp81
Vnone
p82
ass(Vbuild
p83
g20
tp84
(dp85
Vimage-file
p86
Varch/x86/boot/bzImage
p87
sVdebug-info
p88
I00
ss(Vbase
p89
g20
tp90
(dp91
Vfeaturesets
p92
(lp93
Vnone
p94
aVnone
p95
asVkernel-arch
p96
Vx86
p97
ss(Vbase
p98
g20
g95
tp99
(dp100
Vflavours
p101
(lp102
Vaptosid-686
p103
asVimplicit-flavour
p104
I01
ss(Vdescription
p105
g5
g50
Vaptosid-amd64
p106
tp107
(dp108
Vparts
p109
(lp110
Vxen
p111
ass(Vimage
p112
tp113
(dp114
Vtype
p115
Vplain
p116
sVinitramfs-generators
p117
(lp118
Vinitramfs-tools
p119
aVinitramfs-fallback
p120
ass(Vdescription
p121
tp122
(dp123
Vpart-long-up
p124
VThis kernel is not suitable for SMP (multi-processor,\u000amulti-core or hyper-threaded) systems.
p125
sVpart-long-xen
p126
VThis kernel also runs on a Xen hypervisor.\u000aIt supports both privileged (dom0) and unprivileged (domU) operation.
p127
ss(Vimage
p128
g20
NVaptosid-686
p129
tp130
(dp131
Vconfigs
p132
(lp133
Vkernelarch-x86/config-arch-32
p134
asVrecommends
p135
Vlibc6-i686
p136
ss(Vrelations
p137
tp138
(dp139
Vinitramfs-tools
p140
Vinitramfs-tools (>= 0.118+c0.aptosid.1~)
p141
sVgcc-5
p142
Vgcc-5
p143
sVinitramfs-fallback
p144
Vlinux-initramfs-tool
p145
ss(Vbase
p146
g5
g50
tp147
(dp148
g101
(lp149
Vaptosid-amd64
p150
asg104
I01
ss(Vversion
p151
tp152
(dp153
Vsource
p154
V4.3-10
p155
sVabiname_base
p156
V4.3.0
p157
sVupstream
p158
V4.3
p159
sVabiname
p160
V4.3.0-3.slh.1
p161
ss(Vbase
p162
g5
tp163
(dp164
Vfeaturesets
p165
(lp166
g94
ag50
asVkernel-arch
p167
Vx86
p168
ss(Vabi
p169
tp170
(dp171
Vabiname
p172
V3.slh.1
p173
sstp174
Rp175
.