ccopy_reg
_reconstructor
p0
(cdebian_linux.config
ConfigCore
p1
c__builtin__
dict
p2
(dp3
(Vimage
p4
Vamd64
p5
tp6
(dp7
Vsuggests
p8
Vcrda
p9
sVinstall-stem
p10
Vvmlinuz
p11
sVbreaks
p12
Vxserver-xorg-input-vmmouse (<< 1:13.0.99)
p13
sVbootloaders
p14
(lp15
Vgrub-pc
p16
aVextlinux
p17
aVgrub-efi-amd64
p18
ass(Vbase
p19
g5
tp20
(dp21
Vkernel-arch
p22
Vx86
p23
sVfeaturesets
p24
(lp25
Vnone
p26
aVnone
p27
ass(Vbase
p28
tp29
(dp30
Vfeaturesets
p31
(lp32
Vnone
p33
asVcompiler
p34
Vgcc-6
p35
sVarches
p36
(lp37
Vamd64
p38
aVi386
p39
ass(Vimage
p40
tp41
(dp42
Vinitramfs-generators
p43
(lp44
Vinitramfs-tools
p45
aVinitramfs-fallback
p46
ass(Vdescription
p47
Vi386
p48
NVaptosid-686
p49
tp50
(dp51
Vhardware
p52
Vmodern PCs
p53
sVhardware-long
p54
VPCs with Intel Pentium Pro/II/III/4/4M/D/M, Xeon, Celeron, Core or Atom; AMD Geode LX/NX, Athlon (K7), Duron, Opteron, Sempron, Turion or Phenom; Transmeta Efficeon; VIA C3 "Nehemiah" or C7 processors
p55
ss(Vbase
p56
g48
tp57
(dp58
Vkernel-arch
p59
Vx86
p60
sVfeaturesets
p61
(lp62
g26
aVnone
p63
ass(Vdescription
p64
g5
NVaptosid-amd64
p65
tp66
(dp67
Vhardware
p68
V64-bit PCs
p69
sVhardware-long
p70
VPCs with AMD64 or Intel 64 processors
p71
ss(Vversion
p72
tp73
(dp74
Vabiname_base
p75
V4.9.0
p76
sVsource
p77
V4.9-6
p78
sVupstream
p79
V4.9
p80
sVabiname
p81
V4.9.0-2.slh.2
p82
ss(Vrelations
p83
tp84
(dp85
Vgcc-6
p86
Vgcc-6
p87
sVinitramfs-tools
p88
Vinitramfs-tools (>= 0.121~)
p89
sVinitramfs-fallback
p90
Vlinux-initramfs-tool
p91
ss(Vbase
p92
g5
g27
tp93
(dp94
Vimplicit-flavour
p95
I01
sVflavours
p96
(lp97
Vaptosid-amd64
p98
ass(Vbuild
p99
g5
tp100
(dp101
Vdebug-info
p102
I00
sVimage-file
p103
Varch/x86/boot/bzImage
p104
ss(Vdescription
p105
tp106
(dp107
Vpart-long-up
p108
VThis kernel is not suitable for SMP (multi-processor,\u000amulti-core or hyper-threaded) systems.
p109
sVpart-long-xen
p110
VThis kernel also runs on a Xen hypervisor.\u000aIt supports both privileged (dom0) and unprivileged (domU) operation.
p111
ss(Vimage
p112
g48
tp113
(dp114
Vsuggests
p115
Vcrda
p116
sVinstall-stem
p117
Vvmlinuz
p118
sVbreaks
p119
Vxserver-xorg-input-vmmouse (<< 1:13.0.99)
p120
sVbootloaders
p121
(lp122
Vgrub-pc
p123
aVextlinux
p124
aVgrub-efi-ia32
p125
ass(Vabi
p126
tp127
(dp128
Vabiname
p129
V2.slh.2
p130
ss(Vdescription
p131
g5
g27
Vaptosid-amd64
p132
tp133
(dp134
Vparts
p135
(lp136
Vxen
p137
ass(Vbase
p138
g48
g63
tp139
(dp140
g95
I01
sg96
(lp141
Vaptosid-686
p142
ass(Vbuild
p143
g48
tp144
(dp145
Vdebug-info
p146
I00
sVimage-file
p147
Varch/x86/boot/bzImage
p148
sstp149
Rp150
.