ccopy_reg
_reconstructor
p0
(cdebian_linux.config
ConfigCore
p1
c__builtin__
dict
p2
(dp3
(Vbase
p4
tp5
(dp6
Varches
p7
(lp8
Vamd64
p9
aVi386
p10
asVcompiler
p11
Vgcc-6
p12
sVfeaturesets
p13
(lp14
Vnone
p15
ass(Vdescription
p16
Vamd64
p17
NVaptosid-amd64
p18
tp19
(dp20
Vhardware-long
p21
VPCs with AMD64 or Intel 64 processors
p22
sVhardware
p23
V64-bit PCs
p24
ss(Vbase
p25
Vi386
p26
tp27
(dp28
Vfeaturesets
p29
(lp30
Vnone
p31
aVnone
p32
asVkernel-arch
p33
Vx86
p34
ss(Vimage
p35
g17
tp36
(dp37
Vbootloaders
p38
(lp39
Vgrub-pc
p40
aVextlinux
p41
aVgrub-efi-amd64
p42
asVinstall-stem
p43
Vvmlinuz
p44
sVbreaks
p45
Vxserver-xorg-input-vmmouse (<< 1:13.0.99)
p46
sVsuggests
p47
Vcrda
p48
ss(Vbase
p49
g26
g32
tp50
(dp51
Vflavours
p52
(lp53
Vaptosid-686
p54
asVimplicit-flavour
p55
I01
ss(Vbase
p56
g17
Vnone
p57
tp58
(dp59
g52
(lp60
Vaptosid-amd64
p61
asg55
I01
ss(Vversion
p62
tp63
(dp64
Vsource
p65
V4.12-10
p66
sVupstream
p67
V4.12
p68
sVabiname_base
p69
V4.12.0
p70
sVabiname
p71
V4.12.0-4.slh.3
p72
ss(Vbuild
p73
g26
tp74
(dp75
Vimage-file
p76
Varch/x86/boot/bzImage
p77
sVdebug-info
p78
I00
ss(Vbuild
p79
g17
tp80
(dp81
Vimage-file
p82
Varch/x86/boot/bzImage
p83
sVdebug-info
p84
I00
ss(Vimage
p85
tp86
(dp87
Vinitramfs-generators
p88
(lp89
Vinitramfs-tools
p90
aVinitramfs-fallback
p91
ass(Vdescription
p92
g17
g57
Vaptosid-amd64
p93
tp94
(dp95
Vparts
p96
(lp97
Vxen
p98
ass(Vdescription
p99
tp100
(dp101
Vpart-long-xen
p102
VThis kernel also runs on a Xen hypervisor.\u000aIt supports both privileged (dom0) and unprivileged (domU) operation.
p103
sVpart-long-up
p104
VThis kernel is not suitable for SMP (multi-processor,\u000amulti-core or hyper-threaded) systems.
p105
ss(Vimage
p106
g26
tp107
(dp108
Vbootloaders
p109
(lp110
Vgrub-pc
p111
aVextlinux
p112
aVgrub-efi-ia32
p113
asVinstall-stem
p114
Vvmlinuz
p115
sVbreaks
p116
Vxserver-xorg-input-vmmouse (<< 1:13.0.99)
p117
sVsuggests
p118
Vcrda
p119
ss(Vabi
p120
tp121
(dp122
Vabiname
p123
V4.slh.3
p124
ss(Vdescription
p125
g26
NVaptosid-686
p126
tp127
(dp128
Vhardware-long
p129
VPCs with Intel Pentium Pro/II/III/4/4M/D/M, Xeon, Celeron, Core or Atom; AMD Geode LX/NX, Athlon (K7), Duron, Opteron, Sempron, Turion or Phenom; Transmeta Efficeon; VIA C3 "Nehemiah" or C7 processors
p130
sVhardware
p131
Vmodern PCs
p132
ss(Vbase
p133
g17
tp134
(dp135
Vfeaturesets
p136
(lp137
g31
ag57
asVkernel-arch
p138
Vx86
p139
ss(Vrelations
p140
tp141
(dp142
Vgcc-6
p143
Vgcc-6
p144
sVinitramfs-fallback
p145
Vlinux-initramfs-tool
p146
sVinitramfs-tools
p147
Vinitramfs-tools (>= 0.121~)
p148
sstp149
Rp150
.