ccopy_reg
_reconstructor
p0
(cdebian_linux.config
ConfigCore
p1
c__builtin__
dict
p2
(dp3
(Vabi
p4
tp5
(dp6
Vabiname
p7
V10.slh.1
p8
ss(Vdescription
p9
Vamd64
p10
Vnone
p11
Vaptosid-amd64
p12
tp13
(dp14
Vparts
p15
(lp16
Vxen
p17
ass(Vbuild
p18
Vi386
p19
tp20
(dp21
Vimage-file
p22
Varch/x86/boot/bzImage
p23
sVdebug-info
p24
I00
ss(Vimage
p25
tp26
(dp27
Vinitramfs-generators
p28
(lp29
Vinitramfs-tools
p30
aVinitramfs-fallback
p31
ass(Vversion
p32
tp33
(dp34
Vabiname_base
p35
V4.9.0
p36
sVabiname
p37
V4.9.0-10.slh.1
p38
sVupstream
p39
V4.9
p40
sVsource
p41
V4.9-17
p42
ss(Vdescription
p43
g19
NVaptosid-686
p44
tp45
(dp46
Vhardware
p47
Vmodern PCs
p48
sVhardware-long
p49
VPCs with Intel Pentium Pro/II/III/4/4M/D/M, Xeon, Celeron, Core or Atom; AMD Geode LX/NX, Athlon (K7), Duron, Opteron, Sempron, Turion or Phenom; Transmeta Efficeon; VIA C3 "Nehemiah" or C7 processors
p50
ss(Vbase
p51
g10
tp52
(dp53
Vkernel-arch
p54
Vx86
p55
sVfeaturesets
p56
(lp57
Vnone
p58
ag11
ass(Vbase
p59
tp60
(dp61
Varches
p62
(lp63
Vamd64
p64
aVi386
p65
asVcompiler
p66
Vgcc-6
p67
sVfeaturesets
p68
(lp69
Vnone
p70
ass(Vdescription
p71
tp72
(dp73
Vpart-long-xen
p74
VThis kernel also runs on a Xen hypervisor.\u000aIt supports both privileged (dom0) and unprivileged (domU) operation.
p75
sVpart-long-up
p76
VThis kernel is not suitable for SMP (multi-processor,\u000amulti-core or hyper-threaded) systems.
p77
ss(Vimage
p78
g19
tp79
(dp80
Vbootloaders
p81
(lp82
Vgrub-pc
p83
aVextlinux
p84
aVgrub-efi-ia32
p85
asVinstall-stem
p86
Vvmlinuz
p87
sVsuggests
p88
Vcrda
p89
sVbreaks
p90
Vxserver-xorg-input-vmmouse (<< 1:13.0.99)
p91
ss(Vdescription
p92
g10
NVaptosid-amd64
p93
tp94
(dp95
Vhardware
p96
V64-bit PCs
p97
sVhardware-long
p98
VPCs with AMD64 or Intel 64 processors
p99
ss(Vbase
p100
g19
tp101
(dp102
Vkernel-arch
p103
Vx86
p104
sVfeaturesets
p105
(lp106
g58
aVnone
p107
ass(Vbase
p108
g19
g107
tp109
(dp110
Vflavours
p111
(lp112
Vaptosid-686
p113
asVimplicit-flavour
p114
I01
ss(Vimage
p115
g10
tp116
(dp117
Vbootloaders
p118
(lp119
Vgrub-pc
p120
aVextlinux
p121
aVgrub-efi-amd64
p122
asVinstall-stem
p123
Vvmlinuz
p124
sVsuggests
p125
Vcrda
p126
sVbreaks
p127
Vxserver-xorg-input-vmmouse (<< 1:13.0.99)
p128
ss(Vbase
p129
g10
g11
tp130
(dp131
g111
(lp132
Vaptosid-amd64
p133
asg114
I01
ss(Vbuild
p134
g10
tp135
(dp136
Vimage-file
p137
Varch/x86/boot/bzImage
p138
sVdebug-info
p139
I00
ss(Vrelations
p140
tp141
(dp142
Vinitramfs-tools
p143
Vinitramfs-tools (>= 0.121~)
p144
sVinitramfs-fallback
p145
Vlinux-initramfs-tool
p146
sVgcc-6
p147
Vgcc-6
p148
sstp149
Rp150
.