ccopy_reg
_reconstructor
p0
(cdebian_linux.config
ConfigCore
p1
c__builtin__
dict
p2
(dp3
(Vbase
p4
tp5
(dp6
Vcompiler
p7
Vgcc-7
p8
sVarches
p9
(lp10
Vamd64
p11
aVi386
p12
asVfeaturesets
p13
(lp14
Vnone
p15
ass(Vdescription
p16
tp17
(dp18
Vpart-long-xen
p19
VThis kernel also runs on a Xen hypervisor.\u000aIt supports both privileged (dom0) and unprivileged (domU) operation.
p20
sVpart-long-up
p21
VThis kernel is not suitable for SMP (multi-processor,\u000amulti-core or hyper-threaded) systems.
p22
ss(Vversion
p23
tp24
(dp25
Vabiname_base
p26
V4.12.0
p27
sVupstream
p28
V4.12
p29
sVsource
p30
V4.12-11
p31
sVabiname
p32
V4.12.0-5.slh.1
p33
ss(Vbase
p34
Vamd64
p35
tp36
(dp37
Vkernel-arch
p38
Vx86
p39
sVfeaturesets
p40
(lp41
Vnone
p42
aVnone
p43
ass(Vabi
p44
tp45
(dp46
Vabiname
p47
V5.slh.1
p48
ss(Vbase
p49
g35
g43
tp50
(dp51
Vimplicit-flavour
p52
I01
sVflavours
p53
(lp54
Vaptosid-amd64
p55
ass(Vbase
p56
Vi386
p57
tp58
(dp59
Vkernel-arch
p60
Vx86
p61
sVfeaturesets
p62
(lp63
g42
aVnone
p64
ass(Vbase
p65
g57
g64
tp66
(dp67
g52
I01
sg53
(lp68
Vaptosid-686
p69
ass(Vbuild
p70
g35
tp71
(dp72
Vimage-file
p73
Varch/x86/boot/bzImage
p74
sVdebug-info
p75
I00
ss(Vdescription
p76
g35
g43
Vaptosid-amd64
p77
tp78
(dp79
Vparts
p80
(lp81
Vxen
p82
ass(Vdescription
p83
g57
NVaptosid-686
p84
tp85
(dp86
Vhardware-long
p87
VPCs with Intel Pentium Pro/II/III/4/4M/D/M, Xeon, Celeron, Core or Atom; AMD Geode LX/NX, Athlon (K7), Duron, Opteron, Sempron, Turion or Phenom; Transmeta Efficeon; VIA C3 "Nehemiah" or C7 processors
p88
sVhardware
p89
Vmodern PCs
p90
ss(Vimage
p91
tp92
(dp93
Vinitramfs-generators
p94
(lp95
Vinitramfs-tools
p96
aVinitramfs-fallback
p97
ass(Vbuild
p98
g57
tp99
(dp100
Vimage-file
p101
Varch/x86/boot/bzImage
p102
sVdebug-info
p103
I00
ss(Vimage
p104
g57
tp105
(dp106
Vsuggests
p107
Vcrda
p108
sVbootloaders
p109
(lp110
Vgrub-pc
p111
aVextlinux
p112
aVgrub-efi-ia32
p113
asVbreaks
p114
Vxserver-xorg-input-vmmouse (<< 1:13.0.99)
p115
sVinstall-stem
p116
Vvmlinuz
p117
ss(Vimage
p118
g35
tp119
(dp120
Vsuggests
p121
Vcrda
p122
sVbootloaders
p123
(lp124
Vgrub-pc
p125
aVextlinux
p126
aVgrub-efi-amd64
p127
asVbreaks
p128
Vxserver-xorg-input-vmmouse (<< 1:13.0.99)
p129
sVinstall-stem
p130
Vvmlinuz
p131
ss(Vdescription
p132
g35
NVaptosid-amd64
p133
tp134
(dp135
Vhardware-long
p136
VPCs with AMD64 or Intel 64 processors
p137
sVhardware
p138
V64-bit PCs
p139
ss(Vrelations
p140
tp141
(dp142
Vinitramfs-tools
p143
Vinitramfs-tools (>= 0.121~)
p144
sVgcc-7
p145
Vgcc-7
p146
sVinitramfs-fallback
p147
Vlinux-initramfs-tool
p148
sstp149
Rp150
.