ccopy_reg
_reconstructor
p0
(cdebian_linux.config
ConfigCore
p1
c__builtin__
dict
p2
(dp3
(Vimage
p4
Vamd64
p5
tp6
(dp7
Vconfigs
p8
(lp9
sVinstall-stem
p10
Vvmlinuz
p11
sVbootloaders
p12
(lp13
Vgrub-pc
p14
aVextlinux
p15
aVgrub-efi-amd64
p16
asVsuggests
p17
Vcrda
p18
ss(Vbase
p19
Vi386
p20
Vnone
p21
tp22
(dp23
Vimplicit-flavour
p24
I01
sVflavours
p25
(lp26
Vaptosid-686
p27
ass(Vdescription
p28
g5
Vnone
p29
Vaptosid-amd64
p30
tp31
(dp32
Vparts
p33
(lp34
Vxen
p35
ass(Vversion
p36
tp37
(dp38
Vabiname
p39
V4.4.0-2.slh.1
p40
sVabiname_base
p41
V4.4.0
p42
sVupstream
p43
V4.4
p44
sVsource
p45
V4.4-10
p46
ss(Vbase
p47
g5
tp48
(dp49
Vfeaturesets
p50
(lp51
Vnone
p52
ag29
asVkernel-arch
p53
Vx86
p54
ss(Vimage
p55
g20
NVaptosid-686
p56
tp57
(dp58
Vconfigs
p59
(lp60
Vkernelarch-x86/config-arch-32
p61
asVrecommends
p62
Vlibc6-i686
p63
ss(Vabi
p64
tp65
(dp66
Vabiname
p67
V2.slh.1
p68
ss(Vdescription
p69
tp70
(dp71
Vpart-long-xen
p72
VThis kernel also runs on a Xen hypervisor.\u000aIt supports both privileged (dom0) and unprivileged (domU) operation.
p73
sVpart-long-up
p74
VThis kernel is not suitable for SMP (multi-processor,\u000amulti-core or hyper-threaded) systems.
p75
ss(Vdescription
p76
g5
NVaptosid-amd64
p77
tp78
(dp79
Vhardware-long
p80
VPCs with AMD64 or Intel 64 processors
p81
sVhardware
p82
V64-bit PCs
p83
ss(Vimage
p84
g20
tp85
(dp86
Vconfigs
p87
(lp88
sVinstall-stem
p89
Vvmlinuz
p90
sVbootloaders
p91
(lp92
Vgrub-pc
p93
aVextlinux
p94
aVgrub-efi-ia32
p95
asVsuggests
p96
Vcrda
p97
ss(Vxen
p98
g5
g29
Vaptosid-amd64
p99
tp100
(dp101
Vflavours
p102
(lp103
Vaptosid-amd64
p104
ass(Vimage
p105
tp106
(dp107
Vinitramfs-generators
p108
(lp109
Vinitramfs-tools
p110
aVinitramfs-fallback
p111
asVtype
p112
Vplain
p113
ss(Vbuild
p114
g20
tp115
(dp116
Vimage-file
p117
Varch/x86/boot/bzImage
p118
sVdebug-info
p119
I00
ss(Vimage
p120
g5
NVaptosid-amd64
p121
tp122
(dp123
Vconfigs
p124
(lp125
Vkernelarch-x86/config-arch-64
p126
ass(Vdescription
p127
g20
NVaptosid-686
p128
tp129
(dp130
Vhardware-long
p131
VPCs with Intel Pentium Pro/II/III/4/4M/D/M, Xeon, Celeron, Core or Atom; AMD Geode LX/NX, Athlon (K7), Duron, Opteron, Sempron, Turion or Phenom; Transmeta Efficeon; VIA C3 "Nehemiah" or C7 processors
p132
sVhardware
p133
Vmodern PCs
p134
ss(Vrelations
p135
tp136
(dp137
Vgcc-5
p138
Vgcc-5
p139
sVinitramfs-fallback
p140
Vlinux-initramfs-tool
p141
sVinitramfs-tools
p142
Vinitramfs-tools (>= 0.118+c0.aptosid.1~)
p143
ss(Vbase
p144
g5
g29
tp145
(dp146
g24
I01
sg25
(lp147
Vaptosid-amd64
p148
ass(Vbase
p149
g20
tp150
(dp151
Vfeaturesets
p152
(lp153
g52
ag21
asVkernel-arch
p154
Vx86
p155
ss(Vbuild
p156
g5
tp157
(dp158
Vimage-file
p159
Varch/x86/boot/bzImage
p160
sVdebug-info
p161
I00
ss(Vbase
p162
tp163
(dp164
Varches
p165
(lp166
Vamd64
p167
aVi386
p168
asVfeaturesets
p169
(lp170
Vnone
p171
asVcompiler
p172
Vgcc-5
p173
sstp174
Rp175
.