ccopy_reg
_reconstructor
p0
(cdebian_linux.config
ConfigCore
p1
c__builtin__
dict
p2
(dp3
(Vxen
p4
Vamd64
p5
Vnone
p6
Vaptosid-amd64
p7
tp8
(dp9
Vflavours
p10
(lp11
Vaptosid-amd64
p12
ass(Vbase
p13
g5
g6
tp14
(dp15
Vflavours
p16
(lp17
Vaptosid-amd64
p18
asVimplicit-flavour
p19
I01
ss(Vbase
p20
Vi386
p21
tp22
(dp23
Vfeaturesets
p24
(lp25
Vnone
p26
aVnone
p27
asVkernel-arch
p28
Vx86
p29
ss(Vversion
p30
tp31
(dp32
Vsource
p33
V4.8-2
p34
sVabiname
p35
V4.8.0-0.slh.2
p36
sVabiname_base
p37
V4.8.0
p38
sVupstream
p39
V4.8
p40
ss(Vbuild
p41
g21
tp42
(dp43
Vdebug-info
p44
I00
sVimage-file
p45
Varch/x86/boot/bzImage
p46
ss(Vdescription
p47
tp48
(dp49
Vpart-long-up
p50
VThis kernel is not suitable for SMP (multi-processor,\u000amulti-core or hyper-threaded) systems.
p51
sVpart-long-xen
p52
VThis kernel also runs on a Xen hypervisor.\u000aIt supports both privileged (dom0) and unprivileged (domU) operation.
p53
ss(Vimage
p54
g5
tp55
(dp56
Vsuggests
p57
Vcrda
p58
sVbootloaders
p59
(lp60
Vgrub-pc
p61
aVextlinux
p62
aVgrub-efi-amd64
p63
asVinstall-stem
p64
Vvmlinuz
p65
sVbreaks
p66
Vxserver-xorg-input-vmmouse (<< 1:13.0.99)
p67
ss(Vimage
p68
g21
tp69
(dp70
Vsuggests
p71
Vcrda
p72
sVbootloaders
p73
(lp74
Vgrub-pc
p75
aVextlinux
p76
aVgrub-efi-ia32
p77
asVinstall-stem
p78
Vvmlinuz
p79
sVbreaks
p80
Vxserver-xorg-input-vmmouse (<< 1:13.0.99)
p81
ss(Vbase
p82
g5
tp83
(dp84
Vfeaturesets
p85
(lp86
g26
ag6
asVkernel-arch
p87
Vx86
p88
ss(Vbase
p89
g21
g27
tp90
(dp91
g16
(lp92
Vaptosid-686
p93
asg19
I01
ss(Vabi
p94
tp95
(dp96
Vabiname
p97
V0.slh.2
p98
ss(Vbase
p99
tp100
(dp101
Vcompiler
p102
Vgcc-6
p103
sVfeaturesets
p104
(lp105
Vnone
p106
asVarches
p107
(lp108
Vamd64
p109
aVi386
p110
ass(Vdescription
p111
g5
g6
Vaptosid-amd64
p112
tp113
(dp114
Vparts
p115
(lp116
Vxen
p117
ass(Vimage
p118
tp119
(dp120
Vinitramfs-generators
p121
(lp122
Vinitramfs-tools
p123
aVinitramfs-fallback
p124
ass(Vrelations
p125
tp126
(dp127
Vgcc-6
p128
Vgcc-6
p129
sVinitramfs-tools
p130
Vinitramfs-tools (>= 0.121~)
p131
sVinitramfs-fallback
p132
Vlinux-initramfs-tool
p133
ss(Vdescription
p134
g5
NVaptosid-amd64
p135
tp136
(dp137
Vhardware
p138
V64-bit PCs
p139
sVhardware-long
p140
VPCs with AMD64 or Intel 64 processors
p141
ss(Vbuild
p142
g5
tp143
(dp144
Vdebug-info
p145
I00
sVimage-file
p146
Varch/x86/boot/bzImage
p147
ss(Vdescription
p148
g21
NVaptosid-686
p149
tp150
(dp151
Vhardware
p152
Vmodern PCs
p153
sVhardware-long
p154
VPCs with Intel Pentium Pro/II/III/4/4M/D/M, Xeon, Celeron, Core or Atom; AMD Geode LX/NX, Athlon (K7), Duron, Opteron, Sempron, Turion or Phenom; Transmeta Efficeon; VIA C3 "Nehemiah" or C7 processors
p155
sstp156
Rp157
.