ccopy_reg
_reconstructor
p0
(cdebian_linux.config
ConfigCore
p1
c__builtin__
dict
p2
(dp3
(Vdescription
p4
Vamd64
p5
Vnone
p6
Vaptosid-amd64
p7
tp8
(dp9
Vparts
p10
(lp11
Vxen
p12
ass(Vdescription
p13
g5
NVaptosid-amd64
p14
tp15
(dp16
Vhardware
p17
V64-bit PCs
p18
sVhardware-long
p19
VPCs with AMD64 or Intel 64 processors
p20
ss(Vbase
p21
g5
tp22
(dp23
Vfeaturesets
p24
(lp25
Vnone
p26
ag6
asVkernel-arch
p27
Vx86
p28
ss(Vversion
p29
tp30
(dp31
Vabiname
p32
V4.11.0-3.slh.2
p33
sVabiname_base
p34
V4.11.0
p35
sVsource
p36
V4.11-9
p37
sVupstream
p38
V4.11
p39
ss(Vimage
p40
g5
tp41
(dp42
Vbreaks
p43
Vxserver-xorg-input-vmmouse (<< 1:13.0.99)
p44
sVsuggests
p45
Vcrda
p46
sVbootloaders
p47
(lp48
Vgrub-pc
p49
aVextlinux
p50
aVgrub-efi-amd64
p51
asVinstall-stem
p52
Vvmlinuz
p53
ss(Vbase
p54
tp55
(dp56
Vfeaturesets
p57
(lp58
Vnone
p59
asVarches
p60
(lp61
Vamd64
p62
aVi386
p63
asVcompiler
p64
Vgcc-6
p65
ss(Vdescription
p66
Vi386
p67
NVaptosid-686
p68
tp69
(dp70
Vhardware
p71
Vmodern PCs
p72
sVhardware-long
p73
VPCs with Intel Pentium Pro/II/III/4/4M/D/M, Xeon, Celeron, Core or Atom; AMD Geode LX/NX, Athlon (K7), Duron, Opteron, Sempron, Turion or Phenom; Transmeta Efficeon; VIA C3 "Nehemiah" or C7 processors
p74
ss(Vbuild
p75
g67
tp76
(dp77
Vdebug-info
p78
I00
sVimage-file
p79
Varch/x86/boot/bzImage
p80
ss(Vbase
p81
g5
g6
tp82
(dp83
Vimplicit-flavour
p84
I01
sVflavours
p85
(lp86
Vaptosid-amd64
p87
ass(Vimage
p88
g67
tp89
(dp90
Vbreaks
p91
Vxserver-xorg-input-vmmouse (<< 1:13.0.99)
p92
sVsuggests
p93
Vcrda
p94
sVbootloaders
p95
(lp96
Vgrub-pc
p97
aVextlinux
p98
aVgrub-efi-ia32
p99
asVinstall-stem
p100
Vvmlinuz
p101
ss(Vrelations
p102
tp103
(dp104
Vgcc-6
p105
Vgcc-6
p106
sVinitramfs-fallback
p107
Vlinux-initramfs-tool
p108
sVinitramfs-tools
p109
Vinitramfs-tools (>= 0.121~)
p110
ss(Vdescription
p111
tp112
(dp113
Vpart-long-up
p114
VThis kernel is not suitable for SMP (multi-processor,\u000amulti-core or hyper-threaded) systems.
p115
sVpart-long-xen
p116
VThis kernel also runs on a Xen hypervisor.\u000aIt supports both privileged (dom0) and unprivileged (domU) operation.
p117
ss(Vbase
p118
g67
Vnone
p119
tp120
(dp121
g84
I01
sg85
(lp122
Vaptosid-686
p123
ass(Vbuild
p124
g5
tp125
(dp126
Vdebug-info
p127
I00
sVimage-file
p128
Varch/x86/boot/bzImage
p129
ss(Vbase
p130
g67
tp131
(dp132
Vfeaturesets
p133
(lp134
g26
ag119
asVkernel-arch
p135
Vx86
p136
ss(Vabi
p137
tp138
(dp139
Vabiname
p140
V3.slh.2
p141
ss(Vimage
p142
tp143
(dp144
Vinitramfs-generators
p145
(lp146
Vinitramfs-tools
p147
aVinitramfs-fallback
p148
asstp149
Rp150
.