ccopy_reg
_reconstructor
p0
(cdebian_linux.config
ConfigCore
p1
c__builtin__
dict
p2
(dp3
(Vbuild
p4
Vamd64
p5
tp6
(dp7
Vdebug-info
p8
I00
sVimage-file
p9
Varch/x86/boot/bzImage
p10
ss(Vimage
p11
g5
tp12
(dp13
Vbootloaders
p14
(lp15
Vgrub-pc
p16
aVextlinux
p17
aVgrub-efi-amd64
p18
asVinstall-stem
p19
Vvmlinuz
p20
sVsuggests
p21
Vcrda
p22
sVbreaks
p23
Vxserver-xorg-input-vmmouse (<< 1:13.0.99)
p24
ss(Vbuild
p25
Vi386
p26
tp27
(dp28
Vdebug-info
p29
I00
sVimage-file
p30
Varch/x86/boot/bzImage
p31
ss(Vimage
p32
tp33
(dp34
Vinitramfs-generators
p35
(lp36
Vinitramfs-tools
p37
aVinitramfs-fallback
p38
ass(Vbase
p39
tp40
(dp41
Vfeaturesets
p42
(lp43
Vnone
p44
asVarches
p45
(lp46
Vamd64
p47
aVi386
p48
asVcompiler
p49
Vgcc-6
p50
ss(Vversion
p51
tp52
(dp53
Vabiname
p54
V4.10.0-2.slh.1
p55
sVupstream
p56
V4.10
p57
sVsource
p58
V4.10-6
p59
sVabiname_base
p60
V4.10.0
p61
ss(Vimage
p62
g26
tp63
(dp64
Vbootloaders
p65
(lp66
Vgrub-pc
p67
aVextlinux
p68
aVgrub-efi-ia32
p69
asVinstall-stem
p70
Vvmlinuz
p71
sVsuggests
p72
Vcrda
p73
sVbreaks
p74
Vxserver-xorg-input-vmmouse (<< 1:13.0.99)
p75
ss(Vdescription
p76
g5
Vnone
p77
Vaptosid-amd64
p78
tp79
(dp80
Vparts
p81
(lp82
Vxen
p83
ass(Vrelations
p84
tp85
(dp86
Vgcc-6
p87
Vgcc-6
p88
sVinitramfs-tools
p89
Vinitramfs-tools (>= 0.121~)
p90
sVinitramfs-fallback
p91
Vlinux-initramfs-tool
p92
ss(Vdescription
p93
tp94
(dp95
Vpart-long-xen
p96
VThis kernel also runs on a Xen hypervisor.\u000aIt supports both privileged (dom0) and unprivileged (domU) operation.
p97
sVpart-long-up
p98
VThis kernel is not suitable for SMP (multi-processor,\u000amulti-core or hyper-threaded) systems.
p99
ss(Vbase
p100
g5
tp101
(dp102
Vfeaturesets
p103
(lp104
Vnone
p105
ag77
asVkernel-arch
p106
Vx86
p107
ss(Vbase
p108
g5
g77
tp109
(dp110
Vimplicit-flavour
p111
I01
sVflavours
p112
(lp113
Vaptosid-amd64
p114
ass(Vbase
p115
g26
Vnone
p116
tp117
(dp118
g111
I01
sg112
(lp119
Vaptosid-686
p120
ass(Vbase
p121
g26
tp122
(dp123
Vfeaturesets
p124
(lp125
g105
ag116
asVkernel-arch
p126
Vx86
p127
ss(Vdescription
p128
g26
NVaptosid-686
p129
tp130
(dp131
Vhardware
p132
Vmodern PCs
p133
sVhardware-long
p134
VPCs with Intel Pentium Pro/II/III/4/4M/D/M, Xeon, Celeron, Core or Atom; AMD Geode LX/NX, Athlon (K7), Duron, Opteron, Sempron, Turion or Phenom; Transmeta Efficeon; VIA C3 "Nehemiah" or C7 processors
p135
ss(Vdescription
p136
g5
NVaptosid-amd64
p137
tp138
(dp139
Vhardware
p140
V64-bit PCs
p141
sVhardware-long
p142
VPCs with AMD64 or Intel 64 processors
p143
ss(Vabi
p144
tp145
(dp146
Vabiname
p147
V2.slh.1
p148
sstp149
Rp150
.