ccopy_reg
_reconstructor
p0
(cdebian_linux.config
ConfigCore
p1
c__builtin__
dict
p2
(dp3
(Vimage
p4
Vi386
p5
tp6
(dp7
Vsuggests
p8
Vcrda
p9
sVbootloaders
p10
(lp11
Vgrub-pc
p12
aVextlinux
p13
aVgrub-efi-ia32
p14
asVbreaks
p15
Vxserver-xorg-input-vmmouse (<< 1:13.0.99)
p16
sVinstall-stem
p17
Vvmlinuz
p18
ss(Vdescription
p19
g5
NVaptosid-686
p20
tp21
(dp22
Vhardware-long
p23
VPCs with Intel Pentium Pro/II/III/4/4M/D/M, Xeon, Celeron, Core or Atom; AMD Geode LX/NX, Athlon (K7), Duron, Opteron, Sempron, Turion or Phenom; Transmeta Efficeon; VIA C3 "Nehemiah" or C7 processors
p24
sVhardware
p25
Vmodern PCs
p26
ss(Vxen
p27
Vamd64
p28
Vnone
p29
Vaptosid-amd64
p30
tp31
(dp32
Vflavours
p33
(lp34
Vaptosid-amd64
p35
ass(Vbase
p36
g28
g29
tp37
(dp38
Vimplicit-flavour
p39
I01
sVflavours
p40
(lp41
Vaptosid-amd64
p42
ass(Vabi
p43
tp44
(dp45
Vabiname
p46
V2.slh.1
p47
ss(Vbuild
p48
g5
tp49
(dp50
Vdebug-info
p51
I00
sVimage-file
p52
Varch/x86/boot/bzImage
p53
ss(Vdescription
p54
g28
g29
Vaptosid-amd64
p55
tp56
(dp57
Vparts
p58
(lp59
Vxen
p60
ass(Vbase
p61
g5
tp62
(dp63
Vfeaturesets
p64
(lp65
Vnone
p66
aVnone
p67
asVkernel-arch
p68
Vx86
p69
ss(Vrelations
p70
tp71
(dp72
Vinitramfs-tools
p73
Vinitramfs-tools (>= 0.121~)
p74
sVgcc-6
p75
Vgcc-6
p76
sVinitramfs-fallback
p77
Vlinux-initramfs-tool
p78
ss(Vdescription
p79
tp80
(dp81
Vpart-long-up
p82
VThis kernel is not suitable for SMP (multi-processor,\u000amulti-core or hyper-threaded) systems.
p83
sVpart-long-xen
p84
VThis kernel also runs on a Xen hypervisor.\u000aIt supports both privileged (dom0) and unprivileged (domU) operation.
p85
ss(Vimage
p86
tp87
(dp88
Vinitramfs-generators
p89
(lp90
Vinitramfs-tools
p91
aVinitramfs-fallback
p92
ass(Vversion
p93
tp94
(dp95
Vabiname
p96
V4.7.0-2.slh.1
p97
sVabiname_base
p98
V4.7.0
p99
sVsource
p100
V4.7-10
p101
sVupstream
p102
V4.7
p103
ss(Vbuild
p104
g28
tp105
(dp106
Vdebug-info
p107
I00
sVimage-file
p108
Varch/x86/boot/bzImage
p109
ss(Vbase
p110
tp111
(dp112
Vfeaturesets
p113
(lp114
Vnone
p115
asVarches
p116
(lp117
Vamd64
p118
aVi386
p119
asVcompiler
p120
Vgcc-6
p121
ss(Vbase
p122
g28
tp123
(dp124
Vfeaturesets
p125
(lp126
g66
ag29
asVkernel-arch
p127
Vx86
p128
ss(Vdescription
p129
g28
NVaptosid-amd64
p130
tp131
(dp132
Vhardware-long
p133
VPCs with AMD64 or Intel 64 processors
p134
sVhardware
p135
V64-bit PCs
p136
ss(Vbase
p137
g5
g67
tp138
(dp139
g39
I01
sg40
(lp140
Vaptosid-686
p141
ass(Vimage
p142
g28
tp143
(dp144
Vsuggests
p145
Vcrda
p146
sVbootloaders
p147
(lp148
Vgrub-pc
p149
aVextlinux
p150
aVgrub-efi-amd64
p151
asVbreaks
p152
Vxserver-xorg-input-vmmouse (<< 1:13.0.99)
p153
sVinstall-stem
p154
Vvmlinuz
p155
sstp156
Rp157
.