ccopy_reg
_reconstructor
p0
(cdebian_linux.config
ConfigCore
p1
c__builtin__
dict
p2
(dp3
(Vimage
p4
Vamd64
p5
tp6
(dp7
Vinstall-stem
p8
Vvmlinuz
p9
sVsuggests
p10
Vcrda
p11
sVbreaks
p12
Vxserver-xorg-input-vmmouse (<< 1:13.0.99)
p13
sVbootloaders
p14
(lp15
Vgrub-pc
p16
aVextlinux
p17
aVgrub-efi-amd64
p18
ass(Vrelations
p19
tp20
(dp21
Vinitramfs-tools
p22
Vinitramfs-tools (>= 0.121~)
p23
sVgcc-6
p24
Vgcc-6
p25
sVinitramfs-fallback
p26
Vlinux-initramfs-tool
p27
ss(Vbuild
p28
Vi386
p29
tp30
(dp31
Vimage-file
p32
Varch/x86/boot/bzImage
p33
sVdebug-info
p34
I00
ss(Vabi
p35
tp36
(dp37
Vabiname
p38
V6.slh.1
p39
ss(Vbase
p40
g5
tp41
(dp42
Vkernel-arch
p43
Vx86
p44
sVfeaturesets
p45
(lp46
Vnone
p47
aVnone
p48
ass(Vdescription
p49
tp50
(dp51
Vpart-long-xen
p52
VThis kernel also runs on a Xen hypervisor.\u000aIt supports both privileged (dom0) and unprivileged (domU) operation.
p53
sVpart-long-up
p54
VThis kernel is not suitable for SMP (multi-processor,\u000amulti-core or hyper-threaded) systems.
p55
ss(Vbase
p56
tp57
(dp58
Varches
p59
(lp60
Vamd64
p61
aVi386
p62
asVfeaturesets
p63
(lp64
Vnone
p65
asVcompiler
p66
Vgcc-6
p67
ss(Vimage
p68
tp69
(dp70
Vinitramfs-generators
p71
(lp72
Vinitramfs-tools
p73
aVinitramfs-fallback
p74
ass(Vbuild
p75
g5
tp76
(dp77
Vimage-file
p78
Varch/x86/boot/bzImage
p79
sVdebug-info
p80
I00
ss(Vbase
p81
g29
Vnone
p82
tp83
(dp84
Vflavours
p85
(lp86
Vaptosid-686
p87
asVimplicit-flavour
p88
I01
ss(Vbase
p89
g29
tp90
(dp91
Vkernel-arch
p92
Vx86
p93
sVfeaturesets
p94
(lp95
g47
ag82
ass(Vdescription
p96
g5
NVaptosid-amd64
p97
tp98
(dp99
Vhardware-long
p100
VPCs with AMD64 or Intel 64 processors
p101
sVhardware
p102
V64-bit PCs
p103
ss(Vdescription
p104
g29
NVaptosid-686
p105
tp106
(dp107
Vhardware-long
p108
VPCs with Intel Pentium Pro/II/III/4/4M/D/M, Xeon, Celeron, Core or Atom; AMD Geode LX/NX, Athlon (K7), Duron, Opteron, Sempron, Turion or Phenom; Transmeta Efficeon; VIA C3 "Nehemiah" or C7 processors
p109
sVhardware
p110
Vmodern PCs
p111
ss(Vdescription
p112
g5
g48
Vaptosid-amd64
p113
tp114
(dp115
Vparts
p116
(lp117
Vxen
p118
ass(Vversion
p119
tp120
(dp121
Vsource
p122
V4.11-13
p123
sVabiname
p124
V4.11.0-6.slh.1
p125
sVabiname_base
p126
V4.11.0
p127
sVupstream
p128
V4.11
p129
ss(Vimage
p130
g29
tp131
(dp132
Vinstall-stem
p133
Vvmlinuz
p134
sVsuggests
p135
Vcrda
p136
sVbreaks
p137
Vxserver-xorg-input-vmmouse (<< 1:13.0.99)
p138
sVbootloaders
p139
(lp140
Vgrub-pc
p141
aVextlinux
p142
aVgrub-efi-ia32
p143
ass(Vbase
p144
g5
g48
tp145
(dp146
g85
(lp147
Vaptosid-amd64
p148
asg88
I01
sstp149
Rp150
.