ccopy_reg
_reconstructor
p0
(cdebian_linux.config
ConfigCore
p1
c__builtin__
dict
p2
(dp3
(Vbase
p4
Vamd64
p5
tp6
(dp7
Vkernel-arch
p8
Vx86
p9
sVfeaturesets
p10
(lp11
Vnone
p12
aVnone
p13
ass(Vimage
p14
g5
tp15
(dp16
Vinstall-stem
p17
Vvmlinuz
p18
sVsuggests
p19
Vcrda
p20
sVbreaks
p21
Vxserver-xorg-input-vmmouse (<< 1:13.0.99)
p22
sVbootloaders
p23
(lp24
Vgrub-pc
p25
aVextlinux
p26
aVgrub-efi-amd64
p27
ass(Vbase
p28
tp29
(dp30
Vcompiler
p31
Vgcc-6
p32
sVarches
p33
(lp34
Vamd64
p35
aVi386
p36
asVfeaturesets
p37
(lp38
Vnone
p39
ass(Vdescription
p40
Vi386
p41
NVaptosid-686
p42
tp43
(dp44
Vhardware
p45
Vmodern PCs
p46
sVhardware-long
p47
VPCs with Intel Pentium Pro/II/III/4/4M/D/M, Xeon, Celeron, Core or Atom; AMD Geode LX/NX, Athlon (K7), Duron, Opteron, Sempron, Turion or Phenom; Transmeta Efficeon; VIA C3 "Nehemiah" or C7 processors
p48
ss(Vbase
p49
g41
tp50
(dp51
Vkernel-arch
p52
Vx86
p53
sVfeaturesets
p54
(lp55
g12
aVnone
p56
ass(Vbuild
p57
g5
tp58
(dp59
Vimage-file
p60
Varch/x86/boot/bzImage
p61
sVdebug-info
p62
I00
ss(Vabi
p63
tp64
(dp65
Vabiname
p66
V8.slh.1
p67
ss(Vdescription
p68
tp69
(dp70
Vpart-long-up
p71
VThis kernel is not suitable for SMP (multi-processor,\u000amulti-core or hyper-threaded) systems.
p72
sVpart-long-xen
p73
VThis kernel also runs on a Xen hypervisor.\u000aIt supports both privileged (dom0) and unprivileged (domU) operation.
p74
ss(Vimage
p75
tp76
(dp77
Vinitramfs-generators
p78
(lp79
Vinitramfs-tools
p80
aVinitramfs-fallback
p81
ass(Vrelations
p82
tp83
(dp84
Vgcc-6
p85
Vgcc-6
p86
sVinitramfs-tools
p87
Vinitramfs-tools (>= 0.121~)
p88
sVinitramfs-fallback
p89
Vlinux-initramfs-tool
p90
ss(Vdescription
p91
g5
g13
Vaptosid-amd64
p92
tp93
(dp94
Vparts
p95
(lp96
Vxen
p97
ass(Vimage
p98
g41
tp99
(dp100
Vinstall-stem
p101
Vvmlinuz
p102
sVsuggests
p103
Vcrda
p104
sVbreaks
p105
Vxserver-xorg-input-vmmouse (<< 1:13.0.99)
p106
sVbootloaders
p107
(lp108
Vgrub-pc
p109
aVextlinux
p110
aVgrub-efi-ia32
p111
ass(Vdescription
p112
g5
NVaptosid-amd64
p113
tp114
(dp115
Vhardware
p116
V64-bit PCs
p117
sVhardware-long
p118
VPCs with AMD64 or Intel 64 processors
p119
ss(Vversion
p120
tp121
(dp122
Vsource
p123
V4.10-13
p124
sVabiname_base
p125
V4.10.0
p126
sVupstream
p127
V4.10
p128
sVabiname
p129
V4.10.0-8.slh.1
p130
ss(Vbase
p131
g41
g56
tp132
(dp133
Vimplicit-flavour
p134
I01
sVflavours
p135
(lp136
Vaptosid-686
p137
ass(Vbase
p138
g5
g13
tp139
(dp140
g134
I01
sg135
(lp141
Vaptosid-amd64
p142
ass(Vbuild
p143
g41
tp144
(dp145
Vimage-file
p146
Varch/x86/boot/bzImage
p147
sVdebug-info
p148
I00
sstp149
Rp150
.