ccopy_reg
_reconstructor
p1
(cdebian_linux.config
ConfigCore
p2
c__builtin__
dict
p3
(dp4
(S'build'
S'i386'
p5
NS'aptosid-686'
tp6
(dp7
S'debug-info'
p8
I00
ss(S'image'
p9
S'amd64'
p10
tp11
(dp12
S'suggests'
p13
S'crda'
p14
sS'configs'
p15
(lp16
S'kernelarch-x86/config'
p17
asS'bootloaders'
p18
(lp19
S'grub-pc'
p20
aS'extlinux'
p21
aS'grub-efi-amd64'
p22
ass(S'build'
g10
NS'aptosid-amd64'
tp23
(dp24
S'debug-info'
p25
I00
ss(S'base'
p26
g10
tp27
(dp28
S'kernel-arch'
p29
S'x86'
p30
sS'featuresets'
p31
(lp32
S'none'
p33
ass(S'description'
g5
NS'aptosid-686'
tp34
(dp35
S'hardware'
p36
S'modern PCs'
p37
sS'hardware-long'
p38
S'PCs with Intel Pentium Pro/II/III/4/4M/D/M, Xeon, Celeron, Core or Atom; AMD Geode LX/NX, Athlon (K7), Duron, Opteron, Sempron, Turion or Phenom; Transmeta Efficeon; VIA C3 "Nehemiah" or C7 processors'
p39
ss(S'image'
p40
tp41
(dp42
S'initramfs-generators'
p43
(lp44
S'initramfs-tools'
p45
aS'initramfs-fallback'
p46
asS'type'
p47
S'plain'
p48
ss(S'image'
g5
NS'aptosid-686'
tp49
(dp50
S'configs'
p51
(lp52
S'kernelarch-x86/config-arch-32'
p53
asS'recommends'
p54
S'libc6-i686'
p55
ss(S'version'
p56
tp57
(dp58
S'abiname'
p59
S'3.15-4.slh.1'
p60
sS'source'
p61
V3.15-16
p62
ss(S'base'
g5
tp63
(dp64
S'kernel-arch'
p65
S'x86'
p66
sg31
(lp67
g33
ass(S'image'
g10
NS'aptosid-amd64'
tp68
(dp69
S'configs'
p70
(lp71
S'kernelarch-x86/config-arch-64'
p72
ass(S'abi'
p73
tp74
(dp75
S'abiname'
p76
S'4.slh.1'
p77
ss(S'image'
g5
tp78
(dp79
S'suggests'
p80
S'crda'
p81
sS'configs'
p82
(lp83
S'kernelarch-x86/config'
p84
asS'bootloaders'
p85
(lp86
S'grub-pc'
p87
aS'extlinux'
p88
ass(S'base'
p89
g5
g33
tp90
(dp91
S'implicit-flavour'
p92
I01
sS'flavours'
p93
(lp94
S'aptosid-686'
p95
ass(g89
g10
g33
tp96
(dp97
g92
I01
sg93
(lp98
S'aptosid-amd64'
p99
ass(S'description'
g10
NS'aptosid-amd64'
tp100
(dp101
S'hardware'
p102
S'64-bit PCs'
p103
sS'hardware-long'
p104
S'PCs with AMD64 or Intel 64 processors'
p105
ss(S'base'
p106
tp107
(dp108
S'arches'
p109
(lp110
S'amd64'
p111
aS'i386'
p112
asS'featuresets'
p113
(lp114
S'none'
p115
asS'compiler'
p116
S'gcc-4.9'
p117
ss(S'relations'
p118
tp119
(dp120
S'initramfs-fallback'
p121
S'linux-initramfs-tool'
p122
sS'gcc-4.9'
p123
S'gcc-4.9'
p124
sS'initramfs-tools'
p125
S'initramfs-tools (>= 0.110~)'
p126
sS'elilo'
p127
S'elilo (>= 3.12-3.1~)'
p128
sS'lilo'
p129
S'lilo (>= 22.8-8.2~)'
p130
sstRp131
.