ccopy_reg
_reconstructor
p0
(cdebian_linux.config
ConfigCore
p1
c__builtin__
dict
p2
(dp3
(Vbase
p4
Vamd64
p5
Vnone
p6
tp7
(dp8
Vimplicit-flavour
p9
I01
sVflavours
p10
(lp11
Vaptosid-amd64
p12
ass(Vdescription
p13
g5
NVaptosid-amd64
p14
tp15
(dp16
Vhardware
p17
V64-bit PCs
p18
sVhardware-long
p19
VPCs with AMD64 or Intel 64 processors
p20
ss(Vdescription
p21
g5
g6
Vaptosid-amd64
p22
tp23
(dp24
Vparts
p25
(lp26
Vxen
p27
ass(Vbase
p28
g5
tp29
(dp30
Vfeaturesets
p31
(lp32
Vnone
p33
ag6
asVkernel-arch
p34
Vx86
p35
ss(Vimage
p36
g5
NVaptosid-amd64
p37
tp38
(dp39
Vconfigs
p40
(lp41
Vkernelarch-x86/config-arch-64
p42
ass(Vbuild
p43
Vi386
p44
tp45
(dp46
Vdebug-info
p47
I00
sVimage-file
p48
Varch/x86/boot/bzImage
p49
ss(Vimage
p50
tp51
(dp52
Vtype
p53
Vplain
p54
sVinitramfs-generators
p55
(lp56
Vinitramfs-tools
p57
aVinitramfs-fallback
p58
ass(Vimage
p59
g44
tp60
(dp61
Vconfigs
p62
(lp63
sVinstall-stem
p64
Vvmlinuz
p65
sVsuggests
p66
Vcrda
p67
sVbootloaders
p68
(lp69
Vgrub-pc
p70
aVextlinux
p71
aVgrub-efi-ia32
p72
ass(Vrelations
p73
tp74
(dp75
Vgcc-5
p76
Vgcc-5
p77
sVinitramfs-fallback
p78
Vlinux-initramfs-tool
p79
sVinitramfs-tools
p80
Vinitramfs-tools (>= 0.118+c0.aptosid.1~)
p81
ss(Vimage
p82
g5
tp83
(dp84
Vconfigs
p85
(lp86
sVinstall-stem
p87
Vvmlinuz
p88
sVsuggests
p89
Vcrda
p90
sVbootloaders
p91
(lp92
Vgrub-pc
p93
aVextlinux
p94
aVgrub-efi-amd64
p95
ass(Vbuild
p96
g5
tp97
(dp98
Vdebug-info
p99
I00
sVimage-file
p100
Varch/x86/boot/bzImage
p101
ss(Vbase
p102
tp103
(dp104
Vfeaturesets
p105
(lp106
Vnone
p107
asVarches
p108
(lp109
Vamd64
p110
aVi386
p111
asVcompiler
p112
Vgcc-5
p113
ss(Vbase
p114
g44
tp115
(dp116
Vfeaturesets
p117
(lp118
g33
aVnone
p119
asVkernel-arch
p120
Vx86
p121
ss(Vversion
p122
tp123
(dp124
Vupstream
p125
V4.3
p126
sVsource
p127
V4.3-9
p128
sVabiname
p129
V4.3.0-2.slh.2
p130
sVabiname_base
p131
V4.3.0
p132
ss(Vimage
p133
g44
NVaptosid-686
p134
tp135
(dp136
Vconfigs
p137
(lp138
Vkernelarch-x86/config-arch-32
p139
asVrecommends
p140
Vlibc6-i686
p141
ss(Vbase
p142
g44
g119
tp143
(dp144
g9
I01
sg10
(lp145
Vaptosid-686
p146
ass(Vdescription
p147
g44
NVaptosid-686
p148
tp149
(dp150
Vhardware
p151
Vmodern PCs
p152
sVhardware-long
p153
VPCs with Intel Pentium Pro/II/III/4/4M/D/M, Xeon, Celeron, Core or Atom; AMD Geode LX/NX, Athlon (K7), Duron, Opteron, Sempron, Turion or Phenom; Transmeta Efficeon; VIA C3 "Nehemiah" or C7 processors
p154
ss(Vdescription
p155
tp156
(dp157
Vpart-long-xen
p158
VThis kernel also runs on a Xen hypervisor.\u000aIt supports both privileged (dom0) and unprivileged (domU) operation.
p159
sVpart-long-up
p160
VThis kernel is not suitable for SMP (multi-processor,\u000amulti-core or hyper-threaded) systems.
p161
ss(Vxen
p162
g5
g6
Vaptosid-amd64
p163
tp164
(dp165
Vflavours
p166
(lp167
Vaptosid-amd64
p168
ass(Vabi
p169
tp170
(dp171
Vabiname
p172
V2.slh.2
p173
sstp174
Rp175
.