ccopy_reg
_reconstructor
p0
(cdebian_linux.config
ConfigCore
p1
c__builtin__
dict
p2
(dp3
(Vdescription
p4
tp5
(dp6
Vpart-long-up
p7
VThis kernel is not suitable for SMP (multi-processor,\u000amulti-core or hyper-threaded) systems.
p8
sVpart-long-xen
p9
VThis kernel also runs on a Xen hypervisor.\u000aIt supports both privileged (dom0) and unprivileged (domU) operation.
p10
ss(Vbase
p11
Vamd64
p12
tp13
(dp14
Vkernel-arch
p15
Vx86
p16
sVfeaturesets
p17
(lp18
Vnone
p19
aVnone
p20
ass(Vimage
p21
Vi386
p22
tp23
(dp24
Vbootloaders
p25
(lp26
Vgrub-pc
p27
aVextlinux
p28
aVgrub-efi-ia32
p29
asVbreaks
p30
Vxserver-xorg-input-vmmouse (<< 1:13.0.99)
p31
sVinstall-stem
p32
Vvmlinuz
p33
sVsuggests
p34
Vcrda
p35
ss(Vrelations
p36
tp37
(dp38
Vgcc-6
p39
Vgcc-6
p40
sVinitramfs-fallback
p41
Vlinux-initramfs-tool
p42
sVinitramfs-tools
p43
Vinitramfs-tools (>= 0.121~)
p44
ss(Vbase
p45
tp46
(dp47
Varches
p48
(lp49
Vamd64
p50
aVi386
p51
asVcompiler
p52
Vgcc-6
p53
sVfeaturesets
p54
(lp55
Vnone
p56
ass(Vversion
p57
tp58
(dp59
Vabiname
p60
V4.11.0-4.slh.2
p61
sVupstream
p62
V4.11
p63
sVabiname_base
p64
V4.11.0
p65
sVsource
p66
V4.11-11
p67
ss(Vimage
p68
tp69
(dp70
Vinitramfs-generators
p71
(lp72
Vinitramfs-tools
p73
aVinitramfs-fallback
p74
ass(Vabi
p75
tp76
(dp77
Vabiname
p78
V4.slh.2
p79
ss(Vdescription
p80
g22
NVaptosid-686
p81
tp82
(dp83
Vhardware
p84
Vmodern PCs
p85
sVhardware-long
p86
VPCs with Intel Pentium Pro/II/III/4/4M/D/M, Xeon, Celeron, Core or Atom; AMD Geode LX/NX, Athlon (K7), Duron, Opteron, Sempron, Turion or Phenom; Transmeta Efficeon; VIA C3 "Nehemiah" or C7 processors
p87
ss(Vbase
p88
g22
Vnone
p89
tp90
(dp91
Vflavours
p92
(lp93
Vaptosid-686
p94
asVimplicit-flavour
p95
I01
ss(Vdescription
p96
g12
NVaptosid-amd64
p97
tp98
(dp99
Vhardware
p100
V64-bit PCs
p101
sVhardware-long
p102
VPCs with AMD64 or Intel 64 processors
p103
ss(Vimage
p104
g12
tp105
(dp106
Vbootloaders
p107
(lp108
Vgrub-pc
p109
aVextlinux
p110
aVgrub-efi-amd64
p111
asVbreaks
p112
Vxserver-xorg-input-vmmouse (<< 1:13.0.99)
p113
sVinstall-stem
p114
Vvmlinuz
p115
sVsuggests
p116
Vcrda
p117
ss(Vbase
p118
g22
tp119
(dp120
Vkernel-arch
p121
Vx86
p122
sVfeaturesets
p123
(lp124
g19
ag89
ass(Vdescription
p125
g12
g20
Vaptosid-amd64
p126
tp127
(dp128
Vparts
p129
(lp130
Vxen
p131
ass(Vbuild
p132
g12
tp133
(dp134
Vimage-file
p135
Varch/x86/boot/bzImage
p136
sVdebug-info
p137
I00
ss(Vbuild
p138
g22
tp139
(dp140
Vimage-file
p141
Varch/x86/boot/bzImage
p142
sVdebug-info
p143
I00
ss(Vbase
p144
g12
g20
tp145
(dp146
g92
(lp147
Vaptosid-amd64
p148
asg95
I01
sstp149
Rp150
.