ccopy_reg
_reconstructor
p0
(cdebian_linux.config
ConfigCore
p1
c__builtin__
dict
p2
(dp3
(Vbase
p4
Vamd64
p5
Vnone
p6
tp7
(dp8
Vimplicit-flavour
p9
I01
sVflavours
p10
(lp11
Vaptosid-amd64
p12
ass(Vdescription
p13
g5
g6
Vaptosid-amd64
p14
tp15
(dp16
Vparts
p17
(lp18
Vxen
p19
ass(Vimage
p20
Vi386
p21
tp22
(dp23
Vbootloaders
p24
(lp25
Vgrub-pc
p26
aVextlinux
p27
aVgrub-efi-ia32
p28
asVinstall-stem
p29
Vvmlinuz
p30
sVbreaks
p31
Vxserver-xorg-input-vmmouse (<< 1:13.0.99)
p32
sVsuggests
p33
Vcrda
p34
ss(Vimage
p35
tp36
(dp37
Vinitramfs-generators
p38
(lp39
Vinitramfs-tools
p40
aVinitramfs-fallback
p41
ass(Vxen
p42
g5
g6
Vaptosid-amd64
p43
tp44
(dp45
Vflavours
p46
(lp47
Vaptosid-amd64
p48
ass(Vbuild
p49
g21
tp50
(dp51
Vdebug-info
p52
I00
sVimage-file
p53
Varch/x86/boot/bzImage
p54
ss(Vversion
p55
tp56
(dp57
Vsource
p58
V4.7-16
p59
sVabiname_base
p60
V4.7.0
p61
sVabiname
p62
V4.7.0-4.slh.1
p63
sVupstream
p64
V4.7
p65
ss(Vbase
p66
g21
tp67
(dp68
Vfeaturesets
p69
(lp70
Vnone
p71
aVnone
p72
asVkernel-arch
p73
Vx86
p74
ss(Vimage
p75
g5
tp76
(dp77
Vbootloaders
p78
(lp79
Vgrub-pc
p80
aVextlinux
p81
aVgrub-efi-amd64
p82
asVinstall-stem
p83
Vvmlinuz
p84
sVbreaks
p85
Vxserver-xorg-input-vmmouse (<< 1:13.0.99)
p86
sVsuggests
p87
Vcrda
p88
ss(Vbuild
p89
g5
tp90
(dp91
Vdebug-info
p92
I00
sVimage-file
p93
Varch/x86/boot/bzImage
p94
ss(Vdescription
p95
tp96
(dp97
Vpart-long-up
p98
VThis kernel is not suitable for SMP (multi-processor,\u000amulti-core or hyper-threaded) systems.
p99
sVpart-long-xen
p100
VThis kernel also runs on a Xen hypervisor.\u000aIt supports both privileged (dom0) and unprivileged (domU) operation.
p101
ss(Vrelations
p102
tp103
(dp104
Vgcc-6
p105
Vgcc-6
p106
sVinitramfs-tools
p107
Vinitramfs-tools (>= 0.121~)
p108
sVinitramfs-fallback
p109
Vlinux-initramfs-tool
p110
ss(Vdescription
p111
g21
NVaptosid-686
p112
tp113
(dp114
Vhardware-long
p115
VPCs with Intel Pentium Pro/II/III/4/4M/D/M, Xeon, Celeron, Core or Atom; AMD Geode LX/NX, Athlon (K7), Duron, Opteron, Sempron, Turion or Phenom; Transmeta Efficeon; VIA C3 "Nehemiah" or C7 processors
p116
sVhardware
p117
Vmodern PCs
p118
ss(Vdescription
p119
g5
NVaptosid-amd64
p120
tp121
(dp122
Vhardware-long
p123
VPCs with AMD64 or Intel 64 processors
p124
sVhardware
p125
V64-bit PCs
p126
ss(Vbase
p127
g5
tp128
(dp129
Vfeaturesets
p130
(lp131
g71
ag6
asVkernel-arch
p132
Vx86
p133
ss(Vbase
p134
tp135
(dp136
Vfeaturesets
p137
(lp138
Vnone
p139
asVarches
p140
(lp141
Vamd64
p142
aVi386
p143
asVcompiler
p144
Vgcc-6
p145
ss(Vabi
p146
tp147
(dp148
Vabiname
p149
V4.slh.1
p150
ss(Vbase
p151
g21
g72
tp152
(dp153
g9
I01
sg10
(lp154
Vaptosid-686
p155
asstp156
Rp157
.