ccopy_reg
_reconstructor
p1
(cdebian_linux.config
ConfigCore
p2
c__builtin__
dict
p3
(dp4
(S'image'
S'i386'
p5
NS'aptosid-686'
tp6
(dp7
S'configs'
p8
(lp9
S'kernelarch-x86/config-arch-32'
p10
asS'recommends'
p11
S'libc6-i686'
p12
ss(S'image'
S'amd64'
p13
tp14
(dp15
S'suggests'
p16
S'crda'
p17
sS'configs'
p18
(lp19
S'kernelarch-x86/config'
p20
asS'bootloaders'
p21
(lp22
S'grub-pc'
p23
aS'extlinux'
p24
aS'grub-efi-amd64'
p25
ass(S'base'
p26
g13
S'none'
p27
tp28
(dp29
S'implicit-flavour'
p30
I01
sS'flavours'
p31
(lp32
S'aptosid-amd64'
p33
ass(S'build'
g5
NS'aptosid-686'
tp34
(dp35
S'debug-info'
p36
I00
ss(S'base'
g13
tp37
(dp38
S'kernel-arch'
p39
S'x86'
p40
sS'featuresets'
p41
(lp42
g27
ass(S'image'
p43
tp44
(dp45
S'initramfs-generators'
p46
(lp47
S'initramfs-tools'
p48
aS'initramfs-fallback'
p49
asS'type'
p50
S'plain'
p51
ss(S'version'
p52
tp53
(dp54
S'abiname'
p55
S'3.2-10.slh.1'
p56
sS'source'
p57
V3.2-34
p58
ss(S'build'
g13
NS'aptosid-amd64'
tp59
(dp60
S'debug-info'
p61
I00
ss(S'base'
p62
g5
tp63
(dp64
S'kernel-arch'
p65
S'x86'
p66
sg41
(lp67
g27
ass(S'image'
g13
NS'aptosid-amd64'
tp68
(dp69
S'configs'
p70
(lp71
S'kernelarch-x86/config-arch-64'
p72
ass(S'base'
p73
tp74
(dp75
S'arches'
p76
(lp77
S'amd64'
p78
aS'i386'
p79
asS'featuresets'
p80
(lp81
S'none'
p82
asS'compiler'
p83
S'gcc-4.6'
p84
ss(S'description'
g13
NS'aptosid-amd64'
tp85
(dp86
S'hardware'
p87
S'64-bit PCs'
p88
sS'hardware-long'
p89
S'PCs with AMD64 or Intel 64 processors'
p90
ss(S'abi'
p91
tp92
(dp93
S'abiname'
p94
S'10.slh.1'
p95
ss(S'image'
p96
g5
tp97
(dp98
S'suggests'
p99
S'crda'
p100
sS'configs'
p101
(lp102
S'kernelarch-x86/config'
p103
asS'bootloaders'
p104
(lp105
S'grub-pc'
p106
aS'extlinux'
p107
ass(g26
g5
g27
tp108
(dp109
g30
I01
sg31
(lp110
S'aptosid-686'
p111
ass(S'description'
g5
NS'aptosid-686'
tp112
(dp113
S'hardware'
p114
S'modern PCs'
p115
sS'hardware-long'
p116
S'PCs with Intel Pentium Pro/II/III/4/4M/D/M, Xeon, Celeron, Core or Atom; AMD Geode LX/NX, Athlon (K7), Duron, Opteron, Sempron, Turion or Phenom; Transmeta Efficeon; VIA C3 "Nehemiah" or C7 processors'
p117
ss(S'relations'
p118
tp119
(dp120
S'initramfs-fallback'
p121
S'linux-initramfs-tool'
p122
sS'lilo'
p123
S'lilo (>= 22.8-8.2~)'
p124
sS'initramfs-tools'
p125
S'initramfs-tools (>= 0.99~)'
p126
sS'gcc-4.6'
p127
S'gcc-4.6'
p128
sS'elilo'
p129
S'elilo (>= 3.12-3.1~)'
p130
sstRp131
.