ccopy_reg
_reconstructor
p0
(cdebian_linux.config
ConfigCore
p1
c__builtin__
dict
p2
(dp3
(Vbase
p4
Vi386
p5
Vnone
p6
tp7
(dp8
Vimplicit-flavour
p9
I01
sVflavours
p10
(lp11
Vaptosid-686
p12
ass(Vdescription
p13
g5
NVaptosid-686
p14
tp15
(dp16
Vhardware
p17
Vmodern PCs
p18
sVhardware-long
p19
VPCs with Intel Pentium Pro/II/III/4/4M/D/M, Xeon, Celeron, Core or Atom; AMD Geode LX/NX, Athlon (K7), Duron, Opteron, Sempron, Turion or Phenom; Transmeta Efficeon; VIA C3 "Nehemiah" or C7 processors
p20
ss(Vabi
p21
tp22
(dp23
Vabiname
p24
V2.slh.4
p25
ss(Vxen
p26
Vamd64
p27
Vnone
p28
Vaptosid-amd64
p29
tp30
(dp31
Vflavours
p32
(lp33
Vaptosid-amd64
p34
ass(Vbuild
p35
g5
tp36
(dp37
Vimage-file
p38
Varch/x86/boot/bzImage
p39
sVdebug-info
p40
I00
ss(Vdescription
p41
g27
g28
Vaptosid-amd64
p42
tp43
(dp44
Vparts
p45
(lp46
Vxen
p47
ass(Vversion
p48
tp49
(dp50
Vabiname_base
p51
V4.6.0
p52
sVsource
p53
V4.6-9
p54
sVabiname
p55
V4.6.0-2.slh.4
p56
sVupstream
p57
V4.6
p58
ss(Vbase
p59
tp60
(dp61
Varches
p62
(lp63
Vamd64
p64
aVi386
p65
asVcompiler
p66
Vgcc-5
p67
sVfeaturesets
p68
(lp69
Vnone
p70
ass(Vbuild
p71
g27
tp72
(dp73
Vimage-file
p74
Varch/x86/boot/bzImage
p75
sVdebug-info
p76
I00
ss(Vbase
p77
g27
g28
tp78
(dp79
g9
I01
sg10
(lp80
Vaptosid-amd64
p81
ass(Vrelations
p82
tp83
(dp84
Vinitramfs-tools
p85
Vinitramfs-tools (>= 0.121~)
p86
sVgcc-5
p87
Vgcc-5
p88
sVinitramfs-fallback
p89
Vlinux-initramfs-tool
p90
ss(Vbase
p91
g27
tp92
(dp93
Vkernel-arch
p94
Vx86
p95
sVfeaturesets
p96
(lp97
Vnone
p98
ag28
ass(Vimage
p99
g5
tp100
(dp101
Vinstall-stem
p102
Vvmlinuz
p103
sVconfigs
p104
(lp105
sVbootloaders
p106
(lp107
Vgrub-pc
p108
aVextlinux
p109
aVgrub-efi-ia32
p110
asVsuggests
p111
Vcrda
p112
ss(Vbase
p113
g5
tp114
(dp115
Vkernel-arch
p116
Vx86
p117
sVfeaturesets
p118
(lp119
g98
ag6
ass(Vimage
p120
g27
tp121
(dp122
Vinstall-stem
p123
Vvmlinuz
p124
sVconfigs
p125
(lp126
sVbootloaders
p127
(lp128
Vgrub-pc
p129
aVextlinux
p130
aVgrub-efi-amd64
p131
asVsuggests
p132
Vcrda
p133
ss(Vimage
p134
g27
NVaptosid-amd64
p135
tp136
(dp137
Vconfigs
p138
(lp139
Vkernelarch-x86/config-arch-64
p140
ass(Vimage
p141
tp142
(dp143
Vinitramfs-generators
p144
(lp145
Vinitramfs-tools
p146
aVinitramfs-fallback
p147
asVtype
p148
Vplain
p149
ss(Vdescription
p150
g27
NVaptosid-amd64
p151
tp152
(dp153
Vhardware
p154
V64-bit PCs
p155
sVhardware-long
p156
VPCs with AMD64 or Intel 64 processors
p157
ss(Vimage
p158
g5
NVaptosid-686
p159
tp160
(dp161
Vconfigs
p162
(lp163
Vkernelarch-x86/config-arch-32
p164
asVrecommends
p165
Vlibc6-i686
p166
ss(Vdescription
p167
tp168
(dp169
Vpart-long-xen
p170
VThis kernel also runs on a Xen hypervisor.\u000aIt supports both privileged (dom0) and unprivileged (domU) operation.
p171
sVpart-long-up
p172
VThis kernel is not suitable for SMP (multi-processor,\u000amulti-core or hyper-threaded) systems.
p173
sstp174
Rp175
.