ccopy_reg
_reconstructor
p0
(cdebian_linux.config
ConfigCore
p1
c__builtin__
dict
p2
(dp3
(Vdescription
p4
Vamd64
p5
Vnone
p6
Vaptosid-amd64
p7
tp8
(dp9
Vparts
p10
(lp11
Vxen
p12
ass(Vdescription
p13
tp14
(dp15
Vpart-long-up
p16
VThis kernel is not suitable for SMP (multi-processor,\u000amulti-core or hyper-threaded) systems.
p17
sVpart-long-xen
p18
VThis kernel also runs on a Xen hypervisor.\u000aIt supports both privileged (dom0) and unprivileged (domU) operation.
p19
ss(Vbase
p20
tp21
(dp22
Vcompiler
p23
Vgcc-6
p24
sVarches
p25
(lp26
Vamd64
p27
aVi386
p28
asVfeaturesets
p29
(lp30
Vnone
p31
ass(Vdescription
p32
g5
NVaptosid-amd64
p33
tp34
(dp35
Vhardware-long
p36
VPCs with AMD64 or Intel 64 processors
p37
sVhardware
p38
V64-bit PCs
p39
ss(Vbase
p40
g5
tp41
(dp42
Vkernel-arch
p43
Vx86
p44
sVfeaturesets
p45
(lp46
Vnone
p47
ag6
ass(Vversion
p48
tp49
(dp50
Vupstream
p51
V4.8
p52
sVsource
p53
V4.8-19
p54
sVabiname_base
p55
V4.8.0
p56
sVabiname
p57
V4.8.0-12.slh.1
p58
ss(Vbuild
p59
g5
tp60
(dp61
Vimage-file
p62
Varch/x86/boot/bzImage
p63
sVdebug-info
p64
I00
ss(Vbase
p65
Vi386
p66
tp67
(dp68
Vkernel-arch
p69
Vx86
p70
sVfeaturesets
p71
(lp72
g47
aVnone
p73
ass(Vbuild
p74
g66
tp75
(dp76
Vimage-file
p77
Varch/x86/boot/bzImage
p78
sVdebug-info
p79
I00
ss(Vbase
p80
g5
g6
tp81
(dp82
Vflavours
p83
(lp84
Vaptosid-amd64
p85
asVimplicit-flavour
p86
I01
ss(Vimage
p87
g5
tp88
(dp89
Vinstall-stem
p90
Vvmlinuz
p91
sVsuggests
p92
Vcrda
p93
sVbreaks
p94
Vxserver-xorg-input-vmmouse (<< 1:13.0.99)
p95
sVbootloaders
p96
(lp97
Vgrub-pc
p98
aVextlinux
p99
aVgrub-efi-amd64
p100
ass(Vrelations
p101
tp102
(dp103
Vgcc-6
p104
Vgcc-6
p105
sVinitramfs-fallback
p106
Vlinux-initramfs-tool
p107
sVinitramfs-tools
p108
Vinitramfs-tools (>= 0.121~)
p109
ss(Vdescription
p110
g66
NVaptosid-686
p111
tp112
(dp113
Vhardware-long
p114
VPCs with Intel Pentium Pro/II/III/4/4M/D/M, Xeon, Celeron, Core or Atom; AMD Geode LX/NX, Athlon (K7), Duron, Opteron, Sempron, Turion or Phenom; Transmeta Efficeon; VIA C3 "Nehemiah" or C7 processors
p115
sVhardware
p116
Vmodern PCs
p117
ss(Vabi
p118
tp119
(dp120
Vabiname
p121
V12.slh.1
p122
ss(Vxen
p123
g5
g6
Vaptosid-amd64
p124
tp125
(dp126
Vflavours
p127
(lp128
Vaptosid-amd64
p129
ass(Vbase
p130
g66
g73
tp131
(dp132
g83
(lp133
Vaptosid-686
p134
asg86
I01
ss(Vimage
p135
tp136
(dp137
Vinitramfs-generators
p138
(lp139
Vinitramfs-tools
p140
aVinitramfs-fallback
p141
ass(Vimage
p142
g66
tp143
(dp144
Vinstall-stem
p145
Vvmlinuz
p146
sVsuggests
p147
Vcrda
p148
sVbreaks
p149
Vxserver-xorg-input-vmmouse (<< 1:13.0.99)
p150
sVbootloaders
p151
(lp152
Vgrub-pc
p153
aVextlinux
p154
aVgrub-efi-ia32
p155
asstp156
Rp157
.