ccopy_reg
_reconstructor
p0
(cdebian_linux.config
ConfigCore
p1
c__builtin__
dict
p2
(dp3
(Vdescription
p4
Vi386
p5
NVaptosid-686
p6
tp7
(dp8
Vhardware-long
p9
VPCs with Intel Pentium Pro/II/III/4/4M/D/M, Xeon, Celeron, Core or Atom; AMD Geode LX/NX, Athlon (K7), Duron, Opteron, Sempron, Turion or Phenom; Transmeta Efficeon; VIA C3 "Nehemiah" or C7 processors
p10
sVhardware
p11
Vmodern PCs
p12
ss(Vdescription
p13
Vamd64
p14
Vnone
p15
Vaptosid-amd64
p16
tp17
(dp18
Vparts
p19
(lp20
Vxen
p21
ass(Vimage
p22
g5
tp23
(dp24
Vinstall-stem
p25
Vvmlinuz
p26
sVsuggests
p27
Vcrda
p28
sVconfigs
p29
(lp30
sVbootloaders
p31
(lp32
Vgrub-pc
p33
aVextlinux
p34
aVgrub-efi-ia32
p35
ass(Vbase
p36
tp37
(dp38
Vfeaturesets
p39
(lp40
Vnone
p41
asVarches
p42
(lp43
Vamd64
p44
aVi386
p45
asVcompiler
p46
Vgcc-5
p47
ss(Vdescription
p48
g14
NVaptosid-amd64
p49
tp50
(dp51
Vhardware-long
p52
VPCs with AMD64 or Intel 64 processors
p53
sVhardware
p54
V64-bit PCs
p55
ss(Vimage
p56
tp57
(dp58
Vinitramfs-generators
p59
(lp60
Vinitramfs-tools
p61
aVinitramfs-fallback
p62
asVtype
p63
Vplain
p64
ss(Vbase
p65
g14
tp66
(dp67
Vfeaturesets
p68
(lp69
Vnone
p70
ag15
asVkernel-arch
p71
Vx86
p72
ss(Vimage
p73
g5
NVaptosid-686
p74
tp75
(dp76
Vrecommends
p77
Vlibc6-i686
p78
sVconfigs
p79
(lp80
Vkernelarch-x86/config-arch-32
p81
ass(Vimage
p82
g14
tp83
(dp84
Vinstall-stem
p85
Vvmlinuz
p86
sVsuggests
p87
Vcrda
p88
sVconfigs
p89
(lp90
sVbootloaders
p91
(lp92
Vgrub-pc
p93
aVextlinux
p94
aVgrub-efi-amd64
p95
ass(Vxen
p96
g14
g15
Vaptosid-amd64
p97
tp98
(dp99
Vflavours
p100
(lp101
Vaptosid-amd64
p102
ass(Vabi
p103
tp104
(dp105
Vabiname
p106
V4.slh.1
p107
ss(Vbase
p108
g14
g15
tp109
(dp110
Vimplicit-flavour
p111
I01
sVflavours
p112
(lp113
Vaptosid-amd64
p114
ass(Vdescription
p115
tp116
(dp117
Vpart-long-xen
p118
VThis kernel also runs on a Xen hypervisor.\u000aIt supports both privileged (dom0) and unprivileged (domU) operation.
p119
sVpart-long-up
p120
VThis kernel is not suitable for SMP (multi-processor,\u000amulti-core or hyper-threaded) systems.
p121
ss(Vversion
p122
tp123
(dp124
Vupstream
p125
V4.6
p126
sVsource
p127
V4.6-12
p128
sVabiname_base
p129
V4.6.0
p130
sVabiname
p131
V4.6.0-4.slh.1
p132
ss(Vbase
p133
g5
Vnone
p134
tp135
(dp136
g111
I01
sg112
(lp137
Vaptosid-686
p138
ass(Vbuild
p139
g14
tp140
(dp141
Vdebug-info
p142
I00
sVimage-file
p143
Varch/x86/boot/bzImage
p144
ss(Vimage
p145
g14
NVaptosid-amd64
p146
tp147
(dp148
Vconfigs
p149
(lp150
Vkernelarch-x86/config-arch-64
p151
ass(Vrelations
p152
tp153
(dp154
Vgcc-5
p155
Vgcc-5
p156
sVinitramfs-fallback
p157
Vlinux-initramfs-tool
p158
sVinitramfs-tools
p159
Vinitramfs-tools (>= 0.121~)
p160
ss(Vbase
p161
g5
tp162
(dp163
Vfeaturesets
p164
(lp165
g70
ag134
asVkernel-arch
p166
Vx86
p167
ss(Vbuild
p168
g5
tp169
(dp170
Vdebug-info
p171
I00
sVimage-file
p172
Varch/x86/boot/bzImage
p173
sstp174
Rp175
.