ccopy_reg
_reconstructor
p0
(cdebian_linux.config
ConfigCore
p1
c__builtin__
dict
p2
(dp3
(Vxen
p4
Vamd64
p5
Vnone
p6
Vaptosid-amd64
p7
tp8
(dp9
Vflavours
p10
(lp11
Vaptosid-amd64
p12
ass(Vimage
p13
g5
NVaptosid-amd64
p14
tp15
(dp16
Vconfigs
p17
(lp18
Vkernelarch-x86/config-arch-64
p19
ass(Vversion
p20
tp21
(dp22
Vupstream
p23
V4.4
p24
sVabiname
p25
V4.4.0-2.slh.3
p26
sVsource
p27
V4.4-12
p28
sVabiname_base
p29
V4.4.0
p30
ss(Vbuild
p31
g5
tp32
(dp33
Vimage-file
p34
Varch/x86/boot/bzImage
p35
sVdebug-info
p36
I00
ss(Vimage
p37
Vi386
p38
NVaptosid-686
p39
tp40
(dp41
Vconfigs
p42
(lp43
Vkernelarch-x86/config-arch-32
p44
asVrecommends
p45
Vlibc6-i686
p46
ss(Vimage
p47
g5
tp48
(dp49
Vconfigs
p50
(lp51
sVbootloaders
p52
(lp53
Vgrub-pc
p54
aVextlinux
p55
aVgrub-efi-amd64
p56
asVsuggests
p57
Vcrda
p58
sVinstall-stem
p59
Vvmlinuz
p60
ss(Vimage
p61
g38
tp62
(dp63
Vconfigs
p64
(lp65
sVbootloaders
p66
(lp67
Vgrub-pc
p68
aVextlinux
p69
aVgrub-efi-ia32
p70
asVsuggests
p71
Vcrda
p72
sVinstall-stem
p73
Vvmlinuz
p74
ss(Vdescription
p75
g5
g6
Vaptosid-amd64
p76
tp77
(dp78
Vparts
p79
(lp80
Vxen
p81
ass(Vimage
p82
tp83
(dp84
Vinitramfs-generators
p85
(lp86
Vinitramfs-tools
p87
aVinitramfs-fallback
p88
asVtype
p89
Vplain
p90
ss(Vdescription
p91
g5
NVaptosid-amd64
p92
tp93
(dp94
Vhardware
p95
V64-bit PCs
p96
sVhardware-long
p97
VPCs with AMD64 or Intel 64 processors
p98
ss(Vbuild
p99
g38
tp100
(dp101
Vimage-file
p102
Varch/x86/boot/bzImage
p103
sVdebug-info
p104
I00
ss(Vbase
p105
g5
tp106
(dp107
Vfeaturesets
p108
(lp109
Vnone
p110
ag6
asVkernel-arch
p111
Vx86
p112
ss(Vbase
p113
g38
Vnone
p114
tp115
(dp116
Vimplicit-flavour
p117
I01
sVflavours
p118
(lp119
Vaptosid-686
p120
ass(Vbase
p121
g5
g6
tp122
(dp123
g117
I01
sg118
(lp124
Vaptosid-amd64
p125
ass(Vrelations
p126
tp127
(dp128
Vgcc-5
p129
Vgcc-5
p130
sVinitramfs-fallback
p131
Vlinux-initramfs-tool
p132
sVinitramfs-tools
p133
Vinitramfs-tools (>= 0.118+c0.aptosid.1~)
p134
ss(Vdescription
p135
g38
NVaptosid-686
p136
tp137
(dp138
Vhardware
p139
Vmodern PCs
p140
sVhardware-long
p141
VPCs with Intel Pentium Pro/II/III/4/4M/D/M, Xeon, Celeron, Core or Atom; AMD Geode LX/NX, Athlon (K7), Duron, Opteron, Sempron, Turion or Phenom; Transmeta Efficeon; VIA C3 "Nehemiah" or C7 processors
p142
ss(Vabi
p143
tp144
(dp145
Vabiname
p146
V2.slh.3
p147
ss(Vbase
p148
tp149
(dp150
Varches
p151
(lp152
Vamd64
p153
aVi386
p154
asVcompiler
p155
Vgcc-5
p156
sVfeaturesets
p157
(lp158
Vnone
p159
ass(Vdescription
p160
tp161
(dp162
Vpart-long-xen
p163
VThis kernel also runs on a Xen hypervisor.\u000aIt supports both privileged (dom0) and unprivileged (domU) operation.
p164
sVpart-long-up
p165
VThis kernel is not suitable for SMP (multi-processor,\u000amulti-core or hyper-threaded) systems.
p166
ss(Vbase
p167
g38
tp168
(dp169
Vfeaturesets
p170
(lp171
g110
ag114
asVkernel-arch
p172
Vx86
p173
sstp174
Rp175
.