ccopy_reg
_reconstructor
p0
(cdebian_linux.config
ConfigCore
p1
c__builtin__
dict
p2
(dp3
(Vimage
p4
Vamd64
p5
tp6
(dp7
Vsuggests
p8
Vcrda
p9
sVbootloaders
p10
(lp11
Vgrub-pc
p12
aVextlinux
p13
aVgrub-efi-amd64
p14
asVbreaks
p15
Vxserver-xorg-input-vmmouse (<< 1:13.0.99)
p16
sVinstall-stem
p17
Vvmlinuz
p18
ss(Vimage
p19
tp20
(dp21
Vinitramfs-generators
p22
(lp23
Vinitramfs-tools
p24
aVinitramfs-fallback
p25
ass(Vdescription
p26
tp27
(dp28
Vpart-long-up
p29
VThis kernel is not suitable for SMP (multi-processor,\u000amulti-core or hyper-threaded) systems.
p30
sVpart-long-xen
p31
VThis kernel also runs on a Xen hypervisor.\u000aIt supports both privileged (dom0) and unprivileged (domU) operation.
p32
ss(Vdescription
p33
g5
NVaptosid-amd64
p34
tp35
(dp36
Vhardware-long
p37
VPCs with AMD64 or Intel 64 processors
p38
sVhardware
p39
V64-bit PCs
p40
ss(Vbuild
p41
g5
tp42
(dp43
Vdebug-info
p44
I00
sVimage-file
p45
Varch/x86/boot/bzImage
p46
ss(Vbase
p47
tp48
(dp49
Vfeaturesets
p50
(lp51
Vnone
p52
asVcompiler
p53
Vgcc-6
p54
sVarches
p55
(lp56
Vamd64
p57
aVi386
p58
ass(Vdescription
p59
g5
Vnone
p60
Vaptosid-amd64
p61
tp62
(dp63
Vparts
p64
(lp65
Vxen
p66
ass(Vrelations
p67
tp68
(dp69
Vinitramfs-tools
p70
Vinitramfs-tools (>= 0.121~)
p71
sVgcc-6
p72
Vgcc-6
p73
sVinitramfs-fallback
p74
Vlinux-initramfs-tool
p75
ss(Vbase
p76
g5
g60
tp77
(dp78
Vflavours
p79
(lp80
Vaptosid-amd64
p81
asVimplicit-flavour
p82
I01
ss(Vdescription
p83
Vi386
p84
NVaptosid-686
p85
tp86
(dp87
Vhardware-long
p88
VPCs with Intel Pentium Pro/II/III/4/4M/D/M, Xeon, Celeron, Core or Atom; AMD Geode LX/NX, Athlon (K7), Duron, Opteron, Sempron, Turion or Phenom; Transmeta Efficeon; VIA C3 "Nehemiah" or C7 processors
p89
sVhardware
p90
Vmodern PCs
p91
ss(Vversion
p92
tp93
(dp94
Vsource
p95
V4.8-11
p96
sVabiname
p97
V4.8.0-7.slh.1
p98
sVupstream
p99
V4.8
p100
sVabiname_base
p101
V4.8.0
p102
ss(Vabi
p103
tp104
(dp105
Vabiname
p106
V7.slh.1
p107
ss(Vbase
p108
g5
tp109
(dp110
Vfeaturesets
p111
(lp112
Vnone
p113
ag60
asVkernel-arch
p114
Vx86
p115
ss(Vxen
p116
g5
g60
Vaptosid-amd64
p117
tp118
(dp119
Vflavours
p120
(lp121
Vaptosid-amd64
p122
ass(Vimage
p123
g84
tp124
(dp125
Vsuggests
p126
Vcrda
p127
sVbootloaders
p128
(lp129
Vgrub-pc
p130
aVextlinux
p131
aVgrub-efi-ia32
p132
asVbreaks
p133
Vxserver-xorg-input-vmmouse (<< 1:13.0.99)
p134
sVinstall-stem
p135
Vvmlinuz
p136
ss(Vbase
p137
g84
Vnone
p138
tp139
(dp140
g79
(lp141
Vaptosid-686
p142
asg82
I01
ss(Vbuild
p143
g84
tp144
(dp145
Vdebug-info
p146
I00
sVimage-file
p147
Varch/x86/boot/bzImage
p148
ss(Vbase
p149
g84
tp150
(dp151
Vfeaturesets
p152
(lp153
g113
ag138
asVkernel-arch
p154
Vx86
p155
sstp156
Rp157
.