ccopy_reg
_reconstructor
p0
(cdebian_linux.config
ConfigCore
p1
c__builtin__
dict
p2
(dp3
(Vbase
p4
Vamd64
p5
Vnone
p6
tp7
(dp8
Vimplicit-flavour
p9
I01
sVflavours
p10
(lp11
Vaptosid-amd64
p12
ass(Vabi
p13
tp14
(dp15
Vabiname
p16
V5.slh.1
p17
ss(Vbase
p18
Vi386
p19
Vnone
p20
tp21
(dp22
g9
I01
sg10
(lp23
Vaptosid-686
p24
ass(Vbase
p25
g5
tp26
(dp27
Vkernel-arch
p28
Vx86
p29
sVfeaturesets
p30
(lp31
Vnone
p32
ag6
ass(Vimage
p33
g19
tp34
(dp35
Vbootloaders
p36
(lp37
Vgrub-pc
p38
aVextlinux
p39
aVgrub-efi-ia32
p40
asVinstall-stem
p41
Vvmlinuz
p42
sVsuggests
p43
Vcrda
p44
sVbreaks
p45
Vxserver-xorg-input-vmmouse (<< 1:13.0.99)
p46
ss(Vdescription
p47
g5
NVaptosid-amd64
p48
tp49
(dp50
Vhardware-long
p51
VPCs with AMD64 or Intel 64 processors
p52
sVhardware
p53
V64-bit PCs
p54
ss(Vversion
p55
tp56
(dp57
Vupstream
p58
V4.13
p59
sVabiname
p60
V4.13.0-5.slh.1
p61
sVabiname_base
p62
V4.13.0
p63
sVsource
p64
V4.13-11
p65
ss(Vdescription
p66
g19
NVaptosid-686
p67
tp68
(dp69
Vhardware-long
p70
VPCs with Intel Pentium Pro/II/III/4/4M/D/M, Xeon, Celeron, Core or Atom; AMD Geode LX/NX, Athlon (K7), Duron, Opteron, Sempron, Turion or Phenom; Transmeta Efficeon; VIA C3 "Nehemiah" or C7 processors
p71
sVhardware
p72
Vmodern PCs
p73
ss(Vbuild
p74
g19
tp75
(dp76
Vimage-file
p77
Varch/x86/boot/bzImage
p78
sVdebug-info
p79
I00
ss(Vbase
p80
g19
tp81
(dp82
Vkernel-arch
p83
Vx86
p84
sVfeaturesets
p85
(lp86
g32
ag20
ass(Vdescription
p87
g5
g6
Vaptosid-amd64
p88
tp89
(dp90
Vparts
p91
(lp92
Vxen
p93
ass(Vimage
p94
g5
tp95
(dp96
Vbootloaders
p97
(lp98
Vgrub-pc
p99
aVextlinux
p100
aVgrub-efi-amd64
p101
asVinstall-stem
p102
Vvmlinuz
p103
sVsuggests
p104
Vcrda
p105
sVbreaks
p106
Vxserver-xorg-input-vmmouse (<< 1:13.0.99)
p107
ss(Vdescription
p108
tp109
(dp110
Vpart-long-up
p111
VThis kernel is not suitable for SMP (multi-processor,\u000amulti-core or hyper-threaded) systems.
p112
sVpart-long-xen
p113
VThis kernel also runs on a Xen hypervisor.\u000aIt supports both privileged (dom0) and unprivileged (domU) operation.
p114
ss(Vimage
p115
tp116
(dp117
Vinitramfs-generators
p118
(lp119
Vinitramfs-tools
p120
aVinitramfs-fallback
p121
ass(Vbase
p122
tp123
(dp124
Varches
p125
(lp126
Vamd64
p127
aVi386
p128
asVcompiler
p129
Vgcc-7
p130
sVfeaturesets
p131
(lp132
Vnone
p133
ass(Vrelations
p134
tp135
(dp136
Vinitramfs-tools
p137
Vinitramfs-tools (>= 0.121~)
p138
sVgcc-7
p139
Vgcc-7
p140
sVinitramfs-fallback
p141
Vlinux-initramfs-tool
p142
ss(Vbuild
p143
g5
tp144
(dp145
Vimage-file
p146
Varch/x86/boot/bzImage
p147
sVdebug-info
p148
I00
sstp149
Rp150
.