ccopy_reg
_reconstructor
p0
(cdebian_linux.config
ConfigCore
p1
c__builtin__
dict
p2
(dp3
(Vimage
p4
tp5
(dp6
Vinitramfs-generators
p7
(lp8
Vinitramfs-tools
p9
aVinitramfs-fallback
p10
ass(Vbuild
p11
Vamd64
p12
tp13
(dp14
Vimage-file
p15
Varch/x86/boot/bzImage
p16
sVdebug-info
p17
I00
ss(Vdescription
p18
g12
Vnone
p19
Vaptosid-amd64
p20
tp21
(dp22
Vparts
p23
(lp24
Vxen
p25
ass(Vimage
p26
Vi386
p27
tp28
(dp29
Vinstall-stem
p30
Vvmlinuz
p31
sVbootloaders
p32
(lp33
Vgrub-pc
p34
aVextlinux
p35
aVgrub-efi-ia32
p36
asVsuggests
p37
Vcrda
p38
sVbreaks
p39
Vxserver-xorg-input-vmmouse (<< 1:13.0.99)
p40
ss(Vxen
p41
g12
g19
Vaptosid-amd64
p42
tp43
(dp44
Vflavours
p45
(lp46
Vaptosid-amd64
p47
ass(Vversion
p48
tp49
(dp50
Vupstream
p51
V4.7
p52
sVabiname
p53
V4.7.0-0.slh.2
p54
sVabiname_base
p55
V4.7.0
p56
sVsource
p57
V4.7-2
p58
ss(Vbase
p59
g27
tp60
(dp61
Vfeaturesets
p62
(lp63
Vnone
p64
aVnone
p65
asVkernel-arch
p66
Vx86
p67
ss(Vdescription
p68
tp69
(dp70
Vpart-long-up
p71
VThis kernel is not suitable for SMP (multi-processor,\u000amulti-core or hyper-threaded) systems.
p72
sVpart-long-xen
p73
VThis kernel also runs on a Xen hypervisor.\u000aIt supports both privileged (dom0) and unprivileged (domU) operation.
p74
ss(Vbase
p75
g12
g19
tp76
(dp77
Vimplicit-flavour
p78
I01
sVflavours
p79
(lp80
Vaptosid-amd64
p81
ass(Vabi
p82
tp83
(dp84
Vabiname
p85
V0.slh.2
p86
ss(Vdescription
p87
g12
NVaptosid-amd64
p88
tp89
(dp90
Vhardware
p91
V64-bit PCs
p92
sVhardware-long
p93
VPCs with AMD64 or Intel 64 processors
p94
ss(Vbase
p95
g27
g65
tp96
(dp97
g78
I01
sg79
(lp98
Vaptosid-686
p99
ass(Vbuild
p100
g27
tp101
(dp102
Vimage-file
p103
Varch/x86/boot/bzImage
p104
sVdebug-info
p105
I00
ss(Vimage
p106
g12
tp107
(dp108
Vinstall-stem
p109
Vvmlinuz
p110
sVbootloaders
p111
(lp112
Vgrub-pc
p113
aVextlinux
p114
aVgrub-efi-amd64
p115
asVsuggests
p116
Vcrda
p117
sVbreaks
p118
Vxserver-xorg-input-vmmouse (<< 1:13.0.99)
p119
ss(Vdescription
p120
g27
NVaptosid-686
p121
tp122
(dp123
Vhardware
p124
Vmodern PCs
p125
sVhardware-long
p126
VPCs with Intel Pentium Pro/II/III/4/4M/D/M, Xeon, Celeron, Core or Atom; AMD Geode LX/NX, Athlon (K7), Duron, Opteron, Sempron, Turion or Phenom; Transmeta Efficeon; VIA C3 "Nehemiah" or C7 processors
p127
ss(Vrelations
p128
tp129
(dp130
Vgcc-5
p131
Vgcc-5
p132
sVinitramfs-fallback
p133
Vlinux-initramfs-tool
p134
sVinitramfs-tools
p135
Vinitramfs-tools (>= 0.121~)
p136
ss(Vbase
p137
g12
tp138
(dp139
Vfeaturesets
p140
(lp141
g64
ag19
asVkernel-arch
p142
Vx86
p143
ss(Vbase
p144
tp145
(dp146
Vfeaturesets
p147
(lp148
Vnone
p149
asVcompiler
p150
Vgcc-5
p151
sVarches
p152
(lp153
Vamd64
p154
aVi386
p155
asstp156
Rp157
.