ccopy_reg
_reconstructor
p0
(cdebian_linux.config
ConfigCore
p1
c__builtin__
dict
p2
(dp3
(Vdescription
p4
tp5
(dp6
Vpart-long-up
p7
VThis kernel is not suitable for SMP (multi-processor,\u000amulti-core or hyper-threaded) systems.
p8
sVpart-long-xen
p9
VThis kernel also runs on a Xen hypervisor.\u000aIt supports both privileged (dom0) and unprivileged (domU) operation.
p10
ss(Vbase
p11
Vamd64
p12
Vnone
p13
tp14
(dp15
Vflavours
p16
(lp17
Vaptosid-amd64
p18
asVimplicit-flavour
p19
I01
ss(Vimage
p20
tp21
(dp22
Vinitramfs-generators
p23
(lp24
Vinitramfs-tools
p25
aVinitramfs-fallback
p26
ass(Vbuild
p27
g12
tp28
(dp29
Vdebug-info
p30
I00
sVimage-file
p31
Varch/x86/boot/bzImage
p32
ss(Vdescription
p33
Vi386
p34
NVaptosid-686
p35
tp36
(dp37
Vhardware-long
p38
VPCs with Intel Pentium Pro/II/III/4/4M/D/M, Xeon, Celeron, Core or Atom; AMD Geode LX/NX, Athlon (K7), Duron, Opteron, Sempron, Turion or Phenom; Transmeta Efficeon; VIA C3 "Nehemiah" or C7 processors
p39
sVhardware
p40
Vmodern PCs
p41
ss(Vbase
p42
tp43
(dp44
Vfeaturesets
p45
(lp46
Vnone
p47
asVarches
p48
(lp49
Vamd64
p50
aVi386
p51
asVcompiler
p52
Vgcc-6
p53
ss(Vimage
p54
g12
tp55
(dp56
Vbreaks
p57
Vxserver-xorg-input-vmmouse (<< 1:13.0.99)
p58
sVinstall-stem
p59
Vvmlinuz
p60
sVbootloaders
p61
(lp62
Vgrub-pc
p63
aVextlinux
p64
aVgrub-efi-amd64
p65
asVsuggests
p66
Vcrda
p67
ss(Vbase
p68
g34
tp69
(dp70
Vkernel-arch
p71
Vx86
p72
sVfeaturesets
p73
(lp74
Vnone
p75
aVnone
p76
ass(Vabi
p77
tp78
(dp79
Vabiname
p80
V8.slh.1
p81
ss(Vbase
p82
g34
g76
tp83
(dp84
g16
(lp85
Vaptosid-686
p86
asg19
I01
ss(Vbase
p87
g12
tp88
(dp89
Vkernel-arch
p90
Vx86
p91
sVfeaturesets
p92
(lp93
g75
ag13
ass(Vimage
p94
g34
tp95
(dp96
Vbreaks
p97
Vxserver-xorg-input-vmmouse (<< 1:13.0.99)
p98
sVinstall-stem
p99
Vvmlinuz
p100
sVbootloaders
p101
(lp102
Vgrub-pc
p103
aVextlinux
p104
aVgrub-efi-ia32
p105
asVsuggests
p106
Vcrda
p107
ss(Vdescription
p108
g12
NVaptosid-amd64
p109
tp110
(dp111
Vhardware-long
p112
VPCs with AMD64 or Intel 64 processors
p113
sVhardware
p114
V64-bit PCs
p115
ss(Vrelations
p116
tp117
(dp118
Vinitramfs-fallback
p119
Vlinux-initramfs-tool
p120
sVinitramfs-tools
p121
Vinitramfs-tools (>= 0.121~)
p122
sVgcc-6
p123
Vgcc-6
p124
ss(Vbuild
p125
g34
tp126
(dp127
Vdebug-info
p128
I00
sVimage-file
p129
Varch/x86/boot/bzImage
p130
ss(Vdescription
p131
g12
g13
Vaptosid-amd64
p132
tp133
(dp134
Vparts
p135
(lp136
Vxen
p137
ass(Vversion
p138
tp139
(dp140
Vsource
p141
V4.9-13
p142
sVupstream
p143
V4.9
p144
sVabiname_base
p145
V4.9.0
p146
sVabiname
p147
V4.9.0-8.slh.1
p148
sstp149
Rp150
.