ccopy_reg
_reconstructor
p0
(cdebian_linux.config
ConfigCore
p1
c__builtin__
dict
p2
(dp3
(Vbuild
p4
Vi386
p5
tp6
(dp7
Vimage-file
p8
Varch/x86/boot/bzImage
p9
sVdebug-info
p10
I00
ss(Vimage
p11
tp12
(dp13
Vinitramfs-generators
p14
(lp15
Vinitramfs-tools
p16
aVinitramfs-fallback
p17
ass(Vdescription
p18
Vamd64
p19
NVaptosid-amd64
p20
tp21
(dp22
Vhardware
p23
V64-bit PCs
p24
sVhardware-long
p25
VPCs with AMD64 or Intel 64 processors
p26
ss(Vbase
p27
g5
tp28
(dp29
Vkernel-arch
p30
Vx86
p31
sVfeaturesets
p32
(lp33
Vnone
p34
aVnone
p35
ass(Vrelations
p36
tp37
(dp38
Vgcc-6
p39
Vgcc-6
p40
sVinitramfs-fallback
p41
Vlinux-initramfs-tool
p42
sVinitramfs-tools
p43
Vinitramfs-tools (>= 0.121~)
p44
ss(Vxen
p45
g19
Vnone
p46
Vaptosid-amd64
p47
tp48
(dp49
Vflavours
p50
(lp51
Vaptosid-amd64
p52
ass(Vimage
p53
g19
tp54
(dp55
Vsuggests
p56
Vcrda
p57
sVinstall-stem
p58
Vvmlinuz
p59
sVbreaks
p60
Vxserver-xorg-input-vmmouse (<< 1:13.0.99)
p61
sVbootloaders
p62
(lp63
Vgrub-pc
p64
aVextlinux
p65
aVgrub-efi-amd64
p66
ass(Vabi
p67
tp68
(dp69
Vabiname
p70
V11.slh.2
p71
ss(Vimage
p72
g5
tp73
(dp74
Vsuggests
p75
Vcrda
p76
sVinstall-stem
p77
Vvmlinuz
p78
sVbreaks
p79
Vxserver-xorg-input-vmmouse (<< 1:13.0.99)
p80
sVbootloaders
p81
(lp82
Vgrub-pc
p83
aVextlinux
p84
aVgrub-efi-ia32
p85
ass(Vdescription
p86
g19
g46
Vaptosid-amd64
p87
tp88
(dp89
Vparts
p90
(lp91
Vxen
p92
ass(Vbase
p93
g19
tp94
(dp95
Vkernel-arch
p96
Vx86
p97
sVfeaturesets
p98
(lp99
g34
ag46
ass(Vversion
p100
tp101
(dp102
Vsource
p103
V4.8-18
p104
sVupstream
p105
V4.8
p106
sVabiname
p107
V4.8.0-11.slh.2
p108
sVabiname_base
p109
V4.8.0
p110
ss(Vbase
p111
g5
g35
tp112
(dp113
Vimplicit-flavour
p114
I01
sVflavours
p115
(lp116
Vaptosid-686
p117
ass(Vdescription
p118
tp119
(dp120
Vpart-long-xen
p121
VThis kernel also runs on a Xen hypervisor.\u000aIt supports both privileged (dom0) and unprivileged (domU) operation.
p122
sVpart-long-up
p123
VThis kernel is not suitable for SMP (multi-processor,\u000amulti-core or hyper-threaded) systems.
p124
ss(Vbase
p125
g19
g46
tp126
(dp127
g114
I01
sg115
(lp128
Vaptosid-amd64
p129
ass(Vbuild
p130
g19
tp131
(dp132
Vimage-file
p133
Varch/x86/boot/bzImage
p134
sVdebug-info
p135
I00
ss(Vdescription
p136
g5
NVaptosid-686
p137
tp138
(dp139
Vhardware
p140
Vmodern PCs
p141
sVhardware-long
p142
VPCs with Intel Pentium Pro/II/III/4/4M/D/M, Xeon, Celeron, Core or Atom; AMD Geode LX/NX, Athlon (K7), Duron, Opteron, Sempron, Turion or Phenom; Transmeta Efficeon; VIA C3 "Nehemiah" or C7 processors
p143
ss(Vbase
p144
tp145
(dp146
Vfeaturesets
p147
(lp148
Vnone
p149
asVarches
p150
(lp151
Vamd64
p152
aVi386
p153
asVcompiler
p154
Vgcc-6
p155
sstp156
Rp157
.