ccopy_reg
_reconstructor
p0
(cdebian_linux.config
ConfigCore
p1
c__builtin__
dict
p2
(dp3
(Vversion
p4
tp5
(dp6
Vsource
p7
V4.5-2
p8
sVupstream
p9
V4.5
p10
sVabiname
p11
V4.5.0-0.slh.2
p12
sVabiname_base
p13
V4.5.0
p14
ss(Vdescription
p15
Vamd64
p16
NVaptosid-amd64
p17
tp18
(dp19
Vhardware
p20
V64-bit PCs
p21
sVhardware-long
p22
VPCs with AMD64 or Intel 64 processors
p23
ss(Vimage
p24
g16
NVaptosid-amd64
p25
tp26
(dp27
Vconfigs
p28
(lp29
Vkernelarch-x86/config-arch-64
p30
ass(Vabi
p31
tp32
(dp33
Vabiname
p34
V0.slh.2
p35
ss(Vimage
p36
g16
tp37
(dp38
Vconfigs
p39
(lp40
sVinstall-stem
p41
Vvmlinuz
p42
sVsuggests
p43
Vcrda
p44
sVbootloaders
p45
(lp46
Vgrub-pc
p47
aVextlinux
p48
aVgrub-efi-amd64
p49
ass(Vbuild
p50
Vi386
p51
tp52
(dp53
Vimage-file
p54
Varch/x86/boot/bzImage
p55
sVdebug-info
p56
I00
ss(Vbase
p57
g51
tp58
(dp59
Vfeaturesets
p60
(lp61
Vnone
p62
aVnone
p63
asVkernel-arch
p64
Vx86
p65
ss(Vxen
p66
g16
Vnone
p67
Vaptosid-amd64
p68
tp69
(dp70
Vflavours
p71
(lp72
Vaptosid-amd64
p73
ass(Vbase
p74
g51
g63
tp75
(dp76
Vimplicit-flavour
p77
I01
sVflavours
p78
(lp79
Vaptosid-686
p80
ass(Vdescription
p81
g51
NVaptosid-686
p82
tp83
(dp84
Vhardware
p85
Vmodern PCs
p86
sVhardware-long
p87
VPCs with Intel Pentium Pro/II/III/4/4M/D/M, Xeon, Celeron, Core or Atom; AMD Geode LX/NX, Athlon (K7), Duron, Opteron, Sempron, Turion or Phenom; Transmeta Efficeon; VIA C3 "Nehemiah" or C7 processors
p88
ss(Vbase
p89
g16
g67
tp90
(dp91
g77
I01
sg78
(lp92
Vaptosid-amd64
p93
ass(Vbase
p94
g16
tp95
(dp96
Vfeaturesets
p97
(lp98
g62
ag67
asVkernel-arch
p99
Vx86
p100
ss(Vbuild
p101
g16
tp102
(dp103
Vimage-file
p104
Varch/x86/boot/bzImage
p105
sVdebug-info
p106
I00
ss(Vimage
p107
g51
tp108
(dp109
Vconfigs
p110
(lp111
sVinstall-stem
p112
Vvmlinuz
p113
sVsuggests
p114
Vcrda
p115
sVbootloaders
p116
(lp117
Vgrub-pc
p118
aVextlinux
p119
aVgrub-efi-ia32
p120
ass(Vdescription
p121
g16
g67
Vaptosid-amd64
p122
tp123
(dp124
Vparts
p125
(lp126
Vxen
p127
ass(Vdescription
p128
tp129
(dp130
Vpart-long-up
p131
VThis kernel is not suitable for SMP (multi-processor,\u000amulti-core or hyper-threaded) systems.
p132
sVpart-long-xen
p133
VThis kernel also runs on a Xen hypervisor.\u000aIt supports both privileged (dom0) and unprivileged (domU) operation.
p134
ss(Vbase
p135
tp136
(dp137
Varches
p138
(lp139
Vamd64
p140
aVi386
p141
asVfeaturesets
p142
(lp143
Vnone
p144
asVcompiler
p145
Vgcc-5
p146
ss(Vimage
p147
g51
NVaptosid-686
p148
tp149
(dp150
Vconfigs
p151
(lp152
Vkernelarch-x86/config-arch-32
p153
asVrecommends
p154
Vlibc6-i686
p155
ss(Vimage
p156
tp157
(dp158
Vinitramfs-generators
p159
(lp160
Vinitramfs-tools
p161
aVinitramfs-fallback
p162
asVtype
p163
Vplain
p164
ss(Vrelations
p165
tp166
(dp167
Vgcc-5
p168
Vgcc-5
p169
sVinitramfs-fallback
p170
Vlinux-initramfs-tool
p171
sVinitramfs-tools
p172
Vinitramfs-tools (>= 0.118+c0.aptosid.1~)
p173
sstp174
Rp175
.