ccopy_reg
_reconstructor
p0
(cdebian_linux.config
ConfigCore
p1
c__builtin__
dict
p2
(dp3
(S'image'
p4
S'amd64'
p5
tp6
(dp7
S'install-stem'
p8
S'vmlinuz'
p9
sS'configs'
p10
(lp11
sS'bootloaders'
p12
(lp13
S'grub-pc'
p14
aS'extlinux'
p15
aS'grub-efi-amd64'
p16
asS'suggests'
p17
S'crda'
p18
ss(S'base'
p19
g5
S'none'
p20
tp21
(dp22
S'implicit-flavour'
p23
I01
sS'flavours'
p24
(lp25
S'aptosid-amd64'
p26
ass(S'xen'
p27
g5
g20
S'aptosid-amd64'
p28
tp29
(dp30
S'flavours'
p31
(lp32
S'aptosid-amd64'
p33
ass(S'base'
p34
g5
tp35
(dp36
S'kernel-arch'
p37
S'x86'
p38
sS'featuresets'
p39
(lp40
S'none'
p41
ag20
ass(S'description'
p42
S'i386'
p43
NS'aptosid-686'
p44
tp45
(dp46
S'hardware'
p47
S'modern PCs'
p48
sS'hardware-long'
p49
S'PCs with Intel Pentium Pro/II/III/4/4M/D/M, Xeon, Celeron, Core or Atom; AMD Geode LX/NX, Athlon (K7), Duron, Opteron, Sempron, Turion or Phenom; Transmeta Efficeon; VIA C3 "Nehemiah" or C7 processors'
p50
ss(S'image'
p51
tp52
(dp53
S'initramfs-generators'
p54
(lp55
S'initramfs-tools'
p56
aS'initramfs-fallback'
p57
asS'type'
p58
S'plain'
p59
ss(S'image'
p60
g43
NS'aptosid-686'
p61
tp62
(dp63
S'configs'
p64
(lp65
S'kernelarch-x86/config-arch-32'
p66
asS'recommends'
p67
S'libc6-i686'
p68
ss(S'version'
p69
tp70
(dp71
S'abiname'
p72
S'3.16-1.slh.2'
p73
sS'source'
p74
V3.16-4
p75
sS'upstream'
p76
S'3.16'
p77
ss(S'description'
p78
g5
g20
S'aptosid-amd64'
p79
tp80
(dp81
S'parts'
p82
(lp83
S'xen'
p84
ass(S'base'
p85
g43
tp86
(dp87
S'kernel-arch'
p88
S'x86'
p89
sS'featuresets'
p90
(lp91
g41
aS'none'
p92
ass(S'image'
p93
g5
NS'aptosid-amd64'
p94
tp95
(dp96
S'configs'
p97
(lp98
S'kernelarch-x86/config-arch-64'
p99
ass(S'base'
p100
tp101
(dp102
S'arches'
p103
(lp104
S'amd64'
p105
aS'i386'
p106
asS'featuresets'
p107
(lp108
S'none'
p109
asS'compiler'
p110
S'gcc-4.9'
p111
ss(S'base'
p112
g43
g92
tp113
(dp114
g23
I01
sg24
(lp115
S'aptosid-686'
p116
ass(S'abi'
p117
tp118
(dp119
S'abiname'
p120
S'1.slh.2'
p121
ss(S'image'
p122
g43
tp123
(dp124
S'install-stem'
p125
S'vmlinuz'
p126
sS'configs'
p127
(lp128
sS'bootloaders'
p129
(lp130
S'grub-pc'
p131
aS'extlinux'
p132
aS'grub-efi-ia32'
p133
asS'suggests'
p134
S'crda'
p135
ss(S'description'
p136
tp137
(dp138
S'part-long-up'
p139
S'This kernel is not suitable for SMP (multi-processor,\nmulti-core or hyper-threaded) systems.'
p140
sS'part-long-xen'
p141
S'This kernel also runs on a Xen hypervisor.\nIt supports both privileged (dom0) and unprivileged (domU) operation.'
p142
ss(S'build'
p143
g5
tp144
(dp145
S'debug-info'
p146
I00
sS'image-file'
p147
S'arch/x86/boot/bzImage'
p148
ss(S'description'
p149
g5
NS'aptosid-amd64'
p150
tp151
(dp152
S'hardware'
p153
S'64-bit PCs'
p154
sS'hardware-long'
p155
S'PCs with AMD64 or Intel 64 processors'
p156
ss(S'build'
p157
g43
tp158
(dp159
S'debug-info'
p160
I00
sS'image-file'
p161
S'arch/x86/boot/bzImage'
p162
ss(S'relations'
p163
tp164
(dp165
S'initramfs-fallback'
p166
S'linux-initramfs-tool'
p167
sS'gcc-4.9'
p168
S'gcc-4.9'
p169
sS'initramfs-tools'
p170
S'initramfs-tools (>= 0.110~)'
p171
sstp172
Rp173
.