ccopy_reg
_reconstructor
p0
(cdebian_linux.config
ConfigCore
p1
c__builtin__
dict
p2
(dp3
(Vdescription
p4
Vi386
p5
NVaptosid-686
p6
tp7
(dp8
Vhardware
p9
Vmodern PCs
p10
sVhardware-long
p11
VPCs with Intel Pentium Pro/II/III/4/4M/D/M, Xeon, Celeron, Core or Atom; AMD Geode LX/NX, Athlon (K7), Duron, Opteron, Sempron, Turion or Phenom; Transmeta Efficeon; VIA C3 "Nehemiah" or C7 processors
p12
ss(Vbuild
p13
g5
tp14
(dp15
Vdebug-info
p16
I00
sVimage-file
p17
Varch/x86/boot/bzImage
p18
ss(Vrelations
p19
tp20
(dp21
Vinitramfs-fallback
p22
Vlinux-initramfs-tool
p23
sVgcc-6
p24
Vgcc-6
p25
sVinitramfs-tools
p26
Vinitramfs-tools (>= 0.121~)
p27
ss(Vbase
p28
g5
tp29
(dp30
Vkernel-arch
p31
Vx86
p32
sVfeaturesets
p33
(lp34
Vnone
p35
aVnone
p36
ass(Vimage
p37
Vamd64
p38
tp39
(dp40
Vbootloaders
p41
(lp42
Vgrub-pc
p43
aVextlinux
p44
aVgrub-efi-amd64
p45
asVsuggests
p46
Vcrda
p47
sVinstall-stem
p48
Vvmlinuz
p49
sVbreaks
p50
Vxserver-xorg-input-vmmouse (<< 1:13.0.99)
p51
ss(Vdescription
p52
g38
Vnone
p53
Vaptosid-amd64
p54
tp55
(dp56
Vparts
p57
(lp58
Vxen
p59
ass(Vimage
p60
tp61
(dp62
Vinitramfs-generators
p63
(lp64
Vinitramfs-tools
p65
aVinitramfs-fallback
p66
ass(Vversion
p67
tp68
(dp69
Vabiname_base
p70
V4.11.0
p71
sVupstream
p72
V4.11
p73
sVsource
p74
V4.11-15
p75
sVabiname
p76
V4.11.0-7.slh.2
p77
ss(Vbuild
p78
g38
tp79
(dp80
Vdebug-info
p81
I00
sVimage-file
p82
Varch/x86/boot/bzImage
p83
ss(Vdescription
p84
g38
NVaptosid-amd64
p85
tp86
(dp87
Vhardware
p88
V64-bit PCs
p89
sVhardware-long
p90
VPCs with AMD64 or Intel 64 processors
p91
ss(Vimage
p92
g5
tp93
(dp94
Vbootloaders
p95
(lp96
Vgrub-pc
p97
aVextlinux
p98
aVgrub-efi-ia32
p99
asVsuggests
p100
Vcrda
p101
sVinstall-stem
p102
Vvmlinuz
p103
sVbreaks
p104
Vxserver-xorg-input-vmmouse (<< 1:13.0.99)
p105
ss(Vbase
p106
g5
g36
tp107
(dp108
Vflavours
p109
(lp110
Vaptosid-686
p111
asVimplicit-flavour
p112
I01
ss(Vbase
p113
g38
tp114
(dp115
Vkernel-arch
p116
Vx86
p117
sVfeaturesets
p118
(lp119
g35
ag53
ass(Vbase
p120
g38
g53
tp121
(dp122
g109
(lp123
Vaptosid-amd64
p124
asg112
I01
ss(Vabi
p125
tp126
(dp127
Vabiname
p128
V7.slh.2
p129
ss(Vbase
p130
tp131
(dp132
Vfeaturesets
p133
(lp134
Vnone
p135
asVarches
p136
(lp137
Vamd64
p138
aVi386
p139
asVcompiler
p140
Vgcc-6
p141
ss(Vdescription
p142
tp143
(dp144
Vpart-long-up
p145
VThis kernel is not suitable for SMP (multi-processor,\u000amulti-core or hyper-threaded) systems.
p146
sVpart-long-xen
p147
VThis kernel also runs on a Xen hypervisor.\u000aIt supports both privileged (dom0) and unprivileged (domU) operation.
p148
sstp149
Rp150
.