ccopy_reg
_reconstructor
p0
(cdebian_linux.config
ConfigCore
p1
c__builtin__
dict
p2
(dp3
(Vdescription
p4
Vamd64
p5
NVaptosid-amd64
p6
tp7
(dp8
Vhardware-long
p9
VPCs with AMD64 or Intel 64 processors
p10
sVhardware
p11
V64-bit PCs
p12
ss(Vrelations
p13
tp14
(dp15
Vinitramfs-tools
p16
Vinitramfs-tools (>= 0.121~)
p17
sVgcc-6
p18
Vgcc-6
p19
sVinitramfs-fallback
p20
Vlinux-initramfs-tool
p21
ss(Vbase
p22
Vi386
p23
tp24
(dp25
Vfeaturesets
p26
(lp27
Vnone
p28
aVnone
p29
asVkernel-arch
p30
Vx86
p31
ss(Vdescription
p32
tp33
(dp34
Vpart-long-up
p35
VThis kernel is not suitable for SMP (multi-processor,\u000amulti-core or hyper-threaded) systems.
p36
sVpart-long-xen
p37
VThis kernel also runs on a Xen hypervisor.\u000aIt supports both privileged (dom0) and unprivileged (domU) operation.
p38
ss(Vbuild
p39
g5
tp40
(dp41
Vdebug-info
p42
I00
sVimage-file
p43
Varch/x86/boot/bzImage
p44
ss(Vbuild
p45
g23
tp46
(dp47
Vdebug-info
p48
I00
sVimage-file
p49
Varch/x86/boot/bzImage
p50
ss(Vdescription
p51
g23
NVaptosid-686
p52
tp53
(dp54
Vhardware-long
p55
VPCs with Intel Pentium Pro/II/III/4/4M/D/M, Xeon, Celeron, Core or Atom; AMD Geode LX/NX, Athlon (K7), Duron, Opteron, Sempron, Turion or Phenom; Transmeta Efficeon; VIA C3 "Nehemiah" or C7 processors
p56
sVhardware
p57
Vmodern PCs
p58
ss(Vbase
p59
g5
tp60
(dp61
Vfeaturesets
p62
(lp63
g28
aVnone
p64
asVkernel-arch
p65
Vx86
p66
ss(Vbase
p67
tp68
(dp69
Varches
p70
(lp71
Vamd64
p72
aVi386
p73
asVfeaturesets
p74
(lp75
Vnone
p76
asVcompiler
p77
Vgcc-6
p78
ss(Vimage
p79
tp80
(dp81
Vinitramfs-generators
p82
(lp83
Vinitramfs-tools
p84
aVinitramfs-fallback
p85
ass(Vbase
p86
g23
g29
tp87
(dp88
Vflavours
p89
(lp90
Vaptosid-686
p91
asVimplicit-flavour
p92
I01
ss(Vimage
p93
g23
tp94
(dp95
Vsuggests
p96
Vcrda
p97
sVbootloaders
p98
(lp99
Vgrub-pc
p100
aVextlinux
p101
aVgrub-efi-ia32
p102
asVbreaks
p103
Vxserver-xorg-input-vmmouse (<< 1:13.0.99)
p104
sVinstall-stem
p105
Vvmlinuz
p106
ss(Vabi
p107
tp108
(dp109
Vabiname
p110
V4.slh.1
p111
ss(Vimage
p112
g5
tp113
(dp114
Vsuggests
p115
Vcrda
p116
sVbootloaders
p117
(lp118
Vgrub-pc
p119
aVextlinux
p120
aVgrub-efi-amd64
p121
asVbreaks
p122
Vxserver-xorg-input-vmmouse (<< 1:13.0.99)
p123
sVinstall-stem
p124
Vvmlinuz
p125
ss(Vversion
p126
tp127
(dp128
Vsource
p129
V4.12-8
p130
sVabiname
p131
V4.12.0-4.slh.1
p132
sVabiname_base
p133
V4.12.0
p134
sVupstream
p135
V4.12
p136
ss(Vbase
p137
g5
g64
tp138
(dp139
g89
(lp140
Vaptosid-amd64
p141
asg92
I01
ss(Vdescription
p142
g5
g64
Vaptosid-amd64
p143
tp144
(dp145
Vparts
p146
(lp147
Vxen
p148
asstp149
Rp150
.