ccopy_reg
_reconstructor
p0
(cdebian_linux.config
ConfigCore
p1
c__builtin__
dict
p2
(dp3
(Vdescription
p4
Vamd64
p5
NVaptosid-amd64
p6
tp7
(dp8
Vhardware
p9
V64-bit PCs
p10
sVhardware-long
p11
VPCs with AMD64 or Intel 64 processors
p12
ss(Vversion
p13
tp14
(dp15
Vabiname
p16
V4.12.0-3.slh.1
p17
sVabiname_base
p18
V4.12.0
p19
sVsource
p20
V4.12-6
p21
sVupstream
p22
V4.12
p23
ss(Vabi
p24
tp25
(dp26
Vabiname
p27
V3.slh.1
p28
ss(Vimage
p29
tp30
(dp31
Vinitramfs-generators
p32
(lp33
Vinitramfs-tools
p34
aVinitramfs-fallback
p35
ass(Vbase
p36
Vi386
p37
Vnone
p38
tp39
(dp40
Vimplicit-flavour
p41
I01
sVflavours
p42
(lp43
Vaptosid-686
p44
ass(Vbuild
p45
g37
tp46
(dp47
Vimage-file
p48
Varch/x86/boot/bzImage
p49
sVdebug-info
p50
I00
ss(Vdescription
p51
g5
Vnone
p52
Vaptosid-amd64
p53
tp54
(dp55
Vparts
p56
(lp57
Vxen
p58
ass(Vbase
p59
g5
g52
tp60
(dp61
g41
I01
sg42
(lp62
Vaptosid-amd64
p63
ass(Vrelations
p64
tp65
(dp66
Vinitramfs-tools
p67
Vinitramfs-tools (>= 0.121~)
p68
sVinitramfs-fallback
p69
Vlinux-initramfs-tool
p70
sVgcc-6
p71
Vgcc-6
p72
ss(Vbuild
p73
g5
tp74
(dp75
Vimage-file
p76
Varch/x86/boot/bzImage
p77
sVdebug-info
p78
I00
ss(Vdescription
p79
tp80
(dp81
Vpart-long-up
p82
VThis kernel is not suitable for SMP (multi-processor,\u000amulti-core or hyper-threaded) systems.
p83
sVpart-long-xen
p84
VThis kernel also runs on a Xen hypervisor.\u000aIt supports both privileged (dom0) and unprivileged (domU) operation.
p85
ss(Vbase
p86
tp87
(dp88
Varches
p89
(lp90
Vamd64
p91
aVi386
p92
asVfeaturesets
p93
(lp94
Vnone
p95
asVcompiler
p96
Vgcc-6
p97
ss(Vimage
p98
g5
tp99
(dp100
Vbreaks
p101
Vxserver-xorg-input-vmmouse (<< 1:13.0.99)
p102
sVinstall-stem
p103
Vvmlinuz
p104
sVbootloaders
p105
(lp106
Vgrub-pc
p107
aVextlinux
p108
aVgrub-efi-amd64
p109
asVsuggests
p110
Vcrda
p111
ss(Vbase
p112
g5
tp113
(dp114
Vkernel-arch
p115
Vx86
p116
sVfeaturesets
p117
(lp118
Vnone
p119
ag52
ass(Vbase
p120
g37
tp121
(dp122
Vkernel-arch
p123
Vx86
p124
sVfeaturesets
p125
(lp126
g119
ag38
ass(Vimage
p127
g37
tp128
(dp129
Vbreaks
p130
Vxserver-xorg-input-vmmouse (<< 1:13.0.99)
p131
sVinstall-stem
p132
Vvmlinuz
p133
sVbootloaders
p134
(lp135
Vgrub-pc
p136
aVextlinux
p137
aVgrub-efi-ia32
p138
asVsuggests
p139
Vcrda
p140
ss(Vdescription
p141
g37
NVaptosid-686
p142
tp143
(dp144
Vhardware
p145
Vmodern PCs
p146
sVhardware-long
p147
VPCs with Intel Pentium Pro/II/III/4/4M/D/M, Xeon, Celeron, Core or Atom; AMD Geode LX/NX, Athlon (K7), Duron, Opteron, Sempron, Turion or Phenom; Transmeta Efficeon; VIA C3 "Nehemiah" or C7 processors
p148
sstp149
Rp150
.