ccopy_reg
_reconstructor
p0
(cdebian_linux.config
ConfigCore
p1
c__builtin__
dict
p2
(dp3
(Vrelations
p4
tp5
(dp6
Vinitramfs-fallback
p7
Vlinux-initramfs-tool
p8
sVgcc-7
p9
Vgcc-7
p10
sVinitramfs-tools
p11
Vinitramfs-tools (>= 0.121~)
p12
ss(Vversion
p13
tp14
(dp15
Vabiname_base
p16
V4.12.0
p17
sVabiname
p18
V4.12.0-9.slh.1
p19
sVupstream
p20
V4.12
p21
sVsource
p22
V4.12-18
p23
ss(Vdescription
p24
tp25
(dp26
Vpart-long-up
p27
VThis kernel is not suitable for SMP (multi-processor,\u000amulti-core or hyper-threaded) systems.
p28
sVpart-long-xen
p29
VThis kernel also runs on a Xen hypervisor.\u000aIt supports both privileged (dom0) and unprivileged (domU) operation.
p30
ss(Vimage
p31
Vi386
p32
tp33
(dp34
Vinstall-stem
p35
Vvmlinuz
p36
sVsuggests
p37
Vcrda
p38
sVbootloaders
p39
(lp40
Vgrub-pc
p41
aVextlinux
p42
aVgrub-efi-ia32
p43
asVbreaks
p44
Vxserver-xorg-input-vmmouse (<< 1:13.0.99)
p45
ss(Vbuild
p46
g32
tp47
(dp48
Vdebug-info
p49
I00
sVimage-file
p50
Varch/x86/boot/bzImage
p51
ss(Vbase
p52
g32
tp53
(dp54
Vfeaturesets
p55
(lp56
Vnone
p57
aVnone
p58
asVkernel-arch
p59
Vx86
p60
ss(Vabi
p61
tp62
(dp63
Vabiname
p64
V9.slh.1
p65
ss(Vbase
p66
Vamd64
p67
tp68
(dp69
Vfeaturesets
p70
(lp71
g57
aVnone
p72
asVkernel-arch
p73
Vx86
p74
ss(Vbuild
p75
g67
tp76
(dp77
Vdebug-info
p78
I00
sVimage-file
p79
Varch/x86/boot/bzImage
p80
ss(Vimage
p81
g67
tp82
(dp83
Vinstall-stem
p84
Vvmlinuz
p85
sVsuggests
p86
Vcrda
p87
sVbootloaders
p88
(lp89
Vgrub-pc
p90
aVextlinux
p91
aVgrub-efi-amd64
p92
asVbreaks
p93
Vxserver-xorg-input-vmmouse (<< 1:13.0.99)
p94
ss(Vimage
p95
tp96
(dp97
Vinitramfs-generators
p98
(lp99
Vinitramfs-tools
p100
aVinitramfs-fallback
p101
ass(Vdescription
p102
g67
g72
Vaptosid-amd64
p103
tp104
(dp105
Vparts
p106
(lp107
Vxen
p108
ass(Vbase
p109
tp110
(dp111
Vcompiler
p112
Vgcc-7
p113
sVfeaturesets
p114
(lp115
Vnone
p116
asVarches
p117
(lp118
Vamd64
p119
aVi386
p120
ass(Vbase
p121
g67
g72
tp122
(dp123
Vflavours
p124
(lp125
Vaptosid-amd64
p126
asVimplicit-flavour
p127
I01
ss(Vdescription
p128
g67
NVaptosid-amd64
p129
tp130
(dp131
Vhardware
p132
V64-bit PCs
p133
sVhardware-long
p134
VPCs with AMD64 or Intel 64 processors
p135
ss(Vbase
p136
g32
g58
tp137
(dp138
g124
(lp139
Vaptosid-686
p140
asg127
I01
ss(Vdescription
p141
g32
NVaptosid-686
p142
tp143
(dp144
Vhardware
p145
Vmodern PCs
p146
sVhardware-long
p147
VPCs with Intel Pentium Pro/II/III/4/4M/D/M, Xeon, Celeron, Core or Atom; AMD Geode LX/NX, Athlon (K7), Duron, Opteron, Sempron, Turion or Phenom; Transmeta Efficeon; VIA C3 "Nehemiah" or C7 processors
p148
sstp149
Rp150
.