ccopy_reg
_reconstructor
p0
(cdebian_linux.config
ConfigCore
p1
c__builtin__
dict
p2
(dp3
(Vimage
p4
Vamd64
p5
NVaptosid-amd64
p6
tp7
(dp8
Vconfigs
p9
(lp10
Vkernelarch-x86/config-arch-64
p11
ass(Vbase
p12
g5
Vnone
p13
tp14
(dp15
Vflavours
p16
(lp17
Vaptosid-amd64
p18
asVimplicit-flavour
p19
I01
ss(Vversion
p20
tp21
(dp22
Vsource
p23
V4.5-6
p24
sVabiname_base
p25
V4.5.0
p26
sVabiname
p27
V4.5.0-1.slh.3
p28
sVupstream
p29
V4.5
p30
ss(Vdescription
p31
g5
NVaptosid-amd64
p32
tp33
(dp34
Vhardware
p35
V64-bit PCs
p36
sVhardware-long
p37
VPCs with AMD64 or Intel 64 processors
p38
ss(Vbase
p39
Vi386
p40
Vnone
p41
tp42
(dp43
g16
(lp44
Vaptosid-686
p45
asg19
I01
ss(Vbase
p46
tp47
(dp48
Vfeaturesets
p49
(lp50
Vnone
p51
asVarches
p52
(lp53
Vamd64
p54
aVi386
p55
asVcompiler
p56
Vgcc-5
p57
ss(Vimage
p58
tp59
(dp60
Vinitramfs-generators
p61
(lp62
Vinitramfs-tools
p63
aVinitramfs-fallback
p64
asVtype
p65
Vplain
p66
ss(Vxen
p67
g5
g13
Vaptosid-amd64
p68
tp69
(dp70
Vflavours
p71
(lp72
Vaptosid-amd64
p73
ass(Vimage
p74
g40
NVaptosid-686
p75
tp76
(dp77
Vconfigs
p78
(lp79
Vkernelarch-x86/config-arch-32
p80
asVrecommends
p81
Vlibc6-i686
p82
ss(Vimage
p83
g40
tp84
(dp85
Vconfigs
p86
(lp87
sVbootloaders
p88
(lp89
Vgrub-pc
p90
aVextlinux
p91
aVgrub-efi-ia32
p92
asVinstall-stem
p93
Vvmlinuz
p94
sVsuggests
p95
Vcrda
p96
ss(Vbuild
p97
g40
tp98
(dp99
Vdebug-info
p100
I00
sVimage-file
p101
Varch/x86/boot/bzImage
p102
ss(Vimage
p103
g5
tp104
(dp105
Vconfigs
p106
(lp107
sVbootloaders
p108
(lp109
Vgrub-pc
p110
aVextlinux
p111
aVgrub-efi-amd64
p112
asVinstall-stem
p113
Vvmlinuz
p114
sVsuggests
p115
Vcrda
p116
ss(Vdescription
p117
tp118
(dp119
Vpart-long-xen
p120
VThis kernel also runs on a Xen hypervisor.\u000aIt supports both privileged (dom0) and unprivileged (domU) operation.
p121
sVpart-long-up
p122
VThis kernel is not suitable for SMP (multi-processor,\u000amulti-core or hyper-threaded) systems.
p123
ss(Vrelations
p124
tp125
(dp126
Vinitramfs-tools
p127
Vinitramfs-tools (>= 0.121~)
p128
sVgcc-5
p129
Vgcc-5
p130
sVinitramfs-fallback
p131
Vlinux-initramfs-tool
p132
ss(Vbase
p133
g40
tp134
(dp135
Vfeaturesets
p136
(lp137
Vnone
p138
ag41
asVkernel-arch
p139
Vx86
p140
ss(Vabi
p141
tp142
(dp143
Vabiname
p144
V1.slh.3
p145
ss(Vbase
p146
g5
tp147
(dp148
Vfeaturesets
p149
(lp150
g138
ag13
asVkernel-arch
p151
Vx86
p152
ss(Vbuild
p153
g5
tp154
(dp155
Vdebug-info
p156
I00
sVimage-file
p157
Varch/x86/boot/bzImage
p158
ss(Vdescription
p159
g5
g13
Vaptosid-amd64
p160
tp161
(dp162
Vparts
p163
(lp164
Vxen
p165
ass(Vdescription
p166
g40
NVaptosid-686
p167
tp168
(dp169
Vhardware
p170
Vmodern PCs
p171
sVhardware-long
p172
VPCs with Intel Pentium Pro/II/III/4/4M/D/M, Xeon, Celeron, Core or Atom; AMD Geode LX/NX, Athlon (K7), Duron, Opteron, Sempron, Turion or Phenom; Transmeta Efficeon; VIA C3 "Nehemiah" or C7 processors
p173
sstp174
Rp175
.