ccopy_reg
_reconstructor
p1
(cdebian_linux.config
ConfigCore
p2
c__builtin__
dict
p3
(dp4
(S'description'
S'i386'
p5
NS'aptosid-686'
tp6
(dp7
S'hardware'
p8
S'modern PCs'
p9
sS'hardware-long'
p10
S'PCs with Intel Pentium Pro/II/III/4/4M/D/M, Xeon, Celeron, Core or Atom; AMD Geode LX/NX, Athlon (K7), Duron, Opteron, Sempron, Turion or Phenom; Transmeta Efficeon; VIA C3 "Nehemiah" or C7 processors'
p11
ss(S'image'
S'amd64'
p12
tp13
(dp14
S'suggests'
p15
S'crda'
p16
sS'configs'
p17
(lp18
S'kernelarch-x86/config'
p19
asS'bootloaders'
p20
(lp21
S'grub-pc'
p22
aS'extlinux'
p23
aS'grub-efi-amd64'
p24
ass(S'image'
g5
NS'aptosid-686'
tp25
(dp26
S'configs'
p27
(lp28
S'kernelarch-x86/config-arch-32'
p29
asS'recommends'
p30
S'libc6-i686'
p31
ss(S'description'
g12
NS'aptosid-amd64'
tp32
(dp33
S'hardware'
p34
S'64-bit PCs'
p35
sS'hardware-long'
p36
S'PCs with AMD64 or Intel 64 processors'
p37
ss(S'base'
g12
tp38
(dp39
S'kernel-arch'
p40
S'x86'
p41
sS'featuresets'
p42
(lp43
S'none'
p44
ass(S'build'
g5
NS'aptosid-686'
tp45
(dp46
S'debug-info'
p47
I00
ss(S'image'
p48
tp49
(dp50
S'initramfs-generators'
p51
(lp52
S'initramfs-tools'
p53
aS'initramfs-fallback'
p54
asS'type'
p55
S'plain'
p56
ss(S'version'
p57
tp58
(dp59
S'abiname'
p60
S'3.3-0.slh.1'
p61
sS'source'
p62
V3.3-1
p63
ss(S'base'
p64
g5
tp65
(dp66
S'kernel-arch'
p67
S'x86'
p68
sg42
(lp69
g44
ass(S'abi'
p70
tp71
(dp72
S'abiname'
p73
S'0.slh.1'
p74
ss(S'image'
p75
g5
tp76
(dp77
S'suggests'
p78
S'crda'
p79
sS'configs'
p80
(lp81
S'kernelarch-x86/config'
p82
asS'bootloaders'
p83
(lp84
S'grub-pc'
p85
aS'extlinux'
p86
ass(S'base'
p87
g5
g44
tp88
(dp89
S'implicit-flavour'
p90
I01
sS'flavours'
p91
(lp92
S'aptosid-686'
p93
ass(S'image'
g12
NS'aptosid-amd64'
tp94
(dp95
S'configs'
p96
(lp97
S'kernelarch-x86/config-arch-64'
p98
ass(g87
g12
g44
tp99
(dp100
g90
I01
sg91
(lp101
S'aptosid-amd64'
p102
ass(S'build'
g12
NS'aptosid-amd64'
tp103
(dp104
S'debug-info'
p105
I00
ss(S'base'
p106
tp107
(dp108
S'arches'
p109
(lp110
S'amd64'
p111
aS'i386'
p112
asS'featuresets'
p113
(lp114
S'none'
p115
asS'compiler'
p116
S'gcc-4.6'
p117
ss(S'relations'
p118
tp119
(dp120
S'initramfs-fallback'
p121
S'linux-initramfs-tool'
p122
sS'lilo'
p123
S'lilo (>= 22.8-8.2~)'
p124
sS'initramfs-tools'
p125
S'initramfs-tools (>= 0.99~)'
p126
sS'gcc-4.6'
p127
S'gcc-4.6'
p128
sS'elilo'
p129
S'elilo (>= 3.12-3.1~)'
p130
sstRp131
.