ccopy_reg
_reconstructor
p0
(cdebian_linux.config
ConfigCore
p1
c__builtin__
dict
p2
(dp3
(Vdescription
p4
Vamd64
p5
Vnone
p6
Vaptosid-amd64
p7
tp8
(dp9
Vparts
p10
(lp11
Vxen
p12
ass(Vimage
p13
Vi386
p14
tp15
(dp16
Vbreaks
p17
Vxserver-xorg-input-vmmouse (<< 1:13.0.99)
p18
sVinstall-stem
p19
Vvmlinuz
p20
sVbootloaders
p21
(lp22
Vgrub-pc
p23
aVextlinux
p24
aVgrub-efi-ia32
p25
asVsuggests
p26
Vcrda
p27
ss(Vimage
p28
g5
tp29
(dp30
Vbreaks
p31
Vxserver-xorg-input-vmmouse (<< 1:13.0.99)
p32
sVinstall-stem
p33
Vvmlinuz
p34
sVbootloaders
p35
(lp36
Vgrub-pc
p37
aVextlinux
p38
aVgrub-efi-amd64
p39
asVsuggests
p40
Vcrda
p41
ss(Vdescription
p42
g14
NVaptosid-686
p43
tp44
(dp45
Vhardware-long
p46
VPCs with Intel Pentium Pro/II/III/4/4M/D/M, Xeon, Celeron, Core or Atom; AMD Geode LX/NX, Athlon (K7), Duron, Opteron, Sempron, Turion or Phenom; Transmeta Efficeon; VIA C3 "Nehemiah" or C7 processors
p47
sVhardware
p48
Vmodern PCs
p49
ss(Vversion
p50
tp51
(dp52
Vabiname_base
p53
V4.10.0
p54
sVupstream
p55
V4.10
p56
sVsource
p57
V4.10-7
p58
sVabiname
p59
V4.10.0-3.slh.1
p60
ss(Vimage
p61
tp62
(dp63
Vinitramfs-generators
p64
(lp65
Vinitramfs-tools
p66
aVinitramfs-fallback
p67
ass(Vdescription
p68
g5
NVaptosid-amd64
p69
tp70
(dp71
Vhardware-long
p72
VPCs with AMD64 or Intel 64 processors
p73
sVhardware
p74
V64-bit PCs
p75
ss(Vbase
p76
tp77
(dp78
Varches
p79
(lp80
Vamd64
p81
aVi386
p82
asVfeaturesets
p83
(lp84
Vnone
p85
asVcompiler
p86
Vgcc-6
p87
ss(Vbase
p88
g14
tp89
(dp90
Vkernel-arch
p91
Vx86
p92
sVfeaturesets
p93
(lp94
Vnone
p95
aVnone
p96
ass(Vdescription
p97
tp98
(dp99
Vpart-long-xen
p100
VThis kernel also runs on a Xen hypervisor.\u000aIt supports both privileged (dom0) and unprivileged (domU) operation.
p101
sVpart-long-up
p102
VThis kernel is not suitable for SMP (multi-processor,\u000amulti-core or hyper-threaded) systems.
p103
ss(Vabi
p104
tp105
(dp106
Vabiname
p107
V3.slh.1
p108
ss(Vbuild
p109
g14
tp110
(dp111
Vimage-file
p112
Varch/x86/boot/bzImage
p113
sVdebug-info
p114
I00
ss(Vbase
p115
g5
tp116
(dp117
Vkernel-arch
p118
Vx86
p119
sVfeaturesets
p120
(lp121
g95
ag6
ass(Vrelations
p122
tp123
(dp124
Vinitramfs-tools
p125
Vinitramfs-tools (>= 0.121~)
p126
sVinitramfs-fallback
p127
Vlinux-initramfs-tool
p128
sVgcc-6
p129
Vgcc-6
p130
ss(Vbase
p131
g14
g96
tp132
(dp133
Vflavours
p134
(lp135
Vaptosid-686
p136
asVimplicit-flavour
p137
I01
ss(Vbase
p138
g5
g6
tp139
(dp140
g134
(lp141
Vaptosid-amd64
p142
asg137
I01
ss(Vbuild
p143
g5
tp144
(dp145
Vimage-file
p146
Varch/x86/boot/bzImage
p147
sVdebug-info
p148
I00
sstp149
Rp150
.