ccopy_reg
_reconstructor
p0
(cdebian_linux.config
ConfigCore
p1
c__builtin__
dict
p2
(dp3
(Vbase
p4
tp5
(dp6
Vfeaturesets
p7
(lp8
Vnone
p9
asVarches
p10
(lp11
Vamd64
p12
aVi386
p13
asVcompiler
p14
Vgcc-5
p15
ss(Vrelations
p16
tp17
(dp18
Vgcc-5
p19
Vgcc-5
p20
sVinitramfs-tools
p21
Vinitramfs-tools (>= 0.121~)
p22
sVinitramfs-fallback
p23
Vlinux-initramfs-tool
p24
ss(Vdescription
p25
tp26
(dp27
Vpart-long-up
p28
VThis kernel is not suitable for SMP (multi-processor,\u000amulti-core or hyper-threaded) systems.
p29
sVpart-long-xen
p30
VThis kernel also runs on a Xen hypervisor.\u000aIt supports both privileged (dom0) and unprivileged (domU) operation.
p31
ss(Vxen
p32
Vamd64
p33
Vnone
p34
Vaptosid-amd64
p35
tp36
(dp37
Vflavours
p38
(lp39
Vaptosid-amd64
p40
ass(Vbase
p41
Vi386
p42
Vnone
p43
tp44
(dp45
Vflavours
p46
(lp47
Vaptosid-686
p48
asVimplicit-flavour
p49
I01
ss(Vdescription
p50
g42
NVaptosid-686
p51
tp52
(dp53
Vhardware-long
p54
VPCs with Intel Pentium Pro/II/III/4/4M/D/M, Xeon, Celeron, Core or Atom; AMD Geode LX/NX, Athlon (K7), Duron, Opteron, Sempron, Turion or Phenom; Transmeta Efficeon; VIA C3 "Nehemiah" or C7 processors
p55
sVhardware
p56
Vmodern PCs
p57
ss(Vversion
p58
tp59
(dp60
Vupstream
p61
V4.7
p62
sVabiname_base
p63
V4.7.0
p64
sVsource
p65
V4.7-3
p66
sVabiname
p67
V4.7.0-0.slh.1
p68
ss(Vbase
p69
g42
tp70
(dp71
Vfeaturesets
p72
(lp73
Vnone
p74
ag43
asVkernel-arch
p75
Vx86
p76
ss(Vimage
p77
g33
tp78
(dp79
Vbreaks
p80
Vxserver-xorg-input-vmmouse (<< 1:13.0.99)
p81
sVinstall-stem
p82
Vvmlinuz
p83
sVbootloaders
p84
(lp85
Vgrub-pc
p86
aVextlinux
p87
aVgrub-efi-amd64
p88
asVsuggests
p89
Vcrda
p90
ss(Vbase
p91
g33
tp92
(dp93
Vfeaturesets
p94
(lp95
g74
ag34
asVkernel-arch
p96
Vx86
p97
ss(Vdescription
p98
g33
g34
Vaptosid-amd64
p99
tp100
(dp101
Vparts
p102
(lp103
Vxen
p104
ass(Vbuild
p105
g42
tp106
(dp107
Vimage-file
p108
Varch/x86/boot/bzImage
p109
sVdebug-info
p110
I00
ss(Vbase
p111
g33
g34
tp112
(dp113
g46
(lp114
Vaptosid-amd64
p115
asg49
I01
ss(Vimage
p116
g42
tp117
(dp118
Vbreaks
p119
Vxserver-xorg-input-vmmouse (<< 1:13.0.99)
p120
sVinstall-stem
p121
Vvmlinuz
p122
sVbootloaders
p123
(lp124
Vgrub-pc
p125
aVextlinux
p126
aVgrub-efi-ia32
p127
asVsuggests
p128
Vcrda
p129
ss(Vimage
p130
tp131
(dp132
Vinitramfs-generators
p133
(lp134
Vinitramfs-tools
p135
aVinitramfs-fallback
p136
ass(Vabi
p137
tp138
(dp139
Vabiname
p140
V0.slh.1
p141
ss(Vbuild
p142
g33
tp143
(dp144
Vimage-file
p145
Varch/x86/boot/bzImage
p146
sVdebug-info
p147
I00
ss(Vdescription
p148
g33
NVaptosid-amd64
p149
tp150
(dp151
Vhardware-long
p152
VPCs with AMD64 or Intel 64 processors
p153
sVhardware
p154
V64-bit PCs
p155
sstp156
Rp157
.