ccopy_reg
_reconstructor
p0
(cdebian_linux.config
ConfigCore
p1
c__builtin__
dict
p2
(dp3
(Vbuild
p4
Vi386
p5
tp6
(dp7
Vdebug-info
p8
I00
sVimage-file
p9
Varch/x86/boot/bzImage
p10
ss(Vbase
p11
g5
tp12
(dp13
Vfeaturesets
p14
(lp15
Vnone
p16
aVnone
p17
asVkernel-arch
p18
Vx86
p19
ss(Vversion
p20
tp21
(dp22
Vsource
p23
V4.10-10
p24
sVabiname_base
p25
V4.10.0
p26
sVupstream
p27
V4.10
p28
sVabiname
p29
V4.10.0-5.slh.1
p30
ss(Vdescription
p31
g5
NVaptosid-686
p32
tp33
(dp34
Vhardware-long
p35
VPCs with Intel Pentium Pro/II/III/4/4M/D/M, Xeon, Celeron, Core or Atom; AMD Geode LX/NX, Athlon (K7), Duron, Opteron, Sempron, Turion or Phenom; Transmeta Efficeon; VIA C3 "Nehemiah" or C7 processors
p36
sVhardware
p37
Vmodern PCs
p38
ss(Vbase
p39
Vamd64
p40
Vnone
p41
tp42
(dp43
Vflavours
p44
(lp45
Vaptosid-amd64
p46
asVimplicit-flavour
p47
I01
ss(Vbase
p48
g5
g17
tp49
(dp50
g44
(lp51
Vaptosid-686
p52
asg47
I01
ss(Vbuild
p53
g40
tp54
(dp55
Vdebug-info
p56
I00
sVimage-file
p57
Varch/x86/boot/bzImage
p58
ss(Vrelations
p59
tp60
(dp61
Vgcc-6
p62
Vgcc-6
p63
sVinitramfs-fallback
p64
Vlinux-initramfs-tool
p65
sVinitramfs-tools
p66
Vinitramfs-tools (>= 0.121~)
p67
ss(Vdescription
p68
g40
g41
Vaptosid-amd64
p69
tp70
(dp71
Vparts
p72
(lp73
Vxen
p74
ass(Vimage
p75
g40
tp76
(dp77
Vsuggests
p78
Vcrda
p79
sVbreaks
p80
Vxserver-xorg-input-vmmouse (<< 1:13.0.99)
p81
sVinstall-stem
p82
Vvmlinuz
p83
sVbootloaders
p84
(lp85
Vgrub-pc
p86
aVextlinux
p87
aVgrub-efi-amd64
p88
ass(Vdescription
p89
g40
NVaptosid-amd64
p90
tp91
(dp92
Vhardware-long
p93
VPCs with AMD64 or Intel 64 processors
p94
sVhardware
p95
V64-bit PCs
p96
ss(Vimage
p97
g5
tp98
(dp99
Vsuggests
p100
Vcrda
p101
sVbreaks
p102
Vxserver-xorg-input-vmmouse (<< 1:13.0.99)
p103
sVinstall-stem
p104
Vvmlinuz
p105
sVbootloaders
p106
(lp107
Vgrub-pc
p108
aVextlinux
p109
aVgrub-efi-ia32
p110
ass(Vdescription
p111
tp112
(dp113
Vpart-long-up
p114
VThis kernel is not suitable for SMP (multi-processor,\u000amulti-core or hyper-threaded) systems.
p115
sVpart-long-xen
p116
VThis kernel also runs on a Xen hypervisor.\u000aIt supports both privileged (dom0) and unprivileged (domU) operation.
p117
ss(Vbase
p118
g40
tp119
(dp120
Vfeaturesets
p121
(lp122
g16
ag41
asVkernel-arch
p123
Vx86
p124
ss(Vimage
p125
tp126
(dp127
Vinitramfs-generators
p128
(lp129
Vinitramfs-tools
p130
aVinitramfs-fallback
p131
ass(Vabi
p132
tp133
(dp134
Vabiname
p135
V5.slh.1
p136
ss(Vbase
p137
tp138
(dp139
Vcompiler
p140
Vgcc-6
p141
sVarches
p142
(lp143
Vamd64
p144
aVi386
p145
asVfeaturesets
p146
(lp147
Vnone
p148
asstp149
Rp150
.