ccopy_reg
_reconstructor
p0
(cdebian_linux.config
ConfigCore
p1
c__builtin__
dict
p2
(dp3
(Vversion
p4
tp5
(dp6
Vupstream
p7
V4.8
p8
sVabiname
p9
V4.8.0-3.slh.2
p10
sVsource
p11
V4.8-6
p12
sVabiname_base
p13
V4.8.0
p14
ss(Vbase
p15
Vi386
p16
Vnone
p17
tp18
(dp19
Vimplicit-flavour
p20
I01
sVflavours
p21
(lp22
Vaptosid-686
p23
ass(Vbuild
p24
g16
tp25
(dp26
Vdebug-info
p27
I00
sVimage-file
p28
Varch/x86/boot/bzImage
p29
ss(Vbase
p30
tp31
(dp32
Varches
p33
(lp34
Vamd64
p35
aVi386
p36
asVfeaturesets
p37
(lp38
Vnone
p39
asVcompiler
p40
Vgcc-5
p41
ss(Vimage
p42
g16
tp43
(dp44
Vbreaks
p45
Vxserver-xorg-input-vmmouse (<< 1:13.0.99)
p46
sVinstall-stem
p47
Vvmlinuz
p48
sVbootloaders
p49
(lp50
Vgrub-pc
p51
aVextlinux
p52
aVgrub-efi-ia32
p53
asVsuggests
p54
Vcrda
p55
ss(Vbase
p56
Vamd64
p57
tp58
(dp59
Vkernel-arch
p60
Vx86
p61
sVfeaturesets
p62
(lp63
Vnone
p64
aVnone
p65
ass(Vabi
p66
tp67
(dp68
Vabiname
p69
V3.slh.2
p70
ss(Vdescription
p71
g57
g65
Vaptosid-amd64
p72
tp73
(dp74
Vparts
p75
(lp76
Vxen
p77
ass(Vbuild
p78
g57
tp79
(dp80
Vdebug-info
p81
I00
sVimage-file
p82
Varch/x86/boot/bzImage
p83
ss(Vdescription
p84
g16
NVaptosid-686
p85
tp86
(dp87
Vhardware
p88
Vmodern PCs
p89
sVhardware-long
p90
VPCs with Intel Pentium Pro/II/III/4/4M/D/M, Xeon, Celeron, Core or Atom; AMD Geode LX/NX, Athlon (K7), Duron, Opteron, Sempron, Turion or Phenom; Transmeta Efficeon; VIA C3 "Nehemiah" or C7 processors
p91
ss(Vdescription
p92
tp93
(dp94
Vpart-long-xen
p95
VThis kernel also runs on a Xen hypervisor.\u000aIt supports both privileged (dom0) and unprivileged (domU) operation.
p96
sVpart-long-up
p97
VThis kernel is not suitable for SMP (multi-processor,\u000amulti-core or hyper-threaded) systems.
p98
ss(Vimage
p99
g57
tp100
(dp101
Vbreaks
p102
Vxserver-xorg-input-vmmouse (<< 1:13.0.99)
p103
sVinstall-stem
p104
Vvmlinuz
p105
sVbootloaders
p106
(lp107
Vgrub-pc
p108
aVextlinux
p109
aVgrub-efi-amd64
p110
asVsuggests
p111
Vcrda
p112
ss(Vimage
p113
tp114
(dp115
Vinitramfs-generators
p116
(lp117
Vinitramfs-tools
p118
aVinitramfs-fallback
p119
ass(Vxen
p120
g57
g65
Vaptosid-amd64
p121
tp122
(dp123
Vflavours
p124
(lp125
Vaptosid-amd64
p126
ass(Vdescription
p127
g57
NVaptosid-amd64
p128
tp129
(dp130
Vhardware
p131
V64-bit PCs
p132
sVhardware-long
p133
VPCs with AMD64 or Intel 64 processors
p134
ss(Vrelations
p135
tp136
(dp137
Vinitramfs-tools
p138
Vinitramfs-tools (>= 0.121~)
p139
sVinitramfs-fallback
p140
Vlinux-initramfs-tool
p141
sVgcc-5
p142
Vgcc-5
p143
ss(Vbase
p144
g57
g65
tp145
(dp146
g20
I01
sg21
(lp147
Vaptosid-amd64
p148
ass(Vbase
p149
g16
tp150
(dp151
Vkernel-arch
p152
Vx86
p153
sVfeaturesets
p154
(lp155
g64
ag17
asstp156
Rp157
.