ccopy_reg
_reconstructor
p0
(cdebian_linux.config
ConfigCore
p1
c__builtin__
dict
p2
(dp3
(Vimage
p4
Vamd64
p5
tp6
(dp7
Vbreaks
p8
Vxserver-xorg-input-vmmouse (<< 1:13.0.99)
p9
sVsuggests
p10
Vcrda
p11
sVbootloaders
p12
(lp13
Vgrub-pc
p14
aVextlinux
p15
aVgrub-efi-amd64
p16
asVinstall-stem
p17
Vvmlinuz
p18
ss(Vrelations
p19
tp20
(dp21
Vinitramfs-tools
p22
Vinitramfs-tools (>= 0.121~)
p23
sVinitramfs-fallback
p24
Vlinux-initramfs-tool
p25
sVgcc-6
p26
Vgcc-6
p27
ss(Vimage
p28
Vi386
p29
tp30
(dp31
Vbreaks
p32
Vxserver-xorg-input-vmmouse (<< 1:13.0.99)
p33
sVsuggests
p34
Vcrda
p35
sVbootloaders
p36
(lp37
Vgrub-pc
p38
aVextlinux
p39
aVgrub-efi-ia32
p40
asVinstall-stem
p41
Vvmlinuz
p42
ss(Vimage
p43
tp44
(dp45
Vinitramfs-generators
p46
(lp47
Vinitramfs-tools
p48
aVinitramfs-fallback
p49
ass(Vbase
p50
g29
tp51
(dp52
Vfeaturesets
p53
(lp54
Vnone
p55
aVnone
p56
asVkernel-arch
p57
Vx86
p58
ss(Vbuild
p59
g5
tp60
(dp61
Vdebug-info
p62
I00
sVimage-file
p63
Varch/x86/boot/bzImage
p64
ss(Vabi
p65
tp66
(dp67
Vabiname
p68
V6.slh.1
p69
ss(Vbase
p70
tp71
(dp72
Vfeaturesets
p73
(lp74
Vnone
p75
asVarches
p76
(lp77
Vamd64
p78
aVi386
p79
asVcompiler
p80
Vgcc-6
p81
ss(Vbuild
p82
g29
tp83
(dp84
Vdebug-info
p85
I00
sVimage-file
p86
Varch/x86/boot/bzImage
p87
ss(Vversion
p88
tp89
(dp90
Vupstream
p91
V4.10
p92
sVsource
p93
V4.10-11
p94
sVabiname_base
p95
V4.10.0
p96
sVabiname
p97
V4.10.0-6.slh.1
p98
ss(Vbase
p99
g5
tp100
(dp101
Vfeaturesets
p102
(lp103
g55
aVnone
p104
asVkernel-arch
p105
Vx86
p106
ss(Vbase
p107
g29
g56
tp108
(dp109
Vimplicit-flavour
p110
I01
sVflavours
p111
(lp112
Vaptosid-686
p113
ass(Vdescription
p114
tp115
(dp116
Vpart-long-xen
p117
VThis kernel also runs on a Xen hypervisor.\u000aIt supports both privileged (dom0) and unprivileged (domU) operation.
p118
sVpart-long-up
p119
VThis kernel is not suitable for SMP (multi-processor,\u000amulti-core or hyper-threaded) systems.
p120
ss(Vdescription
p121
g5
NVaptosid-amd64
p122
tp123
(dp124
Vhardware
p125
V64-bit PCs
p126
sVhardware-long
p127
VPCs with AMD64 or Intel 64 processors
p128
ss(Vdescription
p129
g29
NVaptosid-686
p130
tp131
(dp132
Vhardware
p133
Vmodern PCs
p134
sVhardware-long
p135
VPCs with Intel Pentium Pro/II/III/4/4M/D/M, Xeon, Celeron, Core or Atom; AMD Geode LX/NX, Athlon (K7), Duron, Opteron, Sempron, Turion or Phenom; Transmeta Efficeon; VIA C3 "Nehemiah" or C7 processors
p136
ss(Vdescription
p137
g5
g104
Vaptosid-amd64
p138
tp139
(dp140
Vparts
p141
(lp142
Vxen
p143
ass(Vbase
p144
g5
g104
tp145
(dp146
g110
I01
sg111
(lp147
Vaptosid-amd64
p148
asstp149
Rp150
.