ccopy_reg
_reconstructor
p0
(cdebian_linux.config
ConfigCore
p1
c__builtin__
dict
p2
(dp3
(Vdescription
p4
Vi386
p5
NVaptosid-686
p6
tp7
(dp8
Vhardware
p9
Vmodern PCs
p10
sVhardware-long
p11
VPCs with Intel Pentium Pro/II/III/4/4M/D/M, Xeon, Celeron, Core or Atom; AMD Geode LX/NX, Athlon (K7), Duron, Opteron, Sempron, Turion or Phenom; Transmeta Efficeon; VIA C3 "Nehemiah" or C7 processors
p12
ss(Vbase
p13
Vamd64
p14
Vnone
p15
tp16
(dp17
Vimplicit-flavour
p18
I01
sVflavours
p19
(lp20
Vaptosid-amd64
p21
ass(Vbase
p22
g14
tp23
(dp24
Vkernel-arch
p25
Vx86
p26
sVfeaturesets
p27
(lp28
Vnone
p29
ag15
ass(Vimage
p30
g5
tp31
(dp32
Vbootloaders
p33
(lp34
Vgrub-pc
p35
aVextlinux
p36
aVgrub-efi-ia32
p37
asVinstall-stem
p38
Vvmlinuz
p39
sVbreaks
p40
Vxserver-xorg-input-vmmouse (<< 1:13.0.99)
p41
sVsuggests
p42
Vcrda
p43
ss(Vbase
p44
g5
Vnone
p45
tp46
(dp47
g18
I01
sg19
(lp48
Vaptosid-686
p49
ass(Vimage
p50
tp51
(dp52
Vinitramfs-generators
p53
(lp54
Vinitramfs-tools
p55
aVinitramfs-fallback
p56
ass(Vdescription
p57
tp58
(dp59
Vpart-long-xen
p60
VThis kernel also runs on a Xen hypervisor.\u000aIt supports both privileged (dom0) and unprivileged (domU) operation.
p61
sVpart-long-up
p62
VThis kernel is not suitable for SMP (multi-processor,\u000amulti-core or hyper-threaded) systems.
p63
ss(Vrelations
p64
tp65
(dp66
Vinitramfs-fallback
p67
Vlinux-initramfs-tool
p68
sVgcc-6
p69
Vgcc-6
p70
sVinitramfs-tools
p71
Vinitramfs-tools (>= 0.121~)
p72
ss(Vversion
p73
tp74
(dp75
Vabiname
p76
V4.12.0-2.slh.1
p77
sVabiname_base
p78
V4.12.0
p79
sVsource
p80
V4.12-4
p81
sVupstream
p82
V4.12
p83
ss(Vdescription
p84
g14
g15
Vaptosid-amd64
p85
tp86
(dp87
Vparts
p88
(lp89
Vxen
p90
ass(Vabi
p91
tp92
(dp93
Vabiname
p94
V2.slh.1
p95
ss(Vbuild
p96
g14
tp97
(dp98
Vdebug-info
p99
I00
sVimage-file
p100
Varch/x86/boot/bzImage
p101
ss(Vbase
p102
g5
tp103
(dp104
Vkernel-arch
p105
Vx86
p106
sVfeaturesets
p107
(lp108
g29
ag45
ass(Vbuild
p109
g5
tp110
(dp111
Vdebug-info
p112
I00
sVimage-file
p113
Varch/x86/boot/bzImage
p114
ss(Vimage
p115
g14
tp116
(dp117
Vbootloaders
p118
(lp119
Vgrub-pc
p120
aVextlinux
p121
aVgrub-efi-amd64
p122
asVinstall-stem
p123
Vvmlinuz
p124
sVbreaks
p125
Vxserver-xorg-input-vmmouse (<< 1:13.0.99)
p126
sVsuggests
p127
Vcrda
p128
ss(Vbase
p129
tp130
(dp131
Vcompiler
p132
Vgcc-6
p133
sVfeaturesets
p134
(lp135
Vnone
p136
asVarches
p137
(lp138
Vamd64
p139
aVi386
p140
ass(Vdescription
p141
g14
NVaptosid-amd64
p142
tp143
(dp144
Vhardware
p145
V64-bit PCs
p146
sVhardware-long
p147
VPCs with AMD64 or Intel 64 processors
p148
sstp149
Rp150
.