ccopy_reg
_reconstructor
p0
(cdebian_linux.config
ConfigCore
p1
c__builtin__
dict
p2
(dp3
(Vimage
p4
tp5
(dp6
Vinitramfs-generators
p7
(lp8
Vinitramfs-tools
p9
aVinitramfs-fallback
p10
ass(Vdescription
p11
Vamd64
p12
Vnone
p13
Vaptosid-amd64
p14
tp15
(dp16
Vparts
p17
(lp18
Vxen
p19
ass(Vbase
p20
Vi386
p21
Vnone
p22
tp23
(dp24
Vflavours
p25
(lp26
Vaptosid-686
p27
asVimplicit-flavour
p28
I01
ss(Vbuild
p29
g12
tp30
(dp31
Vimage-file
p32
Varch/x86/boot/bzImage
p33
sVdebug-info
p34
I00
ss(Vbase
p35
tp36
(dp37
Vfeaturesets
p38
(lp39
Vnone
p40
asVarches
p41
(lp42
Vamd64
p43
aVi386
p44
asVcompiler
p45
Vgcc-6
p46
ss(Vimage
p47
g12
tp48
(dp49
Vinstall-stem
p50
Vvmlinuz
p51
sVbootloaders
p52
(lp53
Vgrub-pc
p54
aVextlinux
p55
aVgrub-efi-amd64
p56
asVbreaks
p57
Vxserver-xorg-input-vmmouse (<< 1:13.0.99)
p58
sVsuggests
p59
Vcrda
p60
ss(Vdescription
p61
g21
NVaptosid-686
p62
tp63
(dp64
Vhardware
p65
Vmodern PCs
p66
sVhardware-long
p67
VPCs with Intel Pentium Pro/II/III/4/4M/D/M, Xeon, Celeron, Core or Atom; AMD Geode LX/NX, Athlon (K7), Duron, Opteron, Sempron, Turion or Phenom; Transmeta Efficeon; VIA C3 "Nehemiah" or C7 processors
p68
ss(Vxen
p69
g12
g13
Vaptosid-amd64
p70
tp71
(dp72
Vflavours
p73
(lp74
Vaptosid-amd64
p75
ass(Vbuild
p76
g21
tp77
(dp78
Vimage-file
p79
Varch/x86/boot/bzImage
p80
sVdebug-info
p81
I00
ss(Vrelations
p82
tp83
(dp84
Vgcc-6
p85
Vgcc-6
p86
sVinitramfs-fallback
p87
Vlinux-initramfs-tool
p88
sVinitramfs-tools
p89
Vinitramfs-tools (>= 0.121~)
p90
ss(Vabi
p91
tp92
(dp93
Vabiname
p94
V3.slh.1
p95
ss(Vbase
p96
g12
tp97
(dp98
Vfeaturesets
p99
(lp100
Vnone
p101
ag13
asVkernel-arch
p102
Vx86
p103
ss(Vbase
p104
g12
g13
tp105
(dp106
g25
(lp107
Vaptosid-amd64
p108
asg28
I01
ss(Vversion
p109
tp110
(dp111
Vsource
p112
V4.8-5
p113
sVupstream
p114
V4.8
p115
sVabiname
p116
V4.8.0-3.slh.1
p117
sVabiname_base
p118
V4.8.0
p119
ss(Vimage
p120
g21
tp121
(dp122
Vinstall-stem
p123
Vvmlinuz
p124
sVbootloaders
p125
(lp126
Vgrub-pc
p127
aVextlinux
p128
aVgrub-efi-ia32
p129
asVbreaks
p130
Vxserver-xorg-input-vmmouse (<< 1:13.0.99)
p131
sVsuggests
p132
Vcrda
p133
ss(Vdescription
p134
g12
NVaptosid-amd64
p135
tp136
(dp137
Vhardware
p138
V64-bit PCs
p139
sVhardware-long
p140
VPCs with AMD64 or Intel 64 processors
p141
ss(Vbase
p142
g21
tp143
(dp144
Vfeaturesets
p145
(lp146
g101
ag22
asVkernel-arch
p147
Vx86
p148
ss(Vdescription
p149
tp150
(dp151
Vpart-long-xen
p152
VThis kernel also runs on a Xen hypervisor.\u000aIt supports both privileged (dom0) and unprivileged (domU) operation.
p153
sVpart-long-up
p154
VThis kernel is not suitable for SMP (multi-processor,\u000amulti-core or hyper-threaded) systems.
p155
sstp156
Rp157
.