ccopy_reg
_reconstructor
p0
(cdebian_linux.config
ConfigCore
p1
c__builtin__
dict
p2
(dp3
(Vabi
p4
tp5
(dp6
Vabiname
p7
V4.slh.1
p8
ss(Vbase
p9
tp10
(dp11
Vcompiler
p12
Vgcc-6
p13
sVfeaturesets
p14
(lp15
Vnone
p16
asVarches
p17
(lp18
Vamd64
p19
aVi386
p20
ass(Vdescription
p21
Vi386
p22
NVaptosid-686
p23
tp24
(dp25
Vhardware
p26
Vmodern PCs
p27
sVhardware-long
p28
VPCs with Intel Pentium Pro/II/III/4/4M/D/M, Xeon, Celeron, Core or Atom; AMD Geode LX/NX, Athlon (K7), Duron, Opteron, Sempron, Turion or Phenom; Transmeta Efficeon; VIA C3 "Nehemiah" or C7 processors
p29
ss(Vbase
p30
Vamd64
p31
Vnone
p32
tp33
(dp34
Vimplicit-flavour
p35
I01
sVflavours
p36
(lp37
Vaptosid-amd64
p38
ass(Vdescription
p39
tp40
(dp41
Vpart-long-up
p42
VThis kernel is not suitable for SMP (multi-processor,\u000amulti-core or hyper-threaded) systems.
p43
sVpart-long-xen
p44
VThis kernel also runs on a Xen hypervisor.\u000aIt supports both privileged (dom0) and unprivileged (domU) operation.
p45
ss(Vimage
p46
g31
tp47
(dp48
Vbreaks
p49
Vxserver-xorg-input-vmmouse (<< 1:13.0.99)
p50
sVbootloaders
p51
(lp52
Vgrub-pc
p53
aVextlinux
p54
aVgrub-efi-amd64
p55
asVsuggests
p56
Vcrda
p57
sVinstall-stem
p58
Vvmlinuz
p59
ss(Vdescription
p60
g31
g32
Vaptosid-amd64
p61
tp62
(dp63
Vparts
p64
(lp65
Vxen
p66
ass(Vbase
p67
g22
Vnone
p68
tp69
(dp70
g35
I01
sg36
(lp71
Vaptosid-686
p72
ass(Vbase
p73
g31
tp74
(dp75
Vkernel-arch
p76
Vx86
p77
sVfeaturesets
p78
(lp79
Vnone
p80
ag32
ass(Vdescription
p81
g31
NVaptosid-amd64
p82
tp83
(dp84
Vhardware
p85
V64-bit PCs
p86
sVhardware-long
p87
VPCs with AMD64 or Intel 64 processors
p88
ss(Vimage
p89
g22
tp90
(dp91
Vbreaks
p92
Vxserver-xorg-input-vmmouse (<< 1:13.0.99)
p93
sVbootloaders
p94
(lp95
Vgrub-pc
p96
aVextlinux
p97
aVgrub-efi-ia32
p98
asVsuggests
p99
Vcrda
p100
sVinstall-stem
p101
Vvmlinuz
p102
ss(Vimage
p103
tp104
(dp105
Vinitramfs-generators
p106
(lp107
Vinitramfs-tools
p108
aVinitramfs-fallback
p109
ass(Vbuild
p110
g31
tp111
(dp112
Vimage-file
p113
Varch/x86/boot/bzImage
p114
sVdebug-info
p115
I00
ss(Vbase
p116
g22
tp117
(dp118
Vkernel-arch
p119
Vx86
p120
sVfeaturesets
p121
(lp122
g80
ag68
ass(Vbuild
p123
g22
tp124
(dp125
Vimage-file
p126
Varch/x86/boot/bzImage
p127
sVdebug-info
p128
I00
ss(Vrelations
p129
tp130
(dp131
Vgcc-6
p132
Vgcc-6
p133
sVinitramfs-tools
p134
Vinitramfs-tools (>= 0.121~)
p135
sVinitramfs-fallback
p136
Vlinux-initramfs-tool
p137
ss(Vversion
p138
tp139
(dp140
Vabiname
p141
V4.9.0-4.slh.1
p142
sVupstream
p143
V4.9
p144
sVsource
p145
V4.9-8
p146
sVabiname_base
p147
V4.9.0
p148
sstp149
Rp150
.