ccopy_reg
_reconstructor
p0
(cdebian_linux.config
ConfigCore
p1
c__builtin__
dict
p2
(dp3
(Vabi
p4
tp5
(dp6
Vabiname
p7
V2.slh.1
p8
ss(Vbase
p9
tp10
(dp11
Vfeaturesets
p12
(lp13
Vnone
p14
asVcompiler
p15
Vgcc-7
p16
sVarches
p17
(lp18
Vamd64
p19
aVi386
p20
ass(Vversion
p21
tp22
(dp23
Vabiname
p24
V4.13.0-2.slh.1
p25
sVupstream
p26
V4.13
p27
sVabiname_base
p28
V4.13.0
p29
sVsource
p30
V4.13-5
p31
ss(Vbuild
p32
Vamd64
p33
tp34
(dp35
Vdebug-info
p36
I00
sVimage-file
p37
Varch/x86/boot/bzImage
p38
ss(Vimage
p39
Vi386
p40
tp41
(dp42
Vbreaks
p43
Vxserver-xorg-input-vmmouse (<< 1:13.0.99)
p44
sVbootloaders
p45
(lp46
Vgrub-pc
p47
aVextlinux
p48
aVgrub-efi-ia32
p49
asVinstall-stem
p50
Vvmlinuz
p51
sVsuggests
p52
Vcrda
p53
ss(Vdescription
p54
tp55
(dp56
Vpart-long-xen
p57
VThis kernel also runs on a Xen hypervisor.\u000aIt supports both privileged (dom0) and unprivileged (domU) operation.
p58
sVpart-long-up
p59
VThis kernel is not suitable for SMP (multi-processor,\u000amulti-core or hyper-threaded) systems.
p60
ss(Vbuild
p61
g40
tp62
(dp63
Vdebug-info
p64
I00
sVimage-file
p65
Varch/x86/boot/bzImage
p66
ss(Vimage
p67
tp68
(dp69
Vinitramfs-generators
p70
(lp71
Vinitramfs-tools
p72
aVinitramfs-fallback
p73
ass(Vbase
p74
g33
Vnone
p75
tp76
(dp77
Vflavours
p78
(lp79
Vaptosid-amd64
p80
asVimplicit-flavour
p81
I01
ss(Vimage
p82
g33
tp83
(dp84
Vbreaks
p85
Vxserver-xorg-input-vmmouse (<< 1:13.0.99)
p86
sVbootloaders
p87
(lp88
Vgrub-pc
p89
aVextlinux
p90
aVgrub-efi-amd64
p91
asVinstall-stem
p92
Vvmlinuz
p93
sVsuggests
p94
Vcrda
p95
ss(Vbase
p96
g40
Vnone
p97
tp98
(dp99
g78
(lp100
Vaptosid-686
p101
asg81
I01
ss(Vdescription
p102
g33
g75
Vaptosid-amd64
p103
tp104
(dp105
Vparts
p106
(lp107
Vxen
p108
ass(Vrelations
p109
tp110
(dp111
Vgcc-7
p112
Vgcc-7
p113
sVinitramfs-fallback
p114
Vlinux-initramfs-tool
p115
sVinitramfs-tools
p116
Vinitramfs-tools (>= 0.121~)
p117
ss(Vbase
p118
g40
tp119
(dp120
Vfeaturesets
p121
(lp122
Vnone
p123
ag97
asVkernel-arch
p124
Vx86
p125
ss(Vdescription
p126
g40
NVaptosid-686
p127
tp128
(dp129
Vhardware-long
p130
VPCs with Intel Pentium Pro/II/III/4/4M/D/M, Xeon, Celeron, Core or Atom; AMD Geode LX/NX, Athlon (K7), Duron, Opteron, Sempron, Turion or Phenom; Transmeta Efficeon; VIA C3 "Nehemiah" or C7 processors
p131
sVhardware
p132
Vmodern PCs
p133
ss(Vdescription
p134
g33
NVaptosid-amd64
p135
tp136
(dp137
Vhardware-long
p138
VPCs with AMD64 or Intel 64 processors
p139
sVhardware
p140
V64-bit PCs
p141
ss(Vbase
p142
g33
tp143
(dp144
Vfeaturesets
p145
(lp146
g123
ag75
asVkernel-arch
p147
Vx86
p148
sstp149
Rp150
.