ccopy_reg
_reconstructor
p0
(cdebian_linux.config
ConfigCore
p1
c__builtin__
dict
p2
(dp3
(Vbase
p4
Vi386
p5
tp6
(dp7
Vfeaturesets
p8
(lp9
Vnone
p10
aVnone
p11
asVkernel-arch
p12
Vx86
p13
ss(Vimage
p14
tp15
(dp16
Vinitramfs-generators
p17
(lp18
Vinitramfs-tools
p19
aVinitramfs-fallback
p20
ass(Vrelations
p21
tp22
(dp23
Vgcc-7
p24
Vgcc-7
p25
sVinitramfs-tools
p26
Vinitramfs-tools (>= 0.121~)
p27
sVinitramfs-fallback
p28
Vlinux-initramfs-tool
p29
ss(Vbase
p30
g5
g11
tp31
(dp32
Vflavours
p33
(lp34
Vaptosid-686
p35
asVimplicit-flavour
p36
I01
ss(Vbase
p37
Vamd64
p38
Vnone
p39
tp40
(dp41
g33
(lp42
Vaptosid-amd64
p43
asg36
I01
ss(Vimage
p44
g5
tp45
(dp46
Vinstall-stem
p47
Vvmlinuz
p48
sVbootloaders
p49
(lp50
Vgrub-pc
p51
aVextlinux
p52
aVgrub-efi-ia32
p53
asVbreaks
p54
Vxserver-xorg-input-vmmouse (<< 1:13.0.99)
p55
sVsuggests
p56
Vcrda
p57
ss(Vimage
p58
g38
tp59
(dp60
Vinstall-stem
p61
Vvmlinuz
p62
sVbootloaders
p63
(lp64
Vgrub-pc
p65
aVextlinux
p66
aVgrub-efi-amd64
p67
asVbreaks
p68
Vxserver-xorg-input-vmmouse (<< 1:13.0.99)
p69
sVsuggests
p70
Vcrda
p71
ss(Vabi
p72
tp73
(dp74
Vabiname
p75
V2.slh.2
p76
ss(Vversion
p77
tp78
(dp79
Vsource
p80
V4.13-6
p81
sVupstream
p82
V4.13
p83
sVabiname
p84
V4.13.0-2.slh.2
p85
sVabiname_base
p86
V4.13.0
p87
ss(Vdescription
p88
g5
NVaptosid-686
p89
tp90
(dp91
Vhardware-long
p92
VPCs with Intel Pentium Pro/II/III/4/4M/D/M, Xeon, Celeron, Core or Atom; AMD Geode LX/NX, Athlon (K7), Duron, Opteron, Sempron, Turion or Phenom; Transmeta Efficeon; VIA C3 "Nehemiah" or C7 processors
p93
sVhardware
p94
Vmodern PCs
p95
ss(Vdescription
p96
g38
NVaptosid-amd64
p97
tp98
(dp99
Vhardware-long
p100
VPCs with AMD64 or Intel 64 processors
p101
sVhardware
p102
V64-bit PCs
p103
ss(Vbase
p104
g38
tp105
(dp106
Vfeaturesets
p107
(lp108
g10
ag39
asVkernel-arch
p109
Vx86
p110
ss(Vdescription
p111
tp112
(dp113
Vpart-long-up
p114
VThis kernel is not suitable for SMP (multi-processor,\u000amulti-core or hyper-threaded) systems.
p115
sVpart-long-xen
p116
VThis kernel also runs on a Xen hypervisor.\u000aIt supports both privileged (dom0) and unprivileged (domU) operation.
p117
ss(Vdescription
p118
g38
g39
Vaptosid-amd64
p119
tp120
(dp121
Vparts
p122
(lp123
Vxen
p124
ass(Vbuild
p125
g38
tp126
(dp127
Vimage-file
p128
Varch/x86/boot/bzImage
p129
sVdebug-info
p130
I00
ss(Vbase
p131
tp132
(dp133
Varches
p134
(lp135
Vamd64
p136
aVi386
p137
asVcompiler
p138
Vgcc-7
p139
sVfeaturesets
p140
(lp141
Vnone
p142
ass(Vbuild
p143
g5
tp144
(dp145
Vimage-file
p146
Varch/x86/boot/bzImage
p147
sVdebug-info
p148
I00
sstp149
Rp150
.