ccopy_reg
_reconstructor
p0
(cdebian_linux.config
ConfigCore
p1
c__builtin__
dict
p2
(dp3
(Vimage
p4
Vi386
p5
tp6
(dp7
Vsuggests
p8
Vcrda
p9
sVinstall-stem
p10
Vvmlinuz
p11
sVbootloaders
p12
(lp13
Vgrub-pc
p14
aVextlinux
p15
aVgrub-efi-ia32
p16
asVbreaks
p17
Vxserver-xorg-input-vmmouse (<< 1:13.0.99)
p18
ss(Vbase
p19
g5
tp20
(dp21
Vfeaturesets
p22
(lp23
Vnone
p24
aVnone
p25
asVkernel-arch
p26
Vx86
p27
ss(Vabi
p28
tp29
(dp30
Vabiname
p31
V5.slh.1
p32
ss(Vbase
p33
tp34
(dp35
Vfeaturesets
p36
(lp37
Vnone
p38
asVcompiler
p39
Vgcc-6
p40
sVarches
p41
(lp42
Vamd64
p43
aVi386
p44
ass(Vbase
p45
Vamd64
p46
Vnone
p47
tp48
(dp49
Vimplicit-flavour
p50
I01
sVflavours
p51
(lp52
Vaptosid-amd64
p53
ass(Vimage
p54
g46
tp55
(dp56
Vsuggests
p57
Vcrda
p58
sVinstall-stem
p59
Vvmlinuz
p60
sVbootloaders
p61
(lp62
Vgrub-pc
p63
aVextlinux
p64
aVgrub-efi-amd64
p65
asVbreaks
p66
Vxserver-xorg-input-vmmouse (<< 1:13.0.99)
p67
ss(Vbase
p68
g5
g25
tp69
(dp70
g50
I01
sg51
(lp71
Vaptosid-686
p72
ass(Vbase
p73
g46
tp74
(dp75
Vfeaturesets
p76
(lp77
g24
ag47
asVkernel-arch
p78
Vx86
p79
ss(Vdescription
p80
g46
NVaptosid-amd64
p81
tp82
(dp83
Vhardware
p84
V64-bit PCs
p85
sVhardware-long
p86
VPCs with AMD64 or Intel 64 processors
p87
ss(Vrelations
p88
tp89
(dp90
Vgcc-6
p91
Vgcc-6
p92
sVinitramfs-tools
p93
Vinitramfs-tools (>= 0.121~)
p94
sVinitramfs-fallback
p95
Vlinux-initramfs-tool
p96
ss(Vdescription
p97
g46
g47
Vaptosid-amd64
p98
tp99
(dp100
Vparts
p101
(lp102
Vxen
p103
ass(Vbuild
p104
g46
tp105
(dp106
Vdebug-info
p107
I00
sVimage-file
p108
Varch/x86/boot/bzImage
p109
ss(Vdescription
p110
tp111
(dp112
Vpart-long-up
p113
VThis kernel is not suitable for SMP (multi-processor,\u000amulti-core or hyper-threaded) systems.
p114
sVpart-long-xen
p115
VThis kernel also runs on a Xen hypervisor.\u000aIt supports both privileged (dom0) and unprivileged (domU) operation.
p116
ss(Vversion
p117
tp118
(dp119
Vabiname
p120
V4.12.0-5.slh.1
p121
sVupstream
p122
V4.12
p123
sVabiname_base
p124
V4.12.0
p125
sVsource
p126
V4.12-11
p127
ss(Vimage
p128
tp129
(dp130
Vinitramfs-generators
p131
(lp132
Vinitramfs-tools
p133
aVinitramfs-fallback
p134
ass(Vbuild
p135
g5
tp136
(dp137
Vdebug-info
p138
I00
sVimage-file
p139
Varch/x86/boot/bzImage
p140
ss(Vdescription
p141
g5
NVaptosid-686
p142
tp143
(dp144
Vhardware
p145
Vmodern PCs
p146
sVhardware-long
p147
VPCs with Intel Pentium Pro/II/III/4/4M/D/M, Xeon, Celeron, Core or Atom; AMD Geode LX/NX, Athlon (K7), Duron, Opteron, Sempron, Turion or Phenom; Transmeta Efficeon; VIA C3 "Nehemiah" or C7 processors
p148
sstp149
Rp150
.