ccopy_reg
_reconstructor
p0
(cdebian_linux.config
ConfigCore
p1
c__builtin__
dict
p2
(dp3
(Vdescription
p4
Vamd64
p5
NVaptosid-amd64
p6
tp7
(dp8
Vhardware-long
p9
VPCs with AMD64 or Intel 64 processors
p10
sVhardware
p11
V64-bit PCs
p12
ss(Vrelations
p13
tp14
(dp15
Vgcc-6
p16
Vgcc-6
p17
sVinitramfs-tools
p18
Vinitramfs-tools (>= 0.121~)
p19
sVinitramfs-fallback
p20
Vlinux-initramfs-tool
p21
ss(Vbase
p22
tp23
(dp24
Vcompiler
p25
Vgcc-6
p26
sVarches
p27
(lp28
Vamd64
p29
aVi386
p30
asVfeaturesets
p31
(lp32
Vnone
p33
ass(Vversion
p34
tp35
(dp36
Vabiname_base
p37
V4.7.0
p38
sVsource
p39
V4.7-13
p40
sVupstream
p41
V4.7
p42
sVabiname
p43
V4.7.0-2.slh.4
p44
ss(Vdescription
p45
g5
Vnone
p46
Vaptosid-amd64
p47
tp48
(dp49
Vparts
p50
(lp51
Vxen
p52
ass(Vbase
p53
g5
tp54
(dp55
Vfeaturesets
p56
(lp57
Vnone
p58
ag46
asVkernel-arch
p59
Vx86
p60
ss(Vabi
p61
tp62
(dp63
Vabiname
p64
V2.slh.4
p65
ss(Vdescription
p66
tp67
(dp68
Vpart-long-xen
p69
VThis kernel also runs on a Xen hypervisor.\u000aIt supports both privileged (dom0) and unprivileged (domU) operation.
p70
sVpart-long-up
p71
VThis kernel is not suitable for SMP (multi-processor,\u000amulti-core or hyper-threaded) systems.
p72
ss(Vbase
p73
g5
g46
tp74
(dp75
Vflavours
p76
(lp77
Vaptosid-amd64
p78
asVimplicit-flavour
p79
I01
ss(Vimage
p80
g5
tp81
(dp82
Vinstall-stem
p83
Vvmlinuz
p84
sVbreaks
p85
Vxserver-xorg-input-vmmouse (<< 1:13.0.99)
p86
sVbootloaders
p87
(lp88
Vgrub-pc
p89
aVextlinux
p90
aVgrub-efi-amd64
p91
asVsuggests
p92
Vcrda
p93
ss(Vimage
p94
Vi386
p95
tp96
(dp97
Vinstall-stem
p98
Vvmlinuz
p99
sVbreaks
p100
Vxserver-xorg-input-vmmouse (<< 1:13.0.99)
p101
sVbootloaders
p102
(lp103
Vgrub-pc
p104
aVextlinux
p105
aVgrub-efi-ia32
p106
asVsuggests
p107
Vcrda
p108
ss(Vbase
p109
g95
Vnone
p110
tp111
(dp112
g76
(lp113
Vaptosid-686
p114
asg79
I01
ss(Vxen
p115
g5
g46
Vaptosid-amd64
p116
tp117
(dp118
Vflavours
p119
(lp120
Vaptosid-amd64
p121
ass(Vbase
p122
g95
tp123
(dp124
Vfeaturesets
p125
(lp126
g58
ag110
asVkernel-arch
p127
Vx86
p128
ss(Vbuild
p129
g95
tp130
(dp131
Vimage-file
p132
Varch/x86/boot/bzImage
p133
sVdebug-info
p134
I00
ss(Vbuild
p135
g5
tp136
(dp137
Vimage-file
p138
Varch/x86/boot/bzImage
p139
sVdebug-info
p140
I00
ss(Vdescription
p141
g95
NVaptosid-686
p142
tp143
(dp144
Vhardware-long
p145
VPCs with Intel Pentium Pro/II/III/4/4M/D/M, Xeon, Celeron, Core or Atom; AMD Geode LX/NX, Athlon (K7), Duron, Opteron, Sempron, Turion or Phenom; Transmeta Efficeon; VIA C3 "Nehemiah" or C7 processors
p146
sVhardware
p147
Vmodern PCs
p148
ss(Vimage
p149
tp150
(dp151
Vinitramfs-generators
p152
(lp153
Vinitramfs-tools
p154
aVinitramfs-fallback
p155
asstp156
Rp157
.