ccopy_reg
_reconstructor
p0
(cdebian_linux.config
ConfigCore
p1
c__builtin__
dict
p2
(dp3
(Vrelations
p4
tp5
(dp6
Vinitramfs-fallback
p7
Vlinux-initramfs-tool
p8
sVgcc-6
p9
Vgcc-6
p10
sVinitramfs-tools
p11
Vinitramfs-tools (>= 0.121~)
p12
ss(Vabi
p13
tp14
(dp15
Vabiname
p16
V11.slh.3
p17
ss(Vbase
p18
Vamd64
p19
tp20
(dp21
Vkernel-arch
p22
Vx86
p23
sVfeaturesets
p24
(lp25
Vnone
p26
aVnone
p27
ass(Vbase
p28
Vi386
p29
Vnone
p30
tp31
(dp32
Vflavours
p33
(lp34
Vaptosid-686
p35
asVimplicit-flavour
p36
I01
ss(Vversion
p37
tp38
(dp39
Vabiname_base
p40
V4.8.0
p41
sVupstream
p42
V4.8
p43
sVsource
p44
V4.8-19
p45
sVabiname
p46
V4.8.0-11.slh.3
p47
ss(Vdescription
p48
g29
NVaptosid-686
p49
tp50
(dp51
Vhardware
p52
Vmodern PCs
p53
sVhardware-long
p54
VPCs with Intel Pentium Pro/II/III/4/4M/D/M, Xeon, Celeron, Core or Atom; AMD Geode LX/NX, Athlon (K7), Duron, Opteron, Sempron, Turion or Phenom; Transmeta Efficeon; VIA C3 "Nehemiah" or C7 processors
p55
ss(Vimage
p56
tp57
(dp58
Vinitramfs-generators
p59
(lp60
Vinitramfs-tools
p61
aVinitramfs-fallback
p62
ass(Vbase
p63
tp64
(dp65
Vcompiler
p66
Vgcc-6
p67
sVarches
p68
(lp69
Vamd64
p70
aVi386
p71
asVfeaturesets
p72
(lp73
Vnone
p74
ass(Vdescription
p75
g19
NVaptosid-amd64
p76
tp77
(dp78
Vhardware
p79
V64-bit PCs
p80
sVhardware-long
p81
VPCs with AMD64 or Intel 64 processors
p82
ss(Vbuild
p83
g19
tp84
(dp85
Vdebug-info
p86
I00
sVimage-file
p87
Varch/x86/boot/bzImage
p88
ss(Vimage
p89
g29
tp90
(dp91
Vbootloaders
p92
(lp93
Vgrub-pc
p94
aVextlinux
p95
aVgrub-efi-ia32
p96
asVsuggests
p97
Vcrda
p98
sVbreaks
p99
Vxserver-xorg-input-vmmouse (<< 1:13.0.99)
p100
sVinstall-stem
p101
Vvmlinuz
p102
ss(Vdescription
p103
g19
g27
Vaptosid-amd64
p104
tp105
(dp106
Vparts
p107
(lp108
Vxen
p109
ass(Vdescription
p110
tp111
(dp112
Vpart-long-up
p113
VThis kernel is not suitable for SMP (multi-processor,\u000amulti-core or hyper-threaded) systems.
p114
sVpart-long-xen
p115
VThis kernel also runs on a Xen hypervisor.\u000aIt supports both privileged (dom0) and unprivileged (domU) operation.
p116
ss(Vbuild
p117
g29
tp118
(dp119
Vdebug-info
p120
I00
sVimage-file
p121
Varch/x86/boot/bzImage
p122
ss(Vimage
p123
g19
tp124
(dp125
Vbootloaders
p126
(lp127
Vgrub-pc
p128
aVextlinux
p129
aVgrub-efi-amd64
p130
asVsuggests
p131
Vcrda
p132
sVbreaks
p133
Vxserver-xorg-input-vmmouse (<< 1:13.0.99)
p134
sVinstall-stem
p135
Vvmlinuz
p136
ss(Vbase
p137
g29
tp138
(dp139
Vkernel-arch
p140
Vx86
p141
sVfeaturesets
p142
(lp143
g26
ag30
ass(Vxen
p144
g19
g27
Vaptosid-amd64
p145
tp146
(dp147
Vflavours
p148
(lp149
Vaptosid-amd64
p150
ass(Vbase
p151
g19
g27
tp152
(dp153
g33
(lp154
Vaptosid-amd64
p155
asg36
I01
sstp156
Rp157
.