ccopy_reg
_reconstructor
p0
(cdebian_linux.config
ConfigCore
p1
c__builtin__
dict
p2
(dp3
(Vbuild
p4
Vamd64
p5
tp6
(dp7
Vimage-file
p8
Varch/x86/boot/bzImage
p9
sVdebug-info
p10
I00
ss(Vimage
p11
g5
NVaptosid-amd64
p12
tp13
(dp14
Vconfigs
p15
(lp16
Vkernelarch-x86/config-arch-64
p17
ass(Vdescription
p18
g5
Vnone
p19
Vaptosid-amd64
p20
tp21
(dp22
Vparts
p23
(lp24
Vxen
p25
ass(Vdescription
p26
tp27
(dp28
Vpart-long-up
p29
VThis kernel is not suitable for SMP (multi-processor,\u000amulti-core or hyper-threaded) systems.
p30
sVpart-long-xen
p31
VThis kernel also runs on a Xen hypervisor.\u000aIt supports both privileged (dom0) and unprivileged (domU) operation.
p32
ss(Vimage
p33
Vi386
p34
NVaptosid-686
p35
tp36
(dp37
Vrecommends
p38
Vlibc6-i686
p39
sVconfigs
p40
(lp41
Vkernelarch-x86/config-arch-32
p42
ass(Vdescription
p43
g34
NVaptosid-686
p44
tp45
(dp46
Vhardware
p47
Vmodern PCs
p48
sVhardware-long
p49
VPCs with Intel Pentium Pro/II/III/4/4M/D/M, Xeon, Celeron, Core or Atom; AMD Geode LX/NX, Athlon (K7), Duron, Opteron, Sempron, Turion or Phenom; Transmeta Efficeon; VIA C3 "Nehemiah" or C7 processors
p50
ss(Vbase
p51
g5
tp52
(dp53
Vkernel-arch
p54
Vx86
p55
sVfeaturesets
p56
(lp57
Vnone
p58
ag19
ass(Vversion
p59
tp60
(dp61
Vsource
p62
V4.6-10
p63
sVupstream
p64
V4.6
p65
sVabiname_base
p66
V4.6.0
p67
sVabiname
p68
V4.6.0-3.slh.1
p69
ss(Vbase
p70
g34
Vnone
p71
tp72
(dp73
Vflavours
p74
(lp75
Vaptosid-686
p76
asVimplicit-flavour
p77
I01
ss(Vimage
p78
g5
tp79
(dp80
Vbootloaders
p81
(lp82
Vgrub-pc
p83
aVextlinux
p84
aVgrub-efi-amd64
p85
asVsuggests
p86
Vcrda
p87
sVinstall-stem
p88
Vvmlinuz
p89
sVconfigs
p90
(lp91
ss(Vbase
p92
tp93
(dp94
Vfeaturesets
p95
(lp96
Vnone
p97
asVcompiler
p98
Vgcc-5
p99
sVarches
p100
(lp101
Vamd64
p102
aVi386
p103
ass(Vbase
p104
g5
g19
tp105
(dp106
g74
(lp107
Vaptosid-amd64
p108
asg77
I01
ss(Vabi
p109
tp110
(dp111
Vabiname
p112
V3.slh.1
p113
ss(Vbase
p114
g34
tp115
(dp116
Vkernel-arch
p117
Vx86
p118
sVfeaturesets
p119
(lp120
g58
ag71
ass(Vimage
p121
g34
tp122
(dp123
Vbootloaders
p124
(lp125
Vgrub-pc
p126
aVextlinux
p127
aVgrub-efi-ia32
p128
asVsuggests
p129
Vcrda
p130
sVinstall-stem
p131
Vvmlinuz
p132
sVconfigs
p133
(lp134
ss(Vbuild
p135
g34
tp136
(dp137
Vimage-file
p138
Varch/x86/boot/bzImage
p139
sVdebug-info
p140
I00
ss(Vdescription
p141
g5
NVaptosid-amd64
p142
tp143
(dp144
Vhardware
p145
V64-bit PCs
p146
sVhardware-long
p147
VPCs with AMD64 or Intel 64 processors
p148
ss(Vxen
p149
g5
g19
Vaptosid-amd64
p150
tp151
(dp152
Vflavours
p153
(lp154
Vaptosid-amd64
p155
ass(Vrelations
p156
tp157
(dp158
Vinitramfs-tools
p159
Vinitramfs-tools (>= 0.121~)
p160
sVgcc-5
p161
Vgcc-5
p162
sVinitramfs-fallback
p163
Vlinux-initramfs-tool
p164
ss(Vimage
p165
tp166
(dp167
Vinitramfs-generators
p168
(lp169
Vinitramfs-tools
p170
aVinitramfs-fallback
p171
asVtype
p172
Vplain
p173
sstp174
Rp175
.