ccopy_reg
_reconstructor
p1
(cdebian_linux.config
ConfigCore
p2
c__builtin__
dict
p3
(dp4
(S'image'
S'amd64'
p5
tp6
(dp7
S'suggests'
p8
S'crda'
p9
sS'configs'
p10
(lp11
S'kernelarch-x86/config'
p12
asS'bootloaders'
p13
(lp14
S'grub-pc'
p15
aS'extlinux'
p16
aS'grub-efi-amd64'
p17
ass(S'base'
p18
g5
S'none'
p19
tp20
(dp21
S'implicit-flavour'
p22
I01
sS'flavours'
p23
(lp24
S'aptosid-amd64'
p25
ass(S'image'
g5
NS'aptosid-amd64'
tp26
(dp27
S'configs'
p28
(lp29
S'kernelarch-x86/config-arch-64'
p30
ass(S'description'
S'i386'
p31
NS'aptosid-686'
tp32
(dp33
S'hardware'
p34
S'modern PCs'
p35
sS'hardware-long'
p36
S'PCs with Intel Pentium Pro/II/III/4/4M/D/M, Xeon, Celeron, Core or Atom; AMD Geode LX/NX, Athlon (K7), Duron, Opteron, Sempron, Turion or Phenom; Transmeta Efficeon; VIA C3 "Nehemiah" or C7 processors'
p37
ss(S'base'
g5
tp38
(dp39
S'kernel-arch'
p40
S'x86'
p41
sS'featuresets'
p42
(lp43
g19
ass(S'image'
p44
tp45
(dp46
S'initramfs-generators'
p47
(lp48
S'initramfs-tools'
p49
aS'initramfs-fallback'
p50
asS'type'
p51
S'plain'
p52
ss(S'image'
g31
NS'aptosid-686'
tp53
(dp54
S'configs'
p55
(lp56
S'kernelarch-x86/config-arch-32'
p57
asS'recommends'
p58
S'libc6-i686'
p59
ss(S'description'
g5
NS'aptosid-amd64'
tp60
(dp61
S'hardware'
p62
S'64-bit PCs'
p63
sS'hardware-long'
p64
S'PCs with AMD64 or Intel 64 processors'
p65
ss(S'version'
p66
tp67
(dp68
S'abiname'
p69
S'3.3-4.slh.3'
p70
sS'source'
p71
V3.3-22
p72
ss(S'build'
g5
NS'aptosid-amd64'
tp73
(dp74
S'debug-info'
p75
I00
ss(S'base'
p76
g31
tp77
(dp78
S'kernel-arch'
p79
S'x86'
p80
sg42
(lp81
g19
ass(S'abi'
p82
tp83
(dp84
S'abiname'
p85
S'4.slh.3'
p86
ss(S'image'
p87
g31
tp88
(dp89
S'suggests'
p90
S'crda'
p91
sS'configs'
p92
(lp93
S'kernelarch-x86/config'
p94
asS'bootloaders'
p95
(lp96
S'grub-pc'
p97
aS'extlinux'
p98
ass(g18
g31
g19
tp99
(dp100
g22
I01
sg23
(lp101
S'aptosid-686'
p102
ass(S'base'
p103
tp104
(dp105
S'arches'
p106
(lp107
S'amd64'
p108
aS'i386'
p109
asS'featuresets'
p110
(lp111
S'none'
p112
asS'compiler'
p113
S'gcc-4.6'
p114
ss(S'relations'
p115
tp116
(dp117
S'initramfs-fallback'
p118
S'linux-initramfs-tool'
p119
sS'lilo'
p120
S'lilo (>= 22.8-8.2~)'
p121
sS'initramfs-tools'
p122
S'initramfs-tools (>= 0.99~)'
p123
sS'gcc-4.6'
p124
S'gcc-4.6'
p125
sS'elilo'
p126
S'elilo (>= 3.12-3.1~)'
p127
ss(S'build'
g31
NS'aptosid-686'
tp128
(dp129
S'debug-info'
p130
I00
sstRp131
.