ccopy_reg
_reconstructor
p0
(cdebian_linux.config
ConfigCore
p1
c__builtin__
dict
p2
(dp3
(Vimage
p4
tp5
(dp6
Vinitramfs-generators
p7
(lp8
Vinitramfs-tools
p9
aVinitramfs-fallback
p10
asVtype
p11
Vplain
p12
ss(Vabi
p13
tp14
(dp15
Vabiname
p16
V0.slh.1
p17
ss(Vbase
p18
Vi386
p19
tp20
(dp21
Vfeaturesets
p22
(lp23
Vnone
p24
aVnone
p25
asVkernel-arch
p26
Vx86
p27
ss(Vversion
p28
tp29
(dp30
Vabiname
p31
V4.6.0-0.slh.1
p32
sVupstream
p33
V4.6
p34
sVsource
p35
V4.6-1
p36
sVabiname_base
p37
V4.6.0
p38
ss(Vbase
p39
Vamd64
p40
Vnone
p41
tp42
(dp43
Vflavours
p44
(lp45
Vaptosid-amd64
p46
asVimplicit-flavour
p47
I01
ss(Vdescription
p48
g19
NVaptosid-686
p49
tp50
(dp51
Vhardware-long
p52
VPCs with Intel Pentium Pro/II/III/4/4M/D/M, Xeon, Celeron, Core or Atom; AMD Geode LX/NX, Athlon (K7), Duron, Opteron, Sempron, Turion or Phenom; Transmeta Efficeon; VIA C3 "Nehemiah" or C7 processors
p53
sVhardware
p54
Vmodern PCs
p55
ss(Vimage
p56
g40
tp57
(dp58
Vinstall-stem
p59
Vvmlinuz
p60
sVsuggests
p61
Vcrda
p62
sVbootloaders
p63
(lp64
Vgrub-pc
p65
aVextlinux
p66
aVgrub-efi-amd64
p67
asVconfigs
p68
(lp69
ss(Vimage
p70
g19
NVaptosid-686
p71
tp72
(dp73
Vrecommends
p74
Vlibc6-i686
p75
sVconfigs
p76
(lp77
Vkernelarch-x86/config-arch-32
p78
ass(Vdescription
p79
g40
g41
Vaptosid-amd64
p80
tp81
(dp82
Vparts
p83
(lp84
Vxen
p85
ass(Vrelations
p86
tp87
(dp88
Vgcc-5
p89
Vgcc-5
p90
sVinitramfs-tools
p91
Vinitramfs-tools (>= 0.121~)
p92
sVinitramfs-fallback
p93
Vlinux-initramfs-tool
p94
ss(Vbase
p95
tp96
(dp97
Vfeaturesets
p98
(lp99
Vnone
p100
asVarches
p101
(lp102
Vamd64
p103
aVi386
p104
asVcompiler
p105
Vgcc-5
p106
ss(Vdescription
p107
g40
NVaptosid-amd64
p108
tp109
(dp110
Vhardware-long
p111
VPCs with AMD64 or Intel 64 processors
p112
sVhardware
p113
V64-bit PCs
p114
ss(Vimage
p115
g19
tp116
(dp117
Vinstall-stem
p118
Vvmlinuz
p119
sVsuggests
p120
Vcrda
p121
sVbootloaders
p122
(lp123
Vgrub-pc
p124
aVextlinux
p125
aVgrub-efi-ia32
p126
asVconfigs
p127
(lp128
ss(Vbuild
p129
g19
tp130
(dp131
Vdebug-info
p132
I00
sVimage-file
p133
Varch/x86/boot/bzImage
p134
ss(Vimage
p135
g40
NVaptosid-amd64
p136
tp137
(dp138
Vconfigs
p139
(lp140
Vkernelarch-x86/config-arch-64
p141
ass(Vxen
p142
g40
g41
Vaptosid-amd64
p143
tp144
(dp145
Vflavours
p146
(lp147
Vaptosid-amd64
p148
ass(Vdescription
p149
tp150
(dp151
Vpart-long-xen
p152
VThis kernel also runs on a Xen hypervisor.\u000aIt supports both privileged (dom0) and unprivileged (domU) operation.
p153
sVpart-long-up
p154
VThis kernel is not suitable for SMP (multi-processor,\u000amulti-core or hyper-threaded) systems.
p155
ss(Vbase
p156
g19
g25
tp157
(dp158
g44
(lp159
Vaptosid-686
p160
asg47
I01
ss(Vbuild
p161
g40
tp162
(dp163
Vdebug-info
p164
I00
sVimage-file
p165
Varch/x86/boot/bzImage
p166
ss(Vbase
p167
g40
tp168
(dp169
Vfeaturesets
p170
(lp171
g24
ag41
asVkernel-arch
p172
Vx86
p173
sstp174
Rp175
.