ccopy_reg
_reconstructor
p0
(cdebian_linux.config
ConfigCore
p1
c__builtin__
dict
p2
(dp3
(Vbase
p4
Vamd64
p5
Vnone
p6
tp7
(dp8
Vimplicit-flavour
p9
I01
sVflavours
p10
(lp11
Vaptosid-amd64
p12
ass(Vbuild
p13
Vi386
p14
tp15
(dp16
Vdebug-info
p17
I00
sVimage-file
p18
Varch/x86/boot/bzImage
p19
ss(Vimage
p20
g5
tp21
(dp22
Vsuggests
p23
Vcrda
p24
sVinstall-stem
p25
Vvmlinuz
p26
sVbootloaders
p27
(lp28
Vgrub-pc
p29
aVextlinux
p30
aVgrub-efi-amd64
p31
asVbreaks
p32
Vxserver-xorg-input-vmmouse (<< 1:13.0.99)
p33
ss(Vbase
p34
g5
tp35
(dp36
Vkernel-arch
p37
Vx86
p38
sVfeaturesets
p39
(lp40
Vnone
p41
ag6
ass(Vabi
p42
tp43
(dp44
Vabiname
p45
V2.slh.1
p46
ss(Vdescription
p47
g5
g6
Vaptosid-amd64
p48
tp49
(dp50
Vparts
p51
(lp52
Vxen
p53
ass(Vdescription
p54
g5
NVaptosid-amd64
p55
tp56
(dp57
Vhardware
p58
V64-bit PCs
p59
sVhardware-long
p60
VPCs with AMD64 or Intel 64 processors
p61
ss(Vbase
p62
g14
Vnone
p63
tp64
(dp65
g9
I01
sg10
(lp66
Vaptosid-686
p67
ass(Vversion
p68
tp69
(dp70
Vabiname
p71
V4.13.0-2.slh.1
p72
sVsource
p73
V4.13-5
p74
sVupstream
p75
V4.13
p76
sVabiname_base
p77
V4.13.0
p78
ss(Vbuild
p79
g5
tp80
(dp81
Vdebug-info
p82
I00
sVimage-file
p83
Varch/x86/boot/bzImage
p84
ss(Vdescription
p85
tp86
(dp87
Vpart-long-up
p88
VThis kernel is not suitable for SMP (multi-processor,\u000amulti-core or hyper-threaded) systems.
p89
sVpart-long-xen
p90
VThis kernel also runs on a Xen hypervisor.\u000aIt supports both privileged (dom0) and unprivileged (domU) operation.
p91
ss(Vdescription
p92
g14
NVaptosid-686
p93
tp94
(dp95
Vhardware
p96
Vmodern PCs
p97
sVhardware-long
p98
VPCs with Intel Pentium Pro/II/III/4/4M/D/M, Xeon, Celeron, Core or Atom; AMD Geode LX/NX, Athlon (K7), Duron, Opteron, Sempron, Turion or Phenom; Transmeta Efficeon; VIA C3 "Nehemiah" or C7 processors
p99
ss(Vimage
p100
g14
tp101
(dp102
Vsuggests
p103
Vcrda
p104
sVinstall-stem
p105
Vvmlinuz
p106
sVbootloaders
p107
(lp108
Vgrub-pc
p109
aVextlinux
p110
aVgrub-efi-ia32
p111
asVbreaks
p112
Vxserver-xorg-input-vmmouse (<< 1:13.0.99)
p113
ss(Vbase
p114
g14
tp115
(dp116
Vkernel-arch
p117
Vx86
p118
sVfeaturesets
p119
(lp120
g41
ag63
ass(Vimage
p121
tp122
(dp123
Vinitramfs-generators
p124
(lp125
Vinitramfs-tools
p126
aVinitramfs-fallback
p127
ass(Vrelations
p128
tp129
(dp130
Vgcc-7
p131
Vgcc-7
p132
sVinitramfs-fallback
p133
Vlinux-initramfs-tool
p134
sVinitramfs-tools
p135
Vinitramfs-tools (>= 0.121~)
p136
ss(Vbase
p137
tp138
(dp139
Vcompiler
p140
Vgcc-7
p141
sVarches
p142
(lp143
Vamd64
p144
aVi386
p145
asVfeaturesets
p146
(lp147
Vnone
p148
asstp149
Rp150
.