ccopy_reg
_reconstructor
p0
(cdebian_linux.config
ConfigCore
p1
c__builtin__
dict
p2
(dp3
(Vbuild
p4
Vamd64
p5
tp6
(dp7
Vimage-file
p8
Varch/x86/boot/bzImage
p9
sVdebug-info
p10
I00
ss(Vbase
p11
Vi386
p12
Vnone
p13
tp14
(dp15
Vimplicit-flavour
p16
I01
sVflavours
p17
(lp18
Vaptosid-686
p19
ass(Vimage
p20
g5
tp21
(dp22
Vsuggests
p23
Vcrda
p24
sVbootloaders
p25
(lp26
Vgrub-pc
p27
aVextlinux
p28
aVgrub-efi-amd64
p29
asVinstall-stem
p30
Vvmlinuz
p31
sVbreaks
p32
Vxserver-xorg-input-vmmouse (<< 1:13.0.99)
p33
ss(Vbase
p34
tp35
(dp36
Vfeaturesets
p37
(lp38
Vnone
p39
asVcompiler
p40
Vgcc-6
p41
sVarches
p42
(lp43
Vamd64
p44
aVi386
p45
ass(Vbase
p46
g5
tp47
(dp48
Vkernel-arch
p49
Vx86
p50
sVfeaturesets
p51
(lp52
Vnone
p53
aVnone
p54
ass(Vversion
p55
tp56
(dp57
Vsource
p58
V4.10-1
p59
sVabiname
p60
V4.10.0-0.slh.1
p61
sVupstream
p62
V4.10
p63
sVabiname_base
p64
V4.10.0
p65
ss(Vbuild
p66
g12
tp67
(dp68
Vimage-file
p69
Varch/x86/boot/bzImage
p70
sVdebug-info
p71
I00
ss(Vimage
p72
tp73
(dp74
Vinitramfs-generators
p75
(lp76
Vinitramfs-tools
p77
aVinitramfs-fallback
p78
ass(Vdescription
p79
g5
g54
Vaptosid-amd64
p80
tp81
(dp82
Vparts
p83
(lp84
Vxen
p85
ass(Vdescription
p86
g5
NVaptosid-amd64
p87
tp88
(dp89
Vhardware-long
p90
VPCs with AMD64 or Intel 64 processors
p91
sVhardware
p92
V64-bit PCs
p93
ss(Vdescription
p94
tp95
(dp96
Vpart-long-xen
p97
VThis kernel also runs on a Xen hypervisor.\u000aIt supports both privileged (dom0) and unprivileged (domU) operation.
p98
sVpart-long-up
p99
VThis kernel is not suitable for SMP (multi-processor,\u000amulti-core or hyper-threaded) systems.
p100
ss(Vbase
p101
g5
g54
tp102
(dp103
g16
I01
sg17
(lp104
Vaptosid-amd64
p105
ass(Vimage
p106
g12
tp107
(dp108
Vsuggests
p109
Vcrda
p110
sVbootloaders
p111
(lp112
Vgrub-pc
p113
aVextlinux
p114
aVgrub-efi-ia32
p115
asVinstall-stem
p116
Vvmlinuz
p117
sVbreaks
p118
Vxserver-xorg-input-vmmouse (<< 1:13.0.99)
p119
ss(Vdescription
p120
g12
NVaptosid-686
p121
tp122
(dp123
Vhardware-long
p124
VPCs with Intel Pentium Pro/II/III/4/4M/D/M, Xeon, Celeron, Core or Atom; AMD Geode LX/NX, Athlon (K7), Duron, Opteron, Sempron, Turion or Phenom; Transmeta Efficeon; VIA C3 "Nehemiah" or C7 processors
p125
sVhardware
p126
Vmodern PCs
p127
ss(Vbase
p128
g12
tp129
(dp130
Vkernel-arch
p131
Vx86
p132
sVfeaturesets
p133
(lp134
g53
ag13
ass(Vabi
p135
tp136
(dp137
Vabiname
p138
V0.slh.1
p139
ss(Vrelations
p140
tp141
(dp142
Vgcc-6
p143
Vgcc-6
p144
sVinitramfs-fallback
p145
Vlinux-initramfs-tool
p146
sVinitramfs-tools
p147
Vinitramfs-tools (>= 0.121~)
p148
sstp149
Rp150
.