ccopy_reg
_reconstructor
p0
(cdebian_linux.config
ConfigCore
p1
c__builtin__
dict
p2
(dp3
(Vrelations
p4
tp5
(dp6
Vinitramfs-tools
p7
Vinitramfs-tools (>= 0.121~)
p8
sVgcc-6
p9
Vgcc-6
p10
sVinitramfs-fallback
p11
Vlinux-initramfs-tool
p12
ss(Vbase
p13
Vamd64
p14
tp15
(dp16
Vfeaturesets
p17
(lp18
Vnone
p19
aVnone
p20
asVkernel-arch
p21
Vx86
p22
ss(Vdescription
p23
tp24
(dp25
Vpart-long-up
p26
VThis kernel is not suitable for SMP (multi-processor,\u000amulti-core or hyper-threaded) systems.
p27
sVpart-long-xen
p28
VThis kernel also runs on a Xen hypervisor.\u000aIt supports both privileged (dom0) and unprivileged (domU) operation.
p29
ss(Vimage
p30
tp31
(dp32
Vinitramfs-generators
p33
(lp34
Vinitramfs-tools
p35
aVinitramfs-fallback
p36
ass(Vimage
p37
Vi386
p38
tp39
(dp40
Vbootloaders
p41
(lp42
Vgrub-pc
p43
aVextlinux
p44
aVgrub-efi-ia32
p45
asVinstall-stem
p46
Vvmlinuz
p47
sVsuggests
p48
Vcrda
p49
sVbreaks
p50
Vxserver-xorg-input-vmmouse (<< 1:13.0.99)
p51
ss(Vabi
p52
tp53
(dp54
Vabiname
p55
V6.slh.1
p56
ss(Vdescription
p57
g14
NVaptosid-amd64
p58
tp59
(dp60
Vhardware
p61
V64-bit PCs
p62
sVhardware-long
p63
VPCs with AMD64 or Intel 64 processors
p64
ss(Vbase
p65
g38
tp66
(dp67
Vfeaturesets
p68
(lp69
g19
aVnone
p70
asVkernel-arch
p71
Vx86
p72
ss(Vbase
p73
tp74
(dp75
Vfeaturesets
p76
(lp77
Vnone
p78
asVcompiler
p79
Vgcc-6
p80
sVarches
p81
(lp82
Vamd64
p83
aVi386
p84
ass(Vbase
p85
g14
g20
tp86
(dp87
Vflavours
p88
(lp89
Vaptosid-amd64
p90
asVimplicit-flavour
p91
I01
ss(Vbuild
p92
g14
tp93
(dp94
Vdebug-info
p95
I00
sVimage-file
p96
Varch/x86/boot/bzImage
p97
ss(Vbase
p98
g38
g70
tp99
(dp100
g88
(lp101
Vaptosid-686
p102
asg91
I01
ss(Vversion
p103
tp104
(dp105
Vabiname_base
p106
V4.11.0
p107
sVupstream
p108
V4.11
p109
sVsource
p110
V4.11-13
p111
sVabiname
p112
V4.11.0-6.slh.1
p113
ss(Vdescription
p114
g14
g20
Vaptosid-amd64
p115
tp116
(dp117
Vparts
p118
(lp119
Vxen
p120
ass(Vdescription
p121
g38
NVaptosid-686
p122
tp123
(dp124
Vhardware
p125
Vmodern PCs
p126
sVhardware-long
p127
VPCs with Intel Pentium Pro/II/III/4/4M/D/M, Xeon, Celeron, Core or Atom; AMD Geode LX/NX, Athlon (K7), Duron, Opteron, Sempron, Turion or Phenom; Transmeta Efficeon; VIA C3 "Nehemiah" or C7 processors
p128
ss(Vimage
p129
g14
tp130
(dp131
Vbootloaders
p132
(lp133
Vgrub-pc
p134
aVextlinux
p135
aVgrub-efi-amd64
p136
asVinstall-stem
p137
Vvmlinuz
p138
sVsuggests
p139
Vcrda
p140
sVbreaks
p141
Vxserver-xorg-input-vmmouse (<< 1:13.0.99)
p142
ss(Vbuild
p143
g38
tp144
(dp145
Vdebug-info
p146
I00
sVimage-file
p147
Varch/x86/boot/bzImage
p148
sstp149
Rp150
.