ccopy_reg
_reconstructor
p0
(cdebian_linux.config
ConfigCore
p1
c__builtin__
dict
p2
(dp3
(Vimage
p4
Vi386
p5
tp6
(dp7
Vbreaks
p8
Vxserver-xorg-input-vmmouse (<< 1:13.0.99)
p9
sVsuggests
p10
Vcrda
p11
sVbootloaders
p12
(lp13
Vgrub-pc
p14
aVextlinux
p15
aVgrub-efi-ia32
p16
asVinstall-stem
p17
Vvmlinuz
p18
ss(Vimage
p19
tp20
(dp21
Vinitramfs-generators
p22
(lp23
Vinitramfs-tools
p24
aVinitramfs-fallback
p25
ass(Vdescription
p26
Vamd64
p27
NVaptosid-amd64
p28
tp29
(dp30
Vhardware
p31
V64-bit PCs
p32
sVhardware-long
p33
VPCs with AMD64 or Intel 64 processors
p34
ss(Vbuild
p35
g27
tp36
(dp37
Vdebug-info
p38
I00
sVimage-file
p39
Varch/x86/boot/bzImage
p40
ss(Vdescription
p41
g5
NVaptosid-686
p42
tp43
(dp44
Vhardware
p45
Vmodern PCs
p46
sVhardware-long
p47
VPCs with Intel Pentium Pro/II/III/4/4M/D/M, Xeon, Celeron, Core or Atom; AMD Geode LX/NX, Athlon (K7), Duron, Opteron, Sempron, Turion or Phenom; Transmeta Efficeon; VIA C3 "Nehemiah" or C7 processors
p48
ss(Vbase
p49
tp50
(dp51
Vfeaturesets
p52
(lp53
Vnone
p54
asVcompiler
p55
Vgcc-6
p56
sVarches
p57
(lp58
Vamd64
p59
aVi386
p60
ass(Vrelations
p61
tp62
(dp63
Vgcc-6
p64
Vgcc-6
p65
sVinitramfs-fallback
p66
Vlinux-initramfs-tool
p67
sVinitramfs-tools
p68
Vinitramfs-tools (>= 0.121~)
p69
ss(Vbase
p70
g27
Vnone
p71
tp72
(dp73
Vimplicit-flavour
p74
I01
sVflavours
p75
(lp76
Vaptosid-amd64
p77
ass(Vbase
p78
g5
tp79
(dp80
Vkernel-arch
p81
Vx86
p82
sVfeaturesets
p83
(lp84
Vnone
p85
aVnone
p86
ass(Vbase
p87
g5
g86
tp88
(dp89
g74
I01
sg75
(lp90
Vaptosid-686
p91
ass(Vbase
p92
g27
tp93
(dp94
Vkernel-arch
p95
Vx86
p96
sVfeaturesets
p97
(lp98
g85
ag71
ass(Vbuild
p99
g5
tp100
(dp101
Vdebug-info
p102
I00
sVimage-file
p103
Varch/x86/boot/bzImage
p104
ss(Vabi
p105
tp106
(dp107
Vabiname
p108
V4.slh.1
p109
ss(Vdescription
p110
tp111
(dp112
Vpart-long-up
p113
VThis kernel is not suitable for SMP (multi-processor,\u000amulti-core or hyper-threaded) systems.
p114
sVpart-long-xen
p115
VThis kernel also runs on a Xen hypervisor.\u000aIt supports both privileged (dom0) and unprivileged (domU) operation.
p116
ss(Vdescription
p117
g27
g71
Vaptosid-amd64
p118
tp119
(dp120
Vparts
p121
(lp122
Vxen
p123
ass(Vversion
p124
tp125
(dp126
Vupstream
p127
V4.10
p128
sVabiname_base
p129
V4.10.0
p130
sVsource
p131
V4.10-8
p132
sVabiname
p133
V4.10.0-4.slh.1
p134
ss(Vimage
p135
g27
tp136
(dp137
Vbreaks
p138
Vxserver-xorg-input-vmmouse (<< 1:13.0.99)
p139
sVsuggests
p140
Vcrda
p141
sVbootloaders
p142
(lp143
Vgrub-pc
p144
aVextlinux
p145
aVgrub-efi-amd64
p146
asVinstall-stem
p147
Vvmlinuz
p148
sstp149
Rp150
.