ccopy_reg
_reconstructor
p1
(cdebian_linux.config
ConfigCore
p2
c__builtin__
dict
p3
(dp4
(S'image'
S'amd64'
p5
tp6
(dp7
S'suggests'
p8
S'crda'
p9
sS'configs'
p10
(lp11
S'kernelarch-x86/config'
p12
asS'bootloaders'
p13
(lp14
S'grub-pc'
p15
aS'extlinux'
p16
aS'grub-efi-amd64'
p17
ass(S'image'
g5
NS'aptosid-amd64'
tp18
(dp19
S'configs'
p20
(lp21
S'kernelarch-x86/config-arch-64'
p22
ass(S'base'
p23
g5
S'none'
p24
tp25
(dp26
S'implicit-flavour'
p27
I01
sS'flavours'
p28
(lp29
S'aptosid-amd64'
p30
ass(S'base'
g5
tp31
(dp32
S'kernel-arch'
p33
S'x86'
p34
sS'featuresets'
p35
(lp36
g24
ass(S'image'
p37
tp38
(dp39
S'initramfs-generators'
p40
(lp41
S'initramfs-tools'
p42
aS'initramfs-fallback'
p43
asS'type'
p44
S'plain'
p45
ss(S'description'
g5
NS'aptosid-amd64'
tp46
(dp47
S'hardware'
p48
S'64-bit PCs'
p49
sS'hardware-long'
p50
S'PCs with AMD64 or Intel 64 processors'
p51
ss(S'version'
p52
tp53
(dp54
S'abiname'
p55
S'3.5-3.slh.4'
p56
sS'source'
p57
V3.5-14
p58
ss(S'build'
S'i386'
p59
NS'aptosid-686'
tp60
(dp61
S'debug-info'
p62
I00
ss(S'base'
p63
g59
tp64
(dp65
S'kernel-arch'
p66
S'x86'
p67
sg35
(lp68
g24
ass(S'build'
g5
NS'aptosid-amd64'
tp69
(dp70
S'debug-info'
p71
I00
ss(S'abi'
p72
tp73
(dp74
S'abiname'
p75
S'3.slh.4'
p76
ss(S'image'
p77
g59
tp78
(dp79
S'suggests'
p80
S'crda'
p81
sS'configs'
p82
(lp83
S'kernelarch-x86/config'
p84
asS'bootloaders'
p85
(lp86
S'grub-pc'
p87
aS'extlinux'
p88
ass(S'description'
g59
NS'aptosid-686'
tp89
(dp90
S'hardware'
p91
S'modern PCs'
p92
sS'hardware-long'
p93
S'PCs with Intel Pentium Pro/II/III/4/4M/D/M, Xeon, Celeron, Core or Atom; AMD Geode LX/NX, Athlon (K7), Duron, Opteron, Sempron, Turion or Phenom; Transmeta Efficeon; VIA C3 "Nehemiah" or C7 processors'
p94
ss(g23
g59
g24
tp95
(dp96
g27
I01
sg28
(lp97
S'aptosid-686'
p98
ass(S'image'
g59
NS'aptosid-686'
tp99
(dp100
S'configs'
p101
(lp102
S'kernelarch-x86/config-arch-32'
p103
asS'recommends'
p104
S'libc6-i686'
p105
ss(S'base'
p106
tp107
(dp108
S'arches'
p109
(lp110
S'amd64'
p111
aS'i386'
p112
asS'featuresets'
p113
(lp114
S'none'
p115
asS'compiler'
p116
S'gcc-4.7'
p117
ss(S'relations'
p118
tp119
(dp120
S'initramfs-fallback'
p121
S'linux-initramfs-tool'
p122
sS'lilo'
p123
S'lilo (>= 22.8-8.2~)'
p124
sS'gcc-4.7'
p125
S'gcc-4.7'
p126
sS'initramfs-tools'
p127
S'initramfs-tools (>= 0.99~)'
p128
sS'elilo'
p129
S'elilo (>= 3.12-3.1~)'
p130
sstRp131
.