ccopy_reg
_reconstructor
p0
(cdebian_linux.config
ConfigCore
p1
c__builtin__
dict
p2
(dp3
(Vdescription
p4
Vamd64
p5
NVaptosid-amd64
p6
tp7
(dp8
Vhardware
p9
V64-bit PCs
p10
sVhardware-long
p11
VPCs with AMD64 or Intel 64 processors
p12
ss(Vdescription
p13
Vi386
p14
NVaptosid-686
p15
tp16
(dp17
Vhardware
p18
Vmodern PCs
p19
sVhardware-long
p20
VPCs with Intel Pentium Pro/II/III/4/4M/D/M, Xeon, Celeron, Core or Atom; AMD Geode LX/NX, Athlon (K7), Duron, Opteron, Sempron, Turion or Phenom; Transmeta Efficeon; VIA C3 "Nehemiah" or C7 processors
p21
ss(Vabi
p22
tp23
(dp24
Vabiname
p25
V1.slh.1
p26
ss(Vbase
p27
g14
tp28
(dp29
Vkernel-arch
p30
Vx86
p31
sVfeaturesets
p32
(lp33
Vnone
p34
aVnone
p35
ass(Vimage
p36
g14
tp37
(dp38
Vinstall-stem
p39
Vvmlinuz
p40
sVbootloaders
p41
(lp42
Vgrub-pc
p43
aVextlinux
p44
aVgrub-efi-ia32
p45
asVsuggests
p46
Vcrda
p47
sVbreaks
p48
Vxserver-xorg-input-vmmouse (<< 1:13.0.99)
p49
ss(Vbuild
p50
g14
tp51
(dp52
Vimage-file
p53
Varch/x86/boot/bzImage
p54
sVdebug-info
p55
I00
ss(Vrelations
p56
tp57
(dp58
Vgcc-6
p59
Vgcc-6
p60
sVinitramfs-tools
p61
Vinitramfs-tools (>= 0.121~)
p62
sVinitramfs-fallback
p63
Vlinux-initramfs-tool
p64
ss(Vbase
p65
tp66
(dp67
Varches
p68
(lp69
Vamd64
p70
aVi386
p71
asVfeaturesets
p72
(lp73
Vnone
p74
asVcompiler
p75
Vgcc-6
p76
ss(Vversion
p77
tp78
(dp79
Vsource
p80
V4.9-4
p81
sVabiname
p82
V4.9.0-1.slh.1
p83
sVupstream
p84
V4.9
p85
sVabiname_base
p86
V4.9.0
p87
ss(Vdescription
p88
g5
Vnone
p89
Vaptosid-amd64
p90
tp91
(dp92
Vparts
p93
(lp94
Vxen
p95
ass(Vbase
p96
g5
g89
tp97
(dp98
Vimplicit-flavour
p99
I01
sVflavours
p100
(lp101
Vaptosid-amd64
p102
ass(Vdescription
p103
tp104
(dp105
Vpart-long-up
p106
VThis kernel is not suitable for SMP (multi-processor,\u000amulti-core or hyper-threaded) systems.
p107
sVpart-long-xen
p108
VThis kernel also runs on a Xen hypervisor.\u000aIt supports both privileged (dom0) and unprivileged (domU) operation.
p109
ss(Vbase
p110
g14
g35
tp111
(dp112
g99
I01
sg100
(lp113
Vaptosid-686
p114
ass(Vbuild
p115
g5
tp116
(dp117
Vimage-file
p118
Varch/x86/boot/bzImage
p119
sVdebug-info
p120
I00
ss(Vbase
p121
g5
tp122
(dp123
Vkernel-arch
p124
Vx86
p125
sVfeaturesets
p126
(lp127
g34
ag89
ass(Vimage
p128
g5
tp129
(dp130
Vinstall-stem
p131
Vvmlinuz
p132
sVbootloaders
p133
(lp134
Vgrub-pc
p135
aVextlinux
p136
aVgrub-efi-amd64
p137
asVsuggests
p138
Vcrda
p139
sVbreaks
p140
Vxserver-xorg-input-vmmouse (<< 1:13.0.99)
p141
ss(Vimage
p142
tp143
(dp144
Vinitramfs-generators
p145
(lp146
Vinitramfs-tools
p147
aVinitramfs-fallback
p148
asstp149
Rp150
.