ccopy_reg
_reconstructor
p0
(cdebian_linux.config
ConfigCore
p1
c__builtin__
dict
p2
(dp3
(Vimage
p4
Vamd64
p5
tp6
(dp7
Vinstall-stem
p8
Vvmlinuz
p9
sVsuggests
p10
Vcrda
p11
sVbreaks
p12
Vxserver-xorg-input-vmmouse (<< 1:13.0.99)
p13
sVbootloaders
p14
(lp15
Vgrub-pc
p16
aVextlinux
p17
aVgrub-efi-amd64
p18
ass(Vbuild
p19
g5
tp20
(dp21
Vimage-file
p22
Varch/x86/boot/bzImage
p23
sVdebug-info
p24
I00
ss(Vbase
p25
g5
Vnone
p26
tp27
(dp28
Vimplicit-flavour
p29
I01
sVflavours
p30
(lp31
Vaptosid-amd64
p32
ass(Vxen
p33
g5
g26
Vaptosid-amd64
p34
tp35
(dp36
Vflavours
p37
(lp38
Vaptosid-amd64
p39
ass(Vdescription
p40
Vi386
p41
NVaptosid-686
p42
tp43
(dp44
Vhardware-long
p45
VPCs with Intel Pentium Pro/II/III/4/4M/D/M, Xeon, Celeron, Core or Atom; AMD Geode LX/NX, Athlon (K7), Duron, Opteron, Sempron, Turion or Phenom; Transmeta Efficeon; VIA C3 "Nehemiah" or C7 processors
p46
sVhardware
p47
Vmodern PCs
p48
ss(Vrelations
p49
tp50
(dp51
Vinitramfs-tools
p52
Vinitramfs-tools (>= 0.121~)
p53
sVinitramfs-fallback
p54
Vlinux-initramfs-tool
p55
sVgcc-6
p56
Vgcc-6
p57
ss(Vdescription
p58
g5
g26
Vaptosid-amd64
p59
tp60
(dp61
Vparts
p62
(lp63
Vxen
p64
ass(Vbase
p65
g5
tp66
(dp67
Vfeaturesets
p68
(lp69
Vnone
p70
ag26
asVkernel-arch
p71
Vx86
p72
ss(Vbase
p73
g41
tp74
(dp75
Vfeaturesets
p76
(lp77
g70
aVnone
p78
asVkernel-arch
p79
Vx86
p80
ss(Vimage
p81
tp82
(dp83
Vinitramfs-generators
p84
(lp85
Vinitramfs-tools
p86
aVinitramfs-fallback
p87
ass(Vdescription
p88
tp89
(dp90
Vpart-long-xen
p91
VThis kernel also runs on a Xen hypervisor.\u000aIt supports both privileged (dom0) and unprivileged (domU) operation.
p92
sVpart-long-up
p93
VThis kernel is not suitable for SMP (multi-processor,\u000amulti-core or hyper-threaded) systems.
p94
ss(Vbase
p95
tp96
(dp97
Vfeaturesets
p98
(lp99
Vnone
p100
asVcompiler
p101
Vgcc-6
p102
sVarches
p103
(lp104
Vamd64
p105
aVi386
p106
ass(Vdescription
p107
g5
NVaptosid-amd64
p108
tp109
(dp110
Vhardware-long
p111
VPCs with AMD64 or Intel 64 processors
p112
sVhardware
p113
V64-bit PCs
p114
ss(Vbase
p115
g41
g78
tp116
(dp117
g29
I01
sg30
(lp118
Vaptosid-686
p119
ass(Vbuild
p120
g41
tp121
(dp122
Vimage-file
p123
Varch/x86/boot/bzImage
p124
sVdebug-info
p125
I00
ss(Vimage
p126
g41
tp127
(dp128
Vinstall-stem
p129
Vvmlinuz
p130
sVsuggests
p131
Vcrda
p132
sVbreaks
p133
Vxserver-xorg-input-vmmouse (<< 1:13.0.99)
p134
sVbootloaders
p135
(lp136
Vgrub-pc
p137
aVextlinux
p138
aVgrub-efi-ia32
p139
ass(Vversion
p140
tp141
(dp142
Vabiname
p143
V4.7.0-3.slh.1
p144
sVabiname_base
p145
V4.7.0
p146
sVsource
p147
V4.7-14
p148
sVupstream
p149
V4.7
p150
ss(Vabi
p151
tp152
(dp153
Vabiname
p154
V3.slh.1
p155
sstp156
Rp157
.