ccopy_reg
_reconstructor
p0
(cdebian_linux.config
ConfigCore
p1
c__builtin__
dict
p2
(dp3
(Vimage
p4
Vamd64
p5
tp6
(dp7
Vinstall-stem
p8
Vvmlinuz
p9
sVbootloaders
p10
(lp11
Vgrub-pc
p12
aVextlinux
p13
aVgrub-efi-amd64
p14
asVsuggests
p15
Vcrda
p16
sVbreaks
p17
Vxserver-xorg-input-vmmouse (<< 1:13.0.99)
p18
ss(Vbase
p19
Vi386
p20
tp21
(dp22
Vkernel-arch
p23
Vx86
p24
sVfeaturesets
p25
(lp26
Vnone
p27
aVnone
p28
ass(Vdescription
p29
g5
Vnone
p30
Vaptosid-amd64
p31
tp32
(dp33
Vparts
p34
(lp35
Vxen
p36
ass(Vdescription
p37
g20
NVaptosid-686
p38
tp39
(dp40
Vhardware-long
p41
VPCs with Intel Pentium Pro/II/III/4/4M/D/M, Xeon, Celeron, Core or Atom; AMD Geode LX/NX, Athlon (K7), Duron, Opteron, Sempron, Turion or Phenom; Transmeta Efficeon; VIA C3 "Nehemiah" or C7 processors
p42
sVhardware
p43
Vmodern PCs
p44
ss(Vbuild
p45
g20
tp46
(dp47
Vdebug-info
p48
I00
sVimage-file
p49
Varch/x86/boot/bzImage
p50
ss(Vabi
p51
tp52
(dp53
Vabiname
p54
V4.slh.1
p55
ss(Vdescription
p56
g5
NVaptosid-amd64
p57
tp58
(dp59
Vhardware-long
p60
VPCs with AMD64 or Intel 64 processors
p61
sVhardware
p62
V64-bit PCs
p63
ss(Vimage
p64
g20
tp65
(dp66
Vinstall-stem
p67
Vvmlinuz
p68
sVbootloaders
p69
(lp70
Vgrub-pc
p71
aVextlinux
p72
aVgrub-efi-ia32
p73
asVsuggests
p74
Vcrda
p75
sVbreaks
p76
Vxserver-xorg-input-vmmouse (<< 1:13.0.99)
p77
ss(Vbase
p78
g5
tp79
(dp80
Vkernel-arch
p81
Vx86
p82
sVfeaturesets
p83
(lp84
g27
ag30
ass(Vversion
p85
tp86
(dp87
Vabiname_base
p88
V4.11.0
p89
sVupstream
p90
V4.11
p91
sVsource
p92
V4.11-10
p93
sVabiname
p94
V4.11.0-4.slh.1
p95
ss(Vbase
p96
g20
g28
tp97
(dp98
Vimplicit-flavour
p99
I01
sVflavours
p100
(lp101
Vaptosid-686
p102
ass(Vrelations
p103
tp104
(dp105
Vinitramfs-fallback
p106
Vlinux-initramfs-tool
p107
sVinitramfs-tools
p108
Vinitramfs-tools (>= 0.121~)
p109
sVgcc-6
p110
Vgcc-6
p111
ss(Vdescription
p112
tp113
(dp114
Vpart-long-up
p115
VThis kernel is not suitable for SMP (multi-processor,\u000amulti-core or hyper-threaded) systems.
p116
sVpart-long-xen
p117
VThis kernel also runs on a Xen hypervisor.\u000aIt supports both privileged (dom0) and unprivileged (domU) operation.
p118
ss(Vbase
p119
g5
g30
tp120
(dp121
g99
I01
sg100
(lp122
Vaptosid-amd64
p123
ass(Vbuild
p124
g5
tp125
(dp126
Vdebug-info
p127
I00
sVimage-file
p128
Varch/x86/boot/bzImage
p129
ss(Vbase
p130
tp131
(dp132
Varches
p133
(lp134
Vamd64
p135
aVi386
p136
asVcompiler
p137
Vgcc-6
p138
sVfeaturesets
p139
(lp140
Vnone
p141
ass(Vimage
p142
tp143
(dp144
Vinitramfs-generators
p145
(lp146
Vinitramfs-tools
p147
aVinitramfs-fallback
p148
asstp149
Rp150
.