ccopy_reg
_reconstructor
p0
(cdebian_linux.config
ConfigCore
p1
c__builtin__
dict
p2
(dp3
(Vimage
p4
Vamd64
p5
tp6
(dp7
Vsuggests
p8
Vcrda
p9
sVconfigs
p10
(lp11
sVbootloaders
p12
(lp13
Vgrub-pc
p14
aVextlinux
p15
aVgrub-efi-amd64
p16
asVinstall-stem
p17
Vvmlinuz
p18
ss(Vbase
p19
Vi386
p20
Vnone
p21
tp22
(dp23
Vflavours
p24
(lp25
Vaptosid-686
p26
asVimplicit-flavour
p27
I01
ss(Vdescription
p28
g5
NVaptosid-amd64
p29
tp30
(dp31
Vhardware-long
p32
VPCs with AMD64 or Intel 64 processors
p33
sVhardware
p34
V64-bit PCs
p35
ss(Vbuild
p36
g5
tp37
(dp38
Vdebug-info
p39
I00
sVimage-file
p40
Varch/x86/boot/bzImage
p41
ss(Vdescription
p42
tp43
(dp44
Vpart-long-up
p45
VThis kernel is not suitable for SMP (multi-processor,\u000amulti-core or hyper-threaded) systems.
p46
sVpart-long-xen
p47
VThis kernel also runs on a Xen hypervisor.\u000aIt supports both privileged (dom0) and unprivileged (domU) operation.
p48
ss(Vbase
p49
g5
Vnone
p50
tp51
(dp52
g24
(lp53
Vaptosid-amd64
p54
asg27
I01
ss(Vbase
p55
tp56
(dp57
Varches
p58
(lp59
Vamd64
p60
aVi386
p61
asVfeaturesets
p62
(lp63
Vnone
p64
asVcompiler
p65
Vgcc-5
p66
ss(Vversion
p67
tp68
(dp69
Vsource
p70
V4.6-7
p71
sVabiname
p72
V4.6.0-2.slh.2
p73
sVabiname_base
p74
V4.6.0
p75
sVupstream
p76
V4.6
p77
ss(Vimage
p78
tp79
(dp80
Vinitramfs-generators
p81
(lp82
Vinitramfs-tools
p83
aVinitramfs-fallback
p84
asVtype
p85
Vplain
p86
ss(Vimage
p87
g20
tp88
(dp89
Vsuggests
p90
Vcrda
p91
sVconfigs
p92
(lp93
sVbootloaders
p94
(lp95
Vgrub-pc
p96
aVextlinux
p97
aVgrub-efi-ia32
p98
asVinstall-stem
p99
Vvmlinuz
p100
ss(Vbase
p101
g20
tp102
(dp103
Vfeaturesets
p104
(lp105
Vnone
p106
ag21
asVkernel-arch
p107
Vx86
p108
ss(Vxen
p109
g5
g50
Vaptosid-amd64
p110
tp111
(dp112
Vflavours
p113
(lp114
Vaptosid-amd64
p115
ass(Vimage
p116
g20
NVaptosid-686
p117
tp118
(dp119
Vconfigs
p120
(lp121
Vkernelarch-x86/config-arch-32
p122
asVrecommends
p123
Vlibc6-i686
p124
ss(Vabi
p125
tp126
(dp127
Vabiname
p128
V2.slh.2
p129
ss(Vdescription
p130
g20
NVaptosid-686
p131
tp132
(dp133
Vhardware-long
p134
VPCs with Intel Pentium Pro/II/III/4/4M/D/M, Xeon, Celeron, Core or Atom; AMD Geode LX/NX, Athlon (K7), Duron, Opteron, Sempron, Turion or Phenom; Transmeta Efficeon; VIA C3 "Nehemiah" or C7 processors
p135
sVhardware
p136
Vmodern PCs
p137
ss(Vbase
p138
g5
tp139
(dp140
Vfeaturesets
p141
(lp142
g106
ag50
asVkernel-arch
p143
Vx86
p144
ss(Vdescription
p145
g5
g50
Vaptosid-amd64
p146
tp147
(dp148
Vparts
p149
(lp150
Vxen
p151
ass(Vimage
p152
g5
NVaptosid-amd64
p153
tp154
(dp155
Vconfigs
p156
(lp157
Vkernelarch-x86/config-arch-64
p158
ass(Vrelations
p159
tp160
(dp161
Vinitramfs-fallback
p162
Vlinux-initramfs-tool
p163
sVgcc-5
p164
Vgcc-5
p165
sVinitramfs-tools
p166
Vinitramfs-tools (>= 0.121~)
p167
ss(Vbuild
p168
g20
tp169
(dp170
Vdebug-info
p171
I00
sVimage-file
p172
Varch/x86/boot/bzImage
p173
sstp174
Rp175
.