ccopy_reg
_reconstructor
p0
(cdebian_linux.config
ConfigCore
p1
c__builtin__
dict
p2
(dp3
(Vimage
p4
Vamd64
p5
tp6
(dp7
Vbootloaders
p8
(lp9
Vgrub-pc
p10
aVextlinux
p11
aVgrub-efi-amd64
p12
asVsuggests
p13
Vcrda
p14
sVbreaks
p15
Vxserver-xorg-input-vmmouse (<< 1:13.0.99)
p16
sVinstall-stem
p17
Vvmlinuz
p18
ss(Vversion
p19
tp20
(dp21
Vabiname_base
p22
V4.8.0
p23
sVabiname
p24
V4.8.0-10.slh.1
p25
sVsource
p26
V4.8-14
p27
sVupstream
p28
V4.8
p29
ss(Vimage
p30
Vi386
p31
tp32
(dp33
Vbootloaders
p34
(lp35
Vgrub-pc
p36
aVextlinux
p37
aVgrub-efi-ia32
p38
asVsuggests
p39
Vcrda
p40
sVbreaks
p41
Vxserver-xorg-input-vmmouse (<< 1:13.0.99)
p42
sVinstall-stem
p43
Vvmlinuz
p44
ss(Vimage
p45
tp46
(dp47
Vinitramfs-generators
p48
(lp49
Vinitramfs-tools
p50
aVinitramfs-fallback
p51
ass(Vbase
p52
g31
Vnone
p53
tp54
(dp55
Vimplicit-flavour
p56
I01
sVflavours
p57
(lp58
Vaptosid-686
p59
ass(Vdescription
p60
g5
Vnone
p61
Vaptosid-amd64
p62
tp63
(dp64
Vparts
p65
(lp66
Vxen
p67
ass(Vxen
p68
g5
g61
Vaptosid-amd64
p69
tp70
(dp71
Vflavours
p72
(lp73
Vaptosid-amd64
p74
ass(Vbuild
p75
g5
tp76
(dp77
Vdebug-info
p78
I00
sVimage-file
p79
Varch/x86/boot/bzImage
p80
ss(Vdescription
p81
g31
NVaptosid-686
p82
tp83
(dp84
Vhardware
p85
Vmodern PCs
p86
sVhardware-long
p87
VPCs with Intel Pentium Pro/II/III/4/4M/D/M, Xeon, Celeron, Core or Atom; AMD Geode LX/NX, Athlon (K7), Duron, Opteron, Sempron, Turion or Phenom; Transmeta Efficeon; VIA C3 "Nehemiah" or C7 processors
p88
ss(Vdescription
p89
tp90
(dp91
Vpart-long-up
p92
VThis kernel is not suitable for SMP (multi-processor,\u000amulti-core or hyper-threaded) systems.
p93
sVpart-long-xen
p94
VThis kernel also runs on a Xen hypervisor.\u000aIt supports both privileged (dom0) and unprivileged (domU) operation.
p95
ss(Vbase
p96
g5
g61
tp97
(dp98
g56
I01
sg57
(lp99
Vaptosid-amd64
p100
ass(Vbuild
p101
g31
tp102
(dp103
Vdebug-info
p104
I00
sVimage-file
p105
Varch/x86/boot/bzImage
p106
ss(Vbase
p107
tp108
(dp109
Vcompiler
p110
Vgcc-6
p111
sVfeaturesets
p112
(lp113
Vnone
p114
asVarches
p115
(lp116
Vamd64
p117
aVi386
p118
ass(Vrelations
p119
tp120
(dp121
Vgcc-6
p122
Vgcc-6
p123
sVinitramfs-fallback
p124
Vlinux-initramfs-tool
p125
sVinitramfs-tools
p126
Vinitramfs-tools (>= 0.121~)
p127
ss(Vbase
p128
g5
tp129
(dp130
Vkernel-arch
p131
Vx86
p132
sVfeaturesets
p133
(lp134
Vnone
p135
ag61
ass(Vdescription
p136
g5
NVaptosid-amd64
p137
tp138
(dp139
Vhardware
p140
V64-bit PCs
p141
sVhardware-long
p142
VPCs with AMD64 or Intel 64 processors
p143
ss(Vabi
p144
tp145
(dp146
Vabiname
p147
V10.slh.1
p148
ss(Vbase
p149
g31
tp150
(dp151
Vkernel-arch
p152
Vx86
p153
sVfeaturesets
p154
(lp155
g135
ag53
asstp156
Rp157
.