ccopy_reg
_reconstructor
p0
(cdebian_linux.config
ConfigCore
p1
c__builtin__
dict
p2
(dp3
(Vimage
p4
tp5
(dp6
Vinitramfs-generators
p7
(lp8
Vinitramfs-tools
p9
aVinitramfs-fallback
p10
ass(Vbase
p11
Vamd64
p12
tp13
(dp14
Vkernel-arch
p15
Vx86
p16
sVfeaturesets
p17
(lp18
Vnone
p19
aVnone
p20
ass(Vdescription
p21
tp22
(dp23
Vpart-long-up
p24
VThis kernel is not suitable for SMP (multi-processor,\u000amulti-core or hyper-threaded) systems.
p25
sVpart-long-xen
p26
VThis kernel also runs on a Xen hypervisor.\u000aIt supports both privileged (dom0) and unprivileged (domU) operation.
p27
ss(Vbase
p28
tp29
(dp30
Varches
p31
(lp32
Vamd64
p33
aVi386
p34
asVcompiler
p35
Vgcc-6
p36
sVfeaturesets
p37
(lp38
Vnone
p39
ass(Vdescription
p40
Vi386
p41
NVaptosid-686
p42
tp43
(dp44
Vhardware-long
p45
VPCs with Intel Pentium Pro/II/III/4/4M/D/M, Xeon, Celeron, Core or Atom; AMD Geode LX/NX, Athlon (K7), Duron, Opteron, Sempron, Turion or Phenom; Transmeta Efficeon; VIA C3 "Nehemiah" or C7 processors
p46
sVhardware
p47
Vmodern PCs
p48
ss(Vrelations
p49
tp50
(dp51
Vinitramfs-tools
p52
Vinitramfs-tools (>= 0.121~)
p53
sVgcc-6
p54
Vgcc-6
p55
sVinitramfs-fallback
p56
Vlinux-initramfs-tool
p57
ss(Vimage
p58
g12
tp59
(dp60
Vbootloaders
p61
(lp62
Vgrub-pc
p63
aVextlinux
p64
aVgrub-efi-amd64
p65
asVbreaks
p66
Vxserver-xorg-input-vmmouse (<< 1:13.0.99)
p67
sVinstall-stem
p68
Vvmlinuz
p69
sVsuggests
p70
Vcrda
p71
ss(Vbase
p72
g41
Vnone
p73
tp74
(dp75
Vflavours
p76
(lp77
Vaptosid-686
p78
asVimplicit-flavour
p79
I01
ss(Vdescription
p80
g12
NVaptosid-amd64
p81
tp82
(dp83
Vhardware-long
p84
VPCs with AMD64 or Intel 64 processors
p85
sVhardware
p86
V64-bit PCs
p87
ss(Vbase
p88
g12
g20
tp89
(dp90
g76
(lp91
Vaptosid-amd64
p92
asg79
I01
ss(Vdescription
p93
g12
g20
Vaptosid-amd64
p94
tp95
(dp96
Vparts
p97
(lp98
Vxen
p99
ass(Vabi
p100
tp101
(dp102
Vabiname
p103
V3.slh.2
p104
ss(Vimage
p105
g41
tp106
(dp107
Vbootloaders
p108
(lp109
Vgrub-pc
p110
aVextlinux
p111
aVgrub-efi-ia32
p112
asVbreaks
p113
Vxserver-xorg-input-vmmouse (<< 1:13.0.99)
p114
sVinstall-stem
p115
Vvmlinuz
p116
sVsuggests
p117
Vcrda
p118
ss(Vbuild
p119
g12
tp120
(dp121
Vdebug-info
p122
I00
sVimage-file
p123
Varch/x86/boot/bzImage
p124
ss(Vbase
p125
g41
tp126
(dp127
Vkernel-arch
p128
Vx86
p129
sVfeaturesets
p130
(lp131
g19
ag73
ass(Vbuild
p132
g41
tp133
(dp134
Vdebug-info
p135
I00
sVimage-file
p136
Varch/x86/boot/bzImage
p137
ss(Vversion
p138
tp139
(dp140
Vsource
p141
V4.11-9
p142
sVupstream
p143
V4.11
p144
sVabiname
p145
V4.11.0-3.slh.2
p146
sVabiname_base
p147
V4.11.0
p148
sstp149
Rp150
.