ccopy_reg
_reconstructor
p0
(cdebian_linux.config
ConfigCore
p1
c__builtin__
dict
p2
(dp3
(Vdescription
p4
Vamd64
p5
Vnone
p6
Vaptosid-amd64
p7
tp8
(dp9
Vparts
p10
(lp11
Vxen
p12
ass(Vdescription
p13
g5
NVaptosid-amd64
p14
tp15
(dp16
Vhardware
p17
V64-bit PCs
p18
sVhardware-long
p19
VPCs with AMD64 or Intel 64 processors
p20
ss(Vimage
p21
tp22
(dp23
Vinitramfs-generators
p24
(lp25
Vinitramfs-tools
p26
aVinitramfs-fallback
p27
asVtype
p28
Vplain
p29
ss(Vrelations
p30
tp31
(dp32
Vinitramfs-tools
p33
Vinitramfs-tools (>= 0.121~)
p34
sVinitramfs-fallback
p35
Vlinux-initramfs-tool
p36
sVgcc-5
p37
Vgcc-5
p38
ss(Vimage
p39
g5
tp40
(dp41
Vconfigs
p42
(lp43
sVbootloaders
p44
(lp45
Vgrub-pc
p46
aVextlinux
p47
aVgrub-efi-amd64
p48
asVinstall-stem
p49
Vvmlinuz
p50
sVsuggests
p51
Vcrda
p52
ss(Vdescription
p53
tp54
(dp55
Vpart-long-up
p56
VThis kernel is not suitable for SMP (multi-processor,\u000amulti-core or hyper-threaded) systems.
p57
sVpart-long-xen
p58
VThis kernel also runs on a Xen hypervisor.\u000aIt supports both privileged (dom0) and unprivileged (domU) operation.
p59
ss(Vxen
p60
g5
g6
Vaptosid-amd64
p61
tp62
(dp63
Vflavours
p64
(lp65
Vaptosid-amd64
p66
ass(Vbase
p67
Vi386
p68
tp69
(dp70
Vkernel-arch
p71
Vx86
p72
sVfeaturesets
p73
(lp74
Vnone
p75
aVnone
p76
ass(Vimage
p77
g68
tp78
(dp79
Vconfigs
p80
(lp81
sVbootloaders
p82
(lp83
Vgrub-pc
p84
aVextlinux
p85
aVgrub-efi-ia32
p86
asVinstall-stem
p87
Vvmlinuz
p88
sVsuggests
p89
Vcrda
p90
ss(Vabi
p91
tp92
(dp93
Vabiname
p94
V2.slh.2
p95
ss(Vdescription
p96
g68
NVaptosid-686
p97
tp98
(dp99
Vhardware
p100
Vmodern PCs
p101
sVhardware-long
p102
VPCs with Intel Pentium Pro/II/III/4/4M/D/M, Xeon, Celeron, Core or Atom; AMD Geode LX/NX, Athlon (K7), Duron, Opteron, Sempron, Turion or Phenom; Transmeta Efficeon; VIA C3 "Nehemiah" or C7 processors
p103
ss(Vimage
p104
g5
NVaptosid-amd64
p105
tp106
(dp107
Vconfigs
p108
(lp109
Vkernelarch-x86/config-arch-64
p110
ass(Vbase
p111
g5
g6
tp112
(dp113
Vflavours
p114
(lp115
Vaptosid-amd64
p116
asVimplicit-flavour
p117
I01
ss(Vbase
p118
g68
g76
tp119
(dp120
g114
(lp121
Vaptosid-686
p122
asg117
I01
ss(Vbase
p123
tp124
(dp125
Varches
p126
(lp127
Vamd64
p128
aVi386
p129
asVcompiler
p130
Vgcc-5
p131
sVfeaturesets
p132
(lp133
Vnone
p134
ass(Vbuild
p135
g5
tp136
(dp137
Vimage-file
p138
Varch/x86/boot/bzImage
p139
sVdebug-info
p140
I00
ss(Vversion
p141
tp142
(dp143
Vupstream
p144
V4.5
p145
sVabiname_base
p146
V4.5.0
p147
sVsource
p148
V4.5-8
p149
sVabiname
p150
V4.5.0-2.slh.2
p151
ss(Vbase
p152
g5
tp153
(dp154
Vkernel-arch
p155
Vx86
p156
sVfeaturesets
p157
(lp158
g75
ag6
ass(Vbuild
p159
g68
tp160
(dp161
Vimage-file
p162
Varch/x86/boot/bzImage
p163
sVdebug-info
p164
I00
ss(Vimage
p165
g68
NVaptosid-686
p166
tp167
(dp168
Vrecommends
p169
Vlibc6-i686
p170
sVconfigs
p171
(lp172
Vkernelarch-x86/config-arch-32
p173
asstp174
Rp175
.