ccopy_reg
_reconstructor
p0
(cdebian_linux.config
ConfigCore
p1
c__builtin__
dict
p2
(dp3
(Vbase
p4
Vamd64
p5
tp6
(dp7
Vkernel-arch
p8
Vx86
p9
sVfeaturesets
p10
(lp11
Vnone
p12
aVnone
p13
ass(Vxen
p14
g5
g13
Vaptosid-amd64
p15
tp16
(dp17
Vflavours
p18
(lp19
Vaptosid-amd64
p20
ass(Vdescription
p21
g5
NVaptosid-amd64
p22
tp23
(dp24
Vhardware
p25
V64-bit PCs
p26
sVhardware-long
p27
VPCs with AMD64 or Intel 64 processors
p28
ss(Vdescription
p29
Vi386
p30
NVaptosid-686
p31
tp32
(dp33
Vhardware
p34
Vmodern PCs
p35
sVhardware-long
p36
VPCs with Intel Pentium Pro/II/III/4/4M/D/M, Xeon, Celeron, Core or Atom; AMD Geode LX/NX, Athlon (K7), Duron, Opteron, Sempron, Turion or Phenom; Transmeta Efficeon; VIA C3 "Nehemiah" or C7 processors
p37
ss(Vbase
p38
tp39
(dp40
Vfeaturesets
p41
(lp42
Vnone
p43
asVcompiler
p44
Vgcc-5
p45
sVarches
p46
(lp47
Vamd64
p48
aVi386
p49
ass(Vabi
p50
tp51
(dp52
Vabiname
p53
V0.slh.1
p54
ss(Vimage
p55
g5
tp56
(dp57
Vconfigs
p58
(lp59
sVinstall-stem
p60
Vvmlinuz
p61
sVsuggests
p62
Vcrda
p63
sVbootloaders
p64
(lp65
Vgrub-pc
p66
aVextlinux
p67
aVgrub-efi-amd64
p68
ass(Vimage
p69
g30
NVaptosid-686
p70
tp71
(dp72
Vconfigs
p73
(lp74
Vkernelarch-x86/config-arch-32
p75
asVrecommends
p76
Vlibc6-i686
p77
ss(Vbase
p78
g30
Vnone
p79
tp80
(dp81
Vimplicit-flavour
p82
I01
sVflavours
p83
(lp84
Vaptosid-686
p85
ass(Vimage
p86
tp87
(dp88
Vtype
p89
Vplain
p90
sVinitramfs-generators
p91
(lp92
Vinitramfs-tools
p93
aVinitramfs-fallback
p94
ass(Vrelations
p95
tp96
(dp97
Vinitramfs-tools
p98
Vinitramfs-tools (>= 0.118+c0.aptosid.1~)
p99
sVgcc-5
p100
Vgcc-5
p101
sVinitramfs-fallback
p102
Vlinux-initramfs-tool
p103
ss(Vimage
p104
g5
NVaptosid-amd64
p105
tp106
(dp107
Vconfigs
p108
(lp109
Vkernelarch-x86/config-arch-64
p110
ass(Vbuild
p111
g30
tp112
(dp113
Vdebug-info
p114
I00
sVimage-file
p115
Varch/x86/boot/bzImage
p116
ss(Vversion
p117
tp118
(dp119
Vabiname_base
p120
V4.4.0
p121
sVupstream
p122
V4.4
p123
sVsource
p124
V4.4-2
p125
sVabiname
p126
V4.4.0-0.slh.1
p127
ss(Vimage
p128
g30
tp129
(dp130
Vconfigs
p131
(lp132
sVinstall-stem
p133
Vvmlinuz
p134
sVsuggests
p135
Vcrda
p136
sVbootloaders
p137
(lp138
Vgrub-pc
p139
aVextlinux
p140
aVgrub-efi-ia32
p141
ass(Vdescription
p142
tp143
(dp144
Vpart-long-up
p145
VThis kernel is not suitable for SMP (multi-processor,\u000amulti-core or hyper-threaded) systems.
p146
sVpart-long-xen
p147
VThis kernel also runs on a Xen hypervisor.\u000aIt supports both privileged (dom0) and unprivileged (domU) operation.
p148
ss(Vdescription
p149
g5
g13
Vaptosid-amd64
p150
tp151
(dp152
Vparts
p153
(lp154
Vxen
p155
ass(Vbase
p156
g5
g13
tp157
(dp158
g82
I01
sg83
(lp159
Vaptosid-amd64
p160
ass(Vbuild
p161
g5
tp162
(dp163
Vdebug-info
p164
I00
sVimage-file
p165
Varch/x86/boot/bzImage
p166
ss(Vbase
p167
g30
tp168
(dp169
Vkernel-arch
p170
Vx86
p171
sVfeaturesets
p172
(lp173
g12
ag79
asstp174
Rp175
.