ccopy_reg
_reconstructor
p0
(cdebian_linux.config
ConfigCore
p1
c__builtin__
dict
p2
(dp3
(Vbuild
p4
Vamd64
p5
tp6
(dp7
Vimage-file
p8
Varch/x86/boot/bzImage
p9
sVdebug-info
p10
I00
ss(Vdescription
p11
g5
Vnone
p12
Vaptosid-amd64
p13
tp14
(dp15
Vparts
p16
(lp17
Vxen
p18
ass(Vdescription
p19
Vi386
p20
NVaptosid-686
p21
tp22
(dp23
Vhardware
p24
Vmodern PCs
p25
sVhardware-long
p26
VPCs with Intel Pentium Pro/II/III/4/4M/D/M, Xeon, Celeron, Core or Atom; AMD Geode LX/NX, Athlon (K7), Duron, Opteron, Sempron, Turion or Phenom; Transmeta Efficeon; VIA C3 "Nehemiah" or C7 processors
p27
ss(Vbase
p28
g20
tp29
(dp30
Vkernel-arch
p31
Vx86
p32
sVfeaturesets
p33
(lp34
Vnone
p35
aVnone
p36
ass(Vbase
p37
g5
tp38
(dp39
Vkernel-arch
p40
Vx86
p41
sVfeaturesets
p42
(lp43
g35
ag12
ass(Vabi
p44
tp45
(dp46
Vabiname
p47
V8.slh.1
p48
ss(Vbase
p49
g5
g12
tp50
(dp51
Vimplicit-flavour
p52
I01
sVflavours
p53
(lp54
Vaptosid-amd64
p55
ass(Vimage
p56
g20
tp57
(dp58
Vbootloaders
p59
(lp60
Vgrub-pc
p61
aVextlinux
p62
aVgrub-efi-ia32
p63
asVinstall-stem
p64
Vvmlinuz
p65
sVbreaks
p66
Vxserver-xorg-input-vmmouse (<< 1:13.0.99)
p67
sVsuggests
p68
Vcrda
p69
ss(Vimage
p70
tp71
(dp72
Vinitramfs-generators
p73
(lp74
Vinitramfs-tools
p75
aVinitramfs-fallback
p76
ass(Vimage
p77
g5
tp78
(dp79
Vbootloaders
p80
(lp81
Vgrub-pc
p82
aVextlinux
p83
aVgrub-efi-amd64
p84
asVinstall-stem
p85
Vvmlinuz
p86
sVbreaks
p87
Vxserver-xorg-input-vmmouse (<< 1:13.0.99)
p88
sVsuggests
p89
Vcrda
p90
ss(Vbase
p91
g20
g36
tp92
(dp93
g52
I01
sg53
(lp94
Vaptosid-686
p95
ass(Vdescription
p96
g5
NVaptosid-amd64
p97
tp98
(dp99
Vhardware
p100
V64-bit PCs
p101
sVhardware-long
p102
VPCs with AMD64 or Intel 64 processors
p103
ss(Vrelations
p104
tp105
(dp106
Vinitramfs-tools
p107
Vinitramfs-tools (>= 0.121~)
p108
sVgcc-6
p109
Vgcc-6
p110
sVinitramfs-fallback
p111
Vlinux-initramfs-tool
p112
ss(Vversion
p113
tp114
(dp115
Vabiname
p116
V4.10.0-8.slh.1
p117
sVupstream
p118
V4.10
p119
sVsource
p120
V4.10-13
p121
sVabiname_base
p122
V4.10.0
p123
ss(Vbase
p124
tp125
(dp126
Vcompiler
p127
Vgcc-6
p128
sVarches
p129
(lp130
Vamd64
p131
aVi386
p132
asVfeaturesets
p133
(lp134
Vnone
p135
ass(Vdescription
p136
tp137
(dp138
Vpart-long-up
p139
VThis kernel is not suitable for SMP (multi-processor,\u000amulti-core or hyper-threaded) systems.
p140
sVpart-long-xen
p141
VThis kernel also runs on a Xen hypervisor.\u000aIt supports both privileged (dom0) and unprivileged (domU) operation.
p142
ss(Vbuild
p143
g20
tp144
(dp145
Vimage-file
p146
Varch/x86/boot/bzImage
p147
sVdebug-info
p148
I00
sstp149
Rp150
.