ccopy_reg
_reconstructor
p0
(cdebian_linux.config
ConfigCore
p1
c__builtin__
dict
p2
(dp3
(Vimage
p4
Vamd64
p5
tp6
(dp7
Vbreaks
p8
Vxserver-xorg-input-vmmouse (<< 1:13.0.99)
p9
sVinstall-stem
p10
Vvmlinuz
p11
sVsuggests
p12
Vcrda
p13
sVbootloaders
p14
(lp15
Vgrub-pc
p16
aVextlinux
p17
aVgrub-efi-amd64
p18
ass(Vabi
p19
tp20
(dp21
Vabiname
p22
V3.slh.2
p23
ss(Vdescription
p24
tp25
(dp26
Vpart-long-xen
p27
VThis kernel also runs on a Xen hypervisor.\u000aIt supports both privileged (dom0) and unprivileged (domU) operation.
p28
sVpart-long-up
p29
VThis kernel is not suitable for SMP (multi-processor,\u000amulti-core or hyper-threaded) systems.
p30
ss(Vdescription
p31
Vi386
p32
NVaptosid-686
p33
tp34
(dp35
Vhardware
p36
Vmodern PCs
p37
sVhardware-long
p38
VPCs with Intel Pentium Pro/II/III/4/4M/D/M, Xeon, Celeron, Core or Atom; AMD Geode LX/NX, Athlon (K7), Duron, Opteron, Sempron, Turion or Phenom; Transmeta Efficeon; VIA C3 "Nehemiah" or C7 processors
p39
ss(Vbase
p40
g5
Vnone
p41
tp42
(dp43
Vimplicit-flavour
p44
I01
sVflavours
p45
(lp46
Vaptosid-amd64
p47
ass(Vxen
p48
g5
g41
Vaptosid-amd64
p49
tp50
(dp51
Vflavours
p52
(lp53
Vaptosid-amd64
p54
ass(Vbase
p55
g5
tp56
(dp57
Vfeaturesets
p58
(lp59
Vnone
p60
ag41
asVkernel-arch
p61
Vx86
p62
ss(Vdescription
p63
g5
g41
Vaptosid-amd64
p64
tp65
(dp66
Vparts
p67
(lp68
Vxen
p69
ass(Vversion
p70
tp71
(dp72
Vsource
p73
V4.7-15
p74
sVabiname
p75
V4.7.0-3.slh.2
p76
sVupstream
p77
V4.7
p78
sVabiname_base
p79
V4.7.0
p80
ss(Vrelations
p81
tp82
(dp83
Vinitramfs-tools
p84
Vinitramfs-tools (>= 0.121~)
p85
sVgcc-6
p86
Vgcc-6
p87
sVinitramfs-fallback
p88
Vlinux-initramfs-tool
p89
ss(Vimage
p90
tp91
(dp92
Vinitramfs-generators
p93
(lp94
Vinitramfs-tools
p95
aVinitramfs-fallback
p96
ass(Vbase
p97
g32
Vnone
p98
tp99
(dp100
g44
I01
sg45
(lp101
Vaptosid-686
p102
ass(Vbase
p103
g32
tp104
(dp105
Vfeaturesets
p106
(lp107
g60
ag98
asVkernel-arch
p108
Vx86
p109
ss(Vbuild
p110
g5
tp111
(dp112
Vimage-file
p113
Varch/x86/boot/bzImage
p114
sVdebug-info
p115
I00
ss(Vdescription
p116
g5
NVaptosid-amd64
p117
tp118
(dp119
Vhardware
p120
V64-bit PCs
p121
sVhardware-long
p122
VPCs with AMD64 or Intel 64 processors
p123
ss(Vbuild
p124
g32
tp125
(dp126
Vimage-file
p127
Varch/x86/boot/bzImage
p128
sVdebug-info
p129
I00
ss(Vbase
p130
tp131
(dp132
Vfeaturesets
p133
(lp134
Vnone
p135
asVcompiler
p136
Vgcc-6
p137
sVarches
p138
(lp139
Vamd64
p140
aVi386
p141
ass(Vimage
p142
g32
tp143
(dp144
Vbreaks
p145
Vxserver-xorg-input-vmmouse (<< 1:13.0.99)
p146
sVinstall-stem
p147
Vvmlinuz
p148
sVsuggests
p149
Vcrda
p150
sVbootloaders
p151
(lp152
Vgrub-pc
p153
aVextlinux
p154
aVgrub-efi-ia32
p155
asstp156
Rp157
.