ccopy_reg
_reconstructor
p0
(cdebian_linux.config
ConfigCore
p1
c__builtin__
dict
p2
(dp3
(Vbase
p4
Vamd64
p5
tp6
(dp7
Vfeaturesets
p8
(lp9
Vnone
p10
aVnone
p11
asVkernel-arch
p12
Vx86
p13
ss(Vabi
p14
tp15
(dp16
Vabiname
p17
V3.slh.1
p18
ss(Vxen
p19
g5
g11
Vaptosid-amd64
p20
tp21
(dp22
Vflavours
p23
(lp24
Vaptosid-amd64
p25
ass(Vbase
p26
Vi386
p27
tp28
(dp29
Vfeaturesets
p30
(lp31
g10
aVnone
p32
asVkernel-arch
p33
Vx86
p34
ss(Vbuild
p35
g27
tp36
(dp37
Vdebug-info
p38
I00
sVimage-file
p39
Varch/x86/boot/bzImage
p40
ss(Vdescription
p41
g5
NVaptosid-amd64
p42
tp43
(dp44
Vhardware
p45
V64-bit PCs
p46
sVhardware-long
p47
VPCs with AMD64 or Intel 64 processors
p48
ss(Vimage
p49
g27
NVaptosid-686
p50
tp51
(dp52
Vconfigs
p53
(lp54
Vkernelarch-x86/config-arch-32
p55
asVrecommends
p56
Vlibc6-i686
p57
ss(Vbuild
p58
g5
tp59
(dp60
Vdebug-info
p61
I00
sVimage-file
p62
Varch/x86/boot/bzImage
p63
ss(Vimage
p64
g5
tp65
(dp66
Vsuggests
p67
Vcrda
p68
sVconfigs
p69
(lp70
sVinstall-stem
p71
Vvmlinuz
p72
sVbootloaders
p73
(lp74
Vgrub-pc
p75
aVextlinux
p76
aVgrub-efi-amd64
p77
ass(Vbase
p78
g5
g11
tp79
(dp80
Vimplicit-flavour
p81
I01
sVflavours
p82
(lp83
Vaptosid-amd64
p84
ass(Vimage
p85
g27
tp86
(dp87
Vsuggests
p88
Vcrda
p89
sVconfigs
p90
(lp91
sVinstall-stem
p92
Vvmlinuz
p93
sVbootloaders
p94
(lp95
Vgrub-pc
p96
aVextlinux
p97
aVgrub-efi-ia32
p98
ass(Vdescription
p99
g27
NVaptosid-686
p100
tp101
(dp102
Vhardware
p103
Vmodern PCs
p104
sVhardware-long
p105
VPCs with Intel Pentium Pro/II/III/4/4M/D/M, Xeon, Celeron, Core or Atom; AMD Geode LX/NX, Athlon (K7), Duron, Opteron, Sempron, Turion or Phenom; Transmeta Efficeon; VIA C3 "Nehemiah" or C7 processors
p106
ss(Vversion
p107
tp108
(dp109
Vsource
p110
V4.6-11
p111
sVabiname_base
p112
V4.6.0
p113
sVabiname
p114
V4.6.0-3.slh.1
p115
sVupstream
p116
V4.6
p117
ss(Vbase
p118
g27
g32
tp119
(dp120
g81
I01
sg82
(lp121
Vaptosid-686
p122
ass(Vdescription
p123
g5
g11
Vaptosid-amd64
p124
tp125
(dp126
Vparts
p127
(lp128
Vxen
p129
ass(Vbase
p130
tp131
(dp132
Vfeaturesets
p133
(lp134
Vnone
p135
asVcompiler
p136
Vgcc-5
p137
sVarches
p138
(lp139
Vamd64
p140
aVi386
p141
ass(Vrelations
p142
tp143
(dp144
Vinitramfs-fallback
p145
Vlinux-initramfs-tool
p146
sVinitramfs-tools
p147
Vinitramfs-tools (>= 0.121~)
p148
sVgcc-5
p149
Vgcc-5
p150
ss(Vimage
p151
tp152
(dp153
Vtype
p154
Vplain
p155
sVinitramfs-generators
p156
(lp157
Vinitramfs-tools
p158
aVinitramfs-fallback
p159
ass(Vdescription
p160
tp161
(dp162
Vpart-long-up
p163
VThis kernel is not suitable for SMP (multi-processor,\u000amulti-core or hyper-threaded) systems.
p164
sVpart-long-xen
p165
VThis kernel also runs on a Xen hypervisor.\u000aIt supports both privileged (dom0) and unprivileged (domU) operation.
p166
ss(Vimage
p167
g5
NVaptosid-amd64
p168
tp169
(dp170
Vconfigs
p171
(lp172
Vkernelarch-x86/config-arch-64
p173
asstp174
Rp175
.