ccopy_reg
_reconstructor
p1
(cdebian_linux.config
ConfigCore
p2
c__builtin__
dict
p3
(dp4
(S'image'
S'amd64'
p5
tp6
(dp7
S'suggests'
p8
S'crda'
p9
sS'configs'
p10
(lp11
S'kernelarch-x86/config'
p12
asS'bootloaders'
p13
(lp14
S'grub-pc'
p15
aS'extlinux'
p16
aS'grub-efi-amd64'
p17
ass(S'base'
p18
g5
S'none'
p19
tp20
(dp21
S'implicit-flavour'
p22
I01
sS'flavours'
p23
(lp24
S'aptosid-amd64'
p25
ass(S'base'
g5
tp26
(dp27
S'kernel-arch'
p28
S'x86'
p29
sS'featuresets'
p30
(lp31
g19
ass(S'image'
p32
tp33
(dp34
S'initramfs-generators'
p35
(lp36
S'initramfs-tools'
p37
aS'initramfs-fallback'
p38
asS'type'
p39
S'plain'
p40
ss(S'build'
S'i386'
p41
NS'aptosid-686'
tp42
(dp43
S'debug-info'
p44
I00
ss(S'build'
g5
NS'aptosid-amd64'
tp45
(dp46
S'debug-info'
p47
I00
ss(S'version'
p48
tp49
(dp50
S'abiname'
p51
S'3.4-6.slh.1'
p52
sS'source'
p53
V3.4-22
p54
ss(S'description'
g41
NS'aptosid-686'
tp55
(dp56
S'hardware'
p57
S'modern PCs'
p58
sS'hardware-long'
p59
S'PCs with Intel Pentium Pro/II/III/4/4M/D/M, Xeon, Celeron, Core or Atom; AMD Geode LX/NX, Athlon (K7), Duron, Opteron, Sempron, Turion or Phenom; Transmeta Efficeon; VIA C3 "Nehemiah" or C7 processors'
p60
ss(S'base'
p61
g41
tp62
(dp63
S'kernel-arch'
p64
S'x86'
p65
sg30
(lp66
g19
ass(S'image'
g41
NS'aptosid-686'
tp67
(dp68
S'configs'
p69
(lp70
S'kernelarch-x86/config-arch-32'
p71
asS'recommends'
p72
S'libc6-i686'
p73
ss(S'abi'
p74
tp75
(dp76
S'abiname'
p77
S'6.slh.1'
p78
ss(S'image'
p79
g41
tp80
(dp81
S'suggests'
p82
S'crda'
p83
sS'configs'
p84
(lp85
S'kernelarch-x86/config'
p86
asS'bootloaders'
p87
(lp88
S'grub-pc'
p89
aS'extlinux'
p90
ass(g18
g41
g19
tp91
(dp92
g22
I01
sg23
(lp93
S'aptosid-686'
p94
ass(S'image'
g5
NS'aptosid-amd64'
tp95
(dp96
S'configs'
p97
(lp98
S'kernelarch-x86/config-arch-64'
p99
ass(S'base'
p100
tp101
(dp102
S'arches'
p103
(lp104
S'amd64'
p105
aS'i386'
p106
asS'featuresets'
p107
(lp108
S'none'
p109
asS'compiler'
p110
S'gcc-4.7'
p111
ss(S'relations'
p112
tp113
(dp114
S'initramfs-fallback'
p115
S'linux-initramfs-tool'
p116
sS'lilo'
p117
S'lilo (>= 22.8-8.2~)'
p118
sS'gcc-4.7'
p119
S'gcc-4.7'
p120
sS'initramfs-tools'
p121
S'initramfs-tools (>= 0.99~)'
p122
sS'elilo'
p123
S'elilo (>= 3.12-3.1~)'
p124
ss(S'description'
g5
NS'aptosid-amd64'
tp125
(dp126
S'hardware'
p127
S'64-bit PCs'
p128
sS'hardware-long'
p129
S'PCs with AMD64 or Intel 64 processors'
p130
sstRp131
.