ccopy_reg
_reconstructor
p0
(cdebian_linux.config
ConfigCore
p1
c__builtin__
dict
p2
(dp3
(Vbuild
p4
Vamd64
p5
tp6
(dp7
Vimage-file
p8
Varch/x86/boot/bzImage
p9
sVdebug-info
p10
I00
ss(Vdescription
p11
g5
Vnone
p12
Vaptosid-amd64
p13
tp14
(dp15
Vparts
p16
(lp17
Vxen
p18
ass(Vdescription
p19
Vi386
p20
NVaptosid-686
p21
tp22
(dp23
Vhardware-long
p24
VPCs with Intel Pentium Pro/II/III/4/4M/D/M, Xeon, Celeron, Core or Atom; AMD Geode LX/NX, Athlon (K7), Duron, Opteron, Sempron, Turion or Phenom; Transmeta Efficeon; VIA C3 "Nehemiah" or C7 processors
p25
sVhardware
p26
Vmodern PCs
p27
ss(Vimage
p28
g20
tp29
(dp30
Vinstall-stem
p31
Vvmlinuz
p32
sVsuggests
p33
Vcrda
p34
sVbootloaders
p35
(lp36
Vgrub-pc
p37
aVextlinux
p38
aVgrub-efi-ia32
p39
asVbreaks
p40
Vxserver-xorg-input-vmmouse (<< 1:13.0.99)
p41
ss(Vbase
p42
g20
Vnone
p43
tp44
(dp45
Vflavours
p46
(lp47
Vaptosid-686
p48
asVimplicit-flavour
p49
I01
ss(Vimage
p50
tp51
(dp52
Vinitramfs-generators
p53
(lp54
Vinitramfs-tools
p55
aVinitramfs-fallback
p56
ass(Vdescription
p57
tp58
(dp59
Vpart-long-xen
p60
VThis kernel also runs on a Xen hypervisor.\u000aIt supports both privileged (dom0) and unprivileged (domU) operation.
p61
sVpart-long-up
p62
VThis kernel is not suitable for SMP (multi-processor,\u000amulti-core or hyper-threaded) systems.
p63
ss(Vdescription
p64
g5
NVaptosid-amd64
p65
tp66
(dp67
Vhardware-long
p68
VPCs with AMD64 or Intel 64 processors
p69
sVhardware
p70
V64-bit PCs
p71
ss(Vrelations
p72
tp73
(dp74
Vinitramfs-fallback
p75
Vlinux-initramfs-tool
p76
sVgcc-6
p77
Vgcc-6
p78
sVinitramfs-tools
p79
Vinitramfs-tools (>= 0.121~)
p80
ss(Vabi
p81
tp82
(dp83
Vabiname
p84
V2.slh.2
p85
ss(Vversion
p86
tp87
(dp88
Vupstream
p89
V4.7
p90
sVabiname
p91
V4.7.0-2.slh.2
p92
sVsource
p93
V4.7-11
p94
sVabiname_base
p95
V4.7.0
p96
ss(Vbase
p97
g20
tp98
(dp99
Vfeaturesets
p100
(lp101
Vnone
p102
ag43
asVkernel-arch
p103
Vx86
p104
ss(Vbase
p105
tp106
(dp107
Vfeaturesets
p108
(lp109
Vnone
p110
asVcompiler
p111
Vgcc-6
p112
sVarches
p113
(lp114
Vamd64
p115
aVi386
p116
ass(Vbase
p117
g5
tp118
(dp119
Vfeaturesets
p120
(lp121
g102
ag12
asVkernel-arch
p122
Vx86
p123
ss(Vbuild
p124
g20
tp125
(dp126
Vimage-file
p127
Varch/x86/boot/bzImage
p128
sVdebug-info
p129
I00
ss(Vxen
p130
g5
g12
Vaptosid-amd64
p131
tp132
(dp133
Vflavours
p134
(lp135
Vaptosid-amd64
p136
ass(Vbase
p137
g5
g12
tp138
(dp139
g46
(lp140
Vaptosid-amd64
p141
asg49
I01
ss(Vimage
p142
g5
tp143
(dp144
Vinstall-stem
p145
Vvmlinuz
p146
sVsuggests
p147
Vcrda
p148
sVbootloaders
p149
(lp150
Vgrub-pc
p151
aVextlinux
p152
aVgrub-efi-amd64
p153
asVbreaks
p154
Vxserver-xorg-input-vmmouse (<< 1:13.0.99)
p155
sstp156
Rp157
.