ccopy_reg
_reconstructor
p0
(cdebian_linux.config
ConfigCore
p1
c__builtin__
dict
p2
(dp3
(Vimage
p4
Vamd64
p5
NVaptosid-amd64
p6
tp7
(dp8
Vconfigs
p9
(lp10
Vkernelarch-x86/config-arch-64
p11
ass(Vrelations
p12
tp13
(dp14
Vgcc-5
p15
Vgcc-5
p16
sVinitramfs-fallback
p17
Vlinux-initramfs-tool
p18
sVinitramfs-tools
p19
Vinitramfs-tools (>= 0.118+c0.aptosid.1~)
p20
ss(Vdescription
p21
Vi386
p22
NVaptosid-686
p23
tp24
(dp25
Vhardware
p26
Vmodern PCs
p27
sVhardware-long
p28
VPCs with Intel Pentium Pro/II/III/4/4M/D/M, Xeon, Celeron, Core or Atom; AMD Geode LX/NX, Athlon (K7), Duron, Opteron, Sempron, Turion or Phenom; Transmeta Efficeon; VIA C3 "Nehemiah" or C7 processors
p29
ss(Vdescription
p30
g5
NVaptosid-amd64
p31
tp32
(dp33
Vhardware
p34
V64-bit PCs
p35
sVhardware-long
p36
VPCs with AMD64 or Intel 64 processors
p37
ss(Vabi
p38
tp39
(dp40
Vabiname
p41
V4.slh.1
p42
ss(Vdescription
p43
g5
Vnone
p44
Vaptosid-amd64
p45
tp46
(dp47
Vparts
p48
(lp49
Vxen
p50
ass(Vbuild
p51
g5
tp52
(dp53
Vimage-file
p54
Varch/x86/boot/bzImage
p55
sVdebug-info
p56
I00
ss(Vxen
p57
g5
g44
Vaptosid-amd64
p58
tp59
(dp60
Vflavours
p61
(lp62
Vaptosid-amd64
p63
ass(Vbase
p64
tp65
(dp66
Vfeaturesets
p67
(lp68
Vnone
p69
asVcompiler
p70
Vgcc-5
p71
sVarches
p72
(lp73
Vamd64
p74
aVi386
p75
ass(Vimage
p76
tp77
(dp78
Vtype
p79
Vplain
p80
sVinitramfs-generators
p81
(lp82
Vinitramfs-tools
p83
aVinitramfs-fallback
p84
ass(Vdescription
p85
tp86
(dp87
Vpart-long-xen
p88
VThis kernel also runs on a Xen hypervisor.\u000aIt supports both privileged (dom0) and unprivileged (domU) operation.
p89
sVpart-long-up
p90
VThis kernel is not suitable for SMP (multi-processor,\u000amulti-core or hyper-threaded) systems.
p91
ss(Vbase
p92
g22
Vnone
p93
tp94
(dp95
Vflavours
p96
(lp97
Vaptosid-686
p98
asVimplicit-flavour
p99
I01
ss(Vimage
p100
g22
NVaptosid-686
p101
tp102
(dp103
Vconfigs
p104
(lp105
Vkernelarch-x86/config-arch-32
p106
asVrecommends
p107
Vlibc6-i686
p108
ss(Vimage
p109
g5
tp110
(dp111
Vconfigs
p112
(lp113
sVsuggests
p114
Vcrda
p115
sVbootloaders
p116
(lp117
Vgrub-pc
p118
aVextlinux
p119
aVgrub-efi-amd64
p120
asVinstall-stem
p121
Vvmlinuz
p122
ss(Vbase
p123
g5
tp124
(dp125
Vfeaturesets
p126
(lp127
Vnone
p128
ag44
asVkernel-arch
p129
Vx86
p130
ss(Vbase
p131
g22
tp132
(dp133
Vfeaturesets
p134
(lp135
g128
ag93
asVkernel-arch
p136
Vx86
p137
ss(Vversion
p138
tp139
(dp140
Vabiname
p141
V4.4.0-4.slh.1
p142
sVabiname_base
p143
V4.4.0
p144
sVupstream
p145
V4.4
p146
sVsource
p147
V4.4-15
p148
ss(Vbase
p149
g5
g44
tp150
(dp151
g96
(lp152
Vaptosid-amd64
p153
asg99
I01
ss(Vimage
p154
g22
tp155
(dp156
Vconfigs
p157
(lp158
sVsuggests
p159
Vcrda
p160
sVbootloaders
p161
(lp162
Vgrub-pc
p163
aVextlinux
p164
aVgrub-efi-ia32
p165
asVinstall-stem
p166
Vvmlinuz
p167
ss(Vbuild
p168
g22
tp169
(dp170
Vimage-file
p171
Varch/x86/boot/bzImage
p172
sVdebug-info
p173
I00
sstp174
Rp175
.