ccopy_reg
_reconstructor
p1
(cdebian_linux.config
ConfigCore
p2
c__builtin__
dict
p3
(dp4
(S'image'
S'amd64'
p5
NS'aptosid-amd64'
tp6
(dp7
S'configs'
p8
(lp9
S'kernelarch-x86/config-arch-64'
p10
ass(S'image'
g5
tp11
(dp12
S'suggests'
p13
S'crda'
p14
sS'configs'
p15
(lp16
S'kernelarch-x86/config'
p17
asS'bootloaders'
p18
(lp19
S'grub-pc'
p20
aS'extlinux'
p21
aS'grub-efi-amd64'
p22
ass(S'base'
p23
g5
S'none'
p24
tp25
(dp26
S'implicit-flavour'
p27
I01
sS'flavours'
p28
(lp29
S'aptosid-amd64'
p30
ass(S'base'
g5
tp31
(dp32
S'kernel-arch'
p33
S'x86'
p34
sS'featuresets'
p35
(lp36
g24
ass(S'image'
p37
tp38
(dp39
S'initramfs-generators'
p40
(lp41
S'initramfs-tools'
p42
aS'initramfs-fallback'
p43
asS'type'
p44
S'plain'
p45
ss(S'build'
g5
NS'aptosid-amd64'
tp46
(dp47
S'debug-info'
p48
I00
ss(S'relations'
p49
tp50
(dp51
S'initramfs-fallback'
p52
S'linux-initramfs-tool'
p53
sS'lilo'
p54
S'lilo (>= 22.8-8.2~)'
p55
sS'gcc-4.7'
p56
S'gcc-4.7'
p57
sS'initramfs-tools'
p58
S'initramfs-tools (>= 0.110~)'
p59
sS'elilo'
p60
S'elilo (>= 3.12-3.1~)'
p61
ss(S'base'
p62
S'i386'
p63
tp64
(dp65
S'kernel-arch'
p66
S'x86'
p67
sg35
(lp68
g24
ass(S'image'
g63
NS'aptosid-686'
tp69
(dp70
S'configs'
p71
(lp72
S'kernelarch-x86/config-arch-32'
p73
asS'recommends'
p74
S'libc6-i686'
p75
ss(S'version'
p76
tp77
(dp78
S'abiname'
p79
S'3.9-4.slh.1'
p80
sS'source'
p81
V3.9-15
p82
ss(S'description'
g5
NS'aptosid-amd64'
tp83
(dp84
S'hardware'
p85
S'64-bit PCs'
p86
sS'hardware-long'
p87
S'PCs with AMD64 or Intel 64 processors'
p88
ss(S'description'
g63
NS'aptosid-686'
tp89
(dp90
S'hardware'
p91
S'modern PCs'
p92
sS'hardware-long'
p93
S'PCs with Intel Pentium Pro/II/III/4/4M/D/M, Xeon, Celeron, Core or Atom; AMD Geode LX/NX, Athlon (K7), Duron, Opteron, Sempron, Turion or Phenom; Transmeta Efficeon; VIA C3 "Nehemiah" or C7 processors'
p94
ss(S'abi'
p95
tp96
(dp97
S'abiname'
p98
S'4.slh.1'
p99
ss(S'image'
p100
g63
tp101
(dp102
S'suggests'
p103
S'crda'
p104
sS'configs'
p105
(lp106
S'kernelarch-x86/config'
p107
asS'bootloaders'
p108
(lp109
S'grub-pc'
p110
aS'extlinux'
p111
ass(g23
g63
g24
tp112
(dp113
g27
I01
sg28
(lp114
S'aptosid-686'
p115
ass(S'base'
p116
tp117
(dp118
S'arches'
p119
(lp120
S'amd64'
p121
aS'i386'
p122
asS'featuresets'
p123
(lp124
S'none'
p125
asS'compiler'
p126
S'gcc-4.7'
p127
ss(S'build'
g63
NS'aptosid-686'
tp128
(dp129
S'debug-info'
p130
I00
sstRp131
.