ccopy_reg
_reconstructor
p0
(cdebian_linux.config
ConfigCore
p1
c__builtin__
dict
p2
(dp3
(Vrelations
p4
tp5
(dp6
Vinitramfs-fallback
p7
Vlinux-initramfs-tool
p8
sVinitramfs-tools
p9
Vinitramfs-tools (>= 0.121~)
p10
sVgcc-6
p11
Vgcc-6
p12
ss(Vimage
p13
Vamd64
p14
tp15
(dp16
Vbootloaders
p17
(lp18
Vgrub-pc
p19
aVextlinux
p20
aVgrub-efi-amd64
p21
asVbreaks
p22
Vxserver-xorg-input-vmmouse (<< 1:13.0.99)
p23
sVinstall-stem
p24
Vvmlinuz
p25
sVsuggests
p26
Vcrda
p27
ss(Vimage
p28
Vi386
p29
tp30
(dp31
Vbootloaders
p32
(lp33
Vgrub-pc
p34
aVextlinux
p35
aVgrub-efi-ia32
p36
asVbreaks
p37
Vxserver-xorg-input-vmmouse (<< 1:13.0.99)
p38
sVinstall-stem
p39
Vvmlinuz
p40
sVsuggests
p41
Vcrda
p42
ss(Vbuild
p43
g14
tp44
(dp45
Vimage-file
p46
Varch/x86/boot/bzImage
p47
sVdebug-info
p48
I00
ss(Vdescription
p49
tp50
(dp51
Vpart-long-xen
p52
VThis kernel also runs on a Xen hypervisor.\u000aIt supports both privileged (dom0) and unprivileged (domU) operation.
p53
sVpart-long-up
p54
VThis kernel is not suitable for SMP (multi-processor,\u000amulti-core or hyper-threaded) systems.
p55
ss(Vbuild
p56
g29
tp57
(dp58
Vimage-file
p59
Varch/x86/boot/bzImage
p60
sVdebug-info
p61
I00
ss(Vxen
p62
g14
Vnone
p63
Vaptosid-amd64
p64
tp65
(dp66
Vflavours
p67
(lp68
Vaptosid-amd64
p69
ass(Vdescription
p70
g14
NVaptosid-amd64
p71
tp72
(dp73
Vhardware-long
p74
VPCs with AMD64 or Intel 64 processors
p75
sVhardware
p76
V64-bit PCs
p77
ss(Vbase
p78
g29
Vnone
p79
tp80
(dp81
Vflavours
p82
(lp83
Vaptosid-686
p84
asVimplicit-flavour
p85
I01
ss(Vdescription
p86
g29
NVaptosid-686
p87
tp88
(dp89
Vhardware-long
p90
VPCs with Intel Pentium Pro/II/III/4/4M/D/M, Xeon, Celeron, Core or Atom; AMD Geode LX/NX, Athlon (K7), Duron, Opteron, Sempron, Turion or Phenom; Transmeta Efficeon; VIA C3 "Nehemiah" or C7 processors
p91
sVhardware
p92
Vmodern PCs
p93
ss(Vdescription
p94
g14
g63
Vaptosid-amd64
p95
tp96
(dp97
Vparts
p98
(lp99
Vxen
p100
ass(Vbase
p101
g29
tp102
(dp103
Vfeaturesets
p104
(lp105
Vnone
p106
ag79
asVkernel-arch
p107
Vx86
p108
ss(Vversion
p109
tp110
(dp111
Vabiname
p112
V4.8.0-10.slh.2
p113
sVupstream
p114
V4.8
p115
sVsource
p116
V4.8-15
p117
sVabiname_base
p118
V4.8.0
p119
ss(Vbase
p120
g14
tp121
(dp122
Vfeaturesets
p123
(lp124
g106
ag63
asVkernel-arch
p125
Vx86
p126
ss(Vabi
p127
tp128
(dp129
Vabiname
p130
V10.slh.2
p131
ss(Vimage
p132
tp133
(dp134
Vinitramfs-generators
p135
(lp136
Vinitramfs-tools
p137
aVinitramfs-fallback
p138
ass(Vbase
p139
tp140
(dp141
Varches
p142
(lp143
Vamd64
p144
aVi386
p145
asVcompiler
p146
Vgcc-6
p147
sVfeaturesets
p148
(lp149
Vnone
p150
ass(Vbase
p151
g14
g63
tp152
(dp153
g82
(lp154
Vaptosid-amd64
p155
asg85
I01
sstp156
Rp157
.