ccopy_reg
_reconstructor
p0
(cdebian_linux.config
ConfigCore
p1
c__builtin__
dict
p2
(dp3
(Vdescription
p4
Vamd64
p5
NVaptosid-amd64
p6
tp7
(dp8
Vhardware
p9
V64-bit PCs
p10
sVhardware-long
p11
VPCs with AMD64 or Intel 64 processors
p12
ss(Vabi
p13
tp14
(dp15
Vabiname
p16
V2.slh.3
p17
ss(Vversion
p18
tp19
(dp20
Vsource
p21
V4.5-9
p22
sVabiname
p23
V4.5.0-2.slh.3
p24
sVupstream
p25
V4.5
p26
sVabiname_base
p27
V4.5.0
p28
ss(Vbuild
p29
Vi386
p30
tp31
(dp32
Vdebug-info
p33
I00
sVimage-file
p34
Varch/x86/boot/bzImage
p35
ss(Vbase
p36
g5
Vnone
p37
tp38
(dp39
Vflavours
p40
(lp41
Vaptosid-amd64
p42
asVimplicit-flavour
p43
I01
ss(Vimage
p44
tp45
(dp46
Vinitramfs-generators
p47
(lp48
Vinitramfs-tools
p49
aVinitramfs-fallback
p50
asVtype
p51
Vplain
p52
ss(Vbase
p53
g30
tp54
(dp55
Vfeaturesets
p56
(lp57
Vnone
p58
aVnone
p59
asVkernel-arch
p60
Vx86
p61
ss(Vdescription
p62
tp63
(dp64
Vpart-long-up
p65
VThis kernel is not suitable for SMP (multi-processor,\u000amulti-core or hyper-threaded) systems.
p66
sVpart-long-xen
p67
VThis kernel also runs on a Xen hypervisor.\u000aIt supports both privileged (dom0) and unprivileged (domU) operation.
p68
ss(Vdescription
p69
g5
g37
Vaptosid-amd64
p70
tp71
(dp72
Vparts
p73
(lp74
Vxen
p75
ass(Vbase
p76
g30
g59
tp77
(dp78
g40
(lp79
Vaptosid-686
p80
asg43
I01
ss(Vimage
p81
g5
NVaptosid-amd64
p82
tp83
(dp84
Vconfigs
p85
(lp86
Vkernelarch-x86/config-arch-64
p87
ass(Vbase
p88
tp89
(dp90
Varches
p91
(lp92
Vamd64
p93
aVi386
p94
asVcompiler
p95
Vgcc-5
p96
sVfeaturesets
p97
(lp98
Vnone
p99
ass(Vdescription
p100
g30
NVaptosid-686
p101
tp102
(dp103
Vhardware
p104
Vmodern PCs
p105
sVhardware-long
p106
VPCs with Intel Pentium Pro/II/III/4/4M/D/M, Xeon, Celeron, Core or Atom; AMD Geode LX/NX, Athlon (K7), Duron, Opteron, Sempron, Turion or Phenom; Transmeta Efficeon; VIA C3 "Nehemiah" or C7 processors
p107
ss(Vrelations
p108
tp109
(dp110
Vinitramfs-tools
p111
Vinitramfs-tools (>= 0.121~)
p112
sVgcc-5
p113
Vgcc-5
p114
sVinitramfs-fallback
p115
Vlinux-initramfs-tool
p116
ss(Vbase
p117
g5
tp118
(dp119
Vfeaturesets
p120
(lp121
g58
ag37
asVkernel-arch
p122
Vx86
p123
ss(Vbuild
p124
g5
tp125
(dp126
Vdebug-info
p127
I00
sVimage-file
p128
Varch/x86/boot/bzImage
p129
ss(Vimage
p130
g30
NVaptosid-686
p131
tp132
(dp133
Vconfigs
p134
(lp135
Vkernelarch-x86/config-arch-32
p136
asVrecommends
p137
Vlibc6-i686
p138
ss(Vimage
p139
g30
tp140
(dp141
Vconfigs
p142
(lp143
sVbootloaders
p144
(lp145
Vgrub-pc
p146
aVextlinux
p147
aVgrub-efi-ia32
p148
asVsuggests
p149
Vcrda
p150
sVinstall-stem
p151
Vvmlinuz
p152
ss(Vimage
p153
g5
tp154
(dp155
Vconfigs
p156
(lp157
sVbootloaders
p158
(lp159
Vgrub-pc
p160
aVextlinux
p161
aVgrub-efi-amd64
p162
asVsuggests
p163
Vcrda
p164
sVinstall-stem
p165
Vvmlinuz
p166
ss(Vxen
p167
g5
g37
Vaptosid-amd64
p168
tp169
(dp170
Vflavours
p171
(lp172
Vaptosid-amd64
p173
asstp174
Rp175
.