ccopy_reg
_reconstructor
p0
(cdebian_linux.config
ConfigCore
p1
c__builtin__
dict
p2
(dp3
(Vbase
p4
Vi386
p5
Vnone
p6
tp7
(dp8
Vflavours
p9
(lp10
Vaptosid-686
p11
asVimplicit-flavour
p12
I01
ss(Vversion
p13
tp14
(dp15
Vupstream
p16
V4.5
p17
sVabiname
p18
V4.5.0-1.slh.2
p19
sVsource
p20
V4.5-5
p21
sVabiname_base
p22
V4.5.0
p23
ss(Vbase
p24
g5
tp25
(dp26
Vkernel-arch
p27
Vx86
p28
sVfeaturesets
p29
(lp30
Vnone
p31
ag6
ass(Vdescription
p32
Vamd64
p33
NVaptosid-amd64
p34
tp35
(dp36
Vhardware
p37
V64-bit PCs
p38
sVhardware-long
p39
VPCs with AMD64 or Intel 64 processors
p40
ss(Vdescription
p41
tp42
(dp43
Vpart-long-xen
p44
VThis kernel also runs on a Xen hypervisor.\u000aIt supports both privileged (dom0) and unprivileged (domU) operation.
p45
sVpart-long-up
p46
VThis kernel is not suitable for SMP (multi-processor,\u000amulti-core or hyper-threaded) systems.
p47
ss(Vdescription
p48
g5
NVaptosid-686
p49
tp50
(dp51
Vhardware
p52
Vmodern PCs
p53
sVhardware-long
p54
VPCs with Intel Pentium Pro/II/III/4/4M/D/M, Xeon, Celeron, Core or Atom; AMD Geode LX/NX, Athlon (K7), Duron, Opteron, Sempron, Turion or Phenom; Transmeta Efficeon; VIA C3 "Nehemiah" or C7 processors
p55
ss(Vimage
p56
g33
tp57
(dp58
Vsuggests
p59
Vcrda
p60
sVconfigs
p61
(lp62
sVinstall-stem
p63
Vvmlinuz
p64
sVbootloaders
p65
(lp66
Vgrub-pc
p67
aVextlinux
p68
aVgrub-efi-amd64
p69
ass(Vrelations
p70
tp71
(dp72
Vinitramfs-fallback
p73
Vlinux-initramfs-tool
p74
sVgcc-5
p75
Vgcc-5
p76
sVinitramfs-tools
p77
Vinitramfs-tools (>= 0.121~)
p78
ss(Vimage
p79
tp80
(dp81
Vtype
p82
Vplain
p83
sVinitramfs-generators
p84
(lp85
Vinitramfs-tools
p86
aVinitramfs-fallback
p87
ass(Vabi
p88
tp89
(dp90
Vabiname
p91
V1.slh.2
p92
ss(Vxen
p93
g33
Vnone
p94
Vaptosid-amd64
p95
tp96
(dp97
Vflavours
p98
(lp99
Vaptosid-amd64
p100
ass(Vbase
p101
tp102
(dp103
Vcompiler
p104
Vgcc-5
p105
sVfeaturesets
p106
(lp107
Vnone
p108
asVarches
p109
(lp110
Vamd64
p111
aVi386
p112
ass(Vbase
p113
g33
g94
tp114
(dp115
g9
(lp116
Vaptosid-amd64
p117
asg12
I01
ss(Vimage
p118
g5
tp119
(dp120
Vsuggests
p121
Vcrda
p122
sVconfigs
p123
(lp124
sVinstall-stem
p125
Vvmlinuz
p126
sVbootloaders
p127
(lp128
Vgrub-pc
p129
aVextlinux
p130
aVgrub-efi-ia32
p131
ass(Vdescription
p132
g33
g94
Vaptosid-amd64
p133
tp134
(dp135
Vparts
p136
(lp137
Vxen
p138
ass(Vimage
p139
g33
NVaptosid-amd64
p140
tp141
(dp142
Vconfigs
p143
(lp144
Vkernelarch-x86/config-arch-64
p145
ass(Vbuild
p146
g5
tp147
(dp148
Vimage-file
p149
Varch/x86/boot/bzImage
p150
sVdebug-info
p151
I00
ss(Vimage
p152
g5
NVaptosid-686
p153
tp154
(dp155
Vconfigs
p156
(lp157
Vkernelarch-x86/config-arch-32
p158
asVrecommends
p159
Vlibc6-i686
p160
ss(Vbase
p161
g33
tp162
(dp163
Vkernel-arch
p164
Vx86
p165
sVfeaturesets
p166
(lp167
g31
ag94
ass(Vbuild
p168
g33
tp169
(dp170
Vimage-file
p171
Varch/x86/boot/bzImage
p172
sVdebug-info
p173
I00
sstp174
Rp175
.