ccopy_reg
_reconstructor
p0
(cdebian_linux.config
ConfigCore
p1
c__builtin__
dict
p2
(dp3
(Vimage
p4
Vi386
p5
tp6
(dp7
Vinstall-stem
p8
Vvmlinuz
p9
sVsuggests
p10
Vcrda
p11
sVbootloaders
p12
(lp13
Vgrub-pc
p14
aVextlinux
p15
aVgrub-efi-ia32
p16
asVconfigs
p17
(lp18
ss(Vimage
p19
Vamd64
p20
tp21
(dp22
Vinstall-stem
p23
Vvmlinuz
p24
sVsuggests
p25
Vcrda
p26
sVbootloaders
p27
(lp28
Vgrub-pc
p29
aVextlinux
p30
aVgrub-efi-amd64
p31
asVconfigs
p32
(lp33
ss(Vdescription
p34
tp35
(dp36
Vpart-long-up
p37
VThis kernel is not suitable for SMP (multi-processor,\u000amulti-core or hyper-threaded) systems.
p38
sVpart-long-xen
p39
VThis kernel also runs on a Xen hypervisor.\u000aIt supports both privileged (dom0) and unprivileged (domU) operation.
p40
ss(Vbase
p41
g5
tp42
(dp43
Vfeaturesets
p44
(lp45
Vnone
p46
aVnone
p47
asVkernel-arch
p48
Vx86
p49
ss(Vbase
p50
g20
tp51
(dp52
Vfeaturesets
p53
(lp54
g46
aVnone
p55
asVkernel-arch
p56
Vx86
p57
ss(Vdescription
p58
g5
NVaptosid-686
p59
tp60
(dp61
Vhardware
p62
Vmodern PCs
p63
sVhardware-long
p64
VPCs with Intel Pentium Pro/II/III/4/4M/D/M, Xeon, Celeron, Core or Atom; AMD Geode LX/NX, Athlon (K7), Duron, Opteron, Sempron, Turion or Phenom; Transmeta Efficeon; VIA C3 "Nehemiah" or C7 processors
p65
ss(Vbuild
p66
g5
tp67
(dp68
Vdebug-info
p69
I00
sVimage-file
p70
Varch/x86/boot/bzImage
p71
ss(Vimage
p72
g20
NVaptosid-amd64
p73
tp74
(dp75
Vconfigs
p76
(lp77
Vkernelarch-x86/config-arch-64
p78
ass(Vbuild
p79
g20
tp80
(dp81
Vdebug-info
p82
I00
sVimage-file
p83
Varch/x86/boot/bzImage
p84
ss(Vdescription
p85
g20
NVaptosid-amd64
p86
tp87
(dp88
Vhardware
p89
V64-bit PCs
p90
sVhardware-long
p91
VPCs with AMD64 or Intel 64 processors
p92
ss(Vimage
p93
g5
NVaptosid-686
p94
tp95
(dp96
Vrecommends
p97
Vlibc6-i686
p98
sVconfigs
p99
(lp100
Vkernelarch-x86/config-arch-32
p101
ass(Vrelations
p102
tp103
(dp104
Vgcc-5
p105
Vgcc-5
p106
sVinitramfs-tools
p107
Vinitramfs-tools (>= 0.121~)
p108
sVinitramfs-fallback
p109
Vlinux-initramfs-tool
p110
ss(Vversion
p111
tp112
(dp113
Vabiname
p114
V4.6.0-2.slh.2
p115
sVsource
p116
V4.6-7
p117
sVabiname_base
p118
V4.6.0
p119
sVupstream
p120
V4.6
p121
ss(Vxen
p122
g20
g55
Vaptosid-amd64
p123
tp124
(dp125
Vflavours
p126
(lp127
Vaptosid-amd64
p128
ass(Vbase
p129
tp130
(dp131
Vfeaturesets
p132
(lp133
Vnone
p134
asVarches
p135
(lp136
Vamd64
p137
aVi386
p138
asVcompiler
p139
Vgcc-5
p140
ss(Vabi
p141
tp142
(dp143
Vabiname
p144
V2.slh.2
p145
ss(Vimage
p146
tp147
(dp148
Vinitramfs-generators
p149
(lp150
Vinitramfs-tools
p151
aVinitramfs-fallback
p152
asVtype
p153
Vplain
p154
ss(Vbase
p155
g20
g55
tp156
(dp157
Vimplicit-flavour
p158
I01
sVflavours
p159
(lp160
Vaptosid-amd64
p161
ass(Vdescription
p162
g20
g55
Vaptosid-amd64
p163
tp164
(dp165
Vparts
p166
(lp167
Vxen
p168
ass(Vbase
p169
g5
g47
tp170
(dp171
g158
I01
sg159
(lp172
Vaptosid-686
p173
asstp174
Rp175
.