ccopy_reg
_reconstructor
p0
(cdebian_linux.config
ConfigCore
p1
c__builtin__
dict
p2
(dp3
(Vimage
p4
Vi386
p5
NVaptosid-686
p6
tp7
(dp8
Vrecommends
p9
Vlibc6-i686
p10
sVconfigs
p11
(lp12
Vkernelarch-x86/config-arch-32
p13
ass(Vbase
p14
Vamd64
p15
tp16
(dp17
Vkernel-arch
p18
Vx86
p19
sVfeaturesets
p20
(lp21
Vnone
p22
aVnone
p23
ass(Vbase
p24
g15
g23
tp25
(dp26
Vimplicit-flavour
p27
I01
sVflavours
p28
(lp29
Vaptosid-amd64
p30
ass(Vbase
p31
tp32
(dp33
Vcompiler
p34
Vgcc-5
p35
sVarches
p36
(lp37
Vamd64
p38
aVi386
p39
asVfeaturesets
p40
(lp41
Vnone
p42
ass(Vdescription
p43
g15
NVaptosid-amd64
p44
tp45
(dp46
Vhardware
p47
V64-bit PCs
p48
sVhardware-long
p49
VPCs with AMD64 or Intel 64 processors
p50
ss(Vxen
p51
g15
g23
Vaptosid-amd64
p52
tp53
(dp54
Vflavours
p55
(lp56
Vaptosid-amd64
p57
ass(Vbase
p58
g5
Vnone
p59
tp60
(dp61
g27
I01
sg28
(lp62
Vaptosid-686
p63
ass(Vimage
p64
g15
NVaptosid-amd64
p65
tp66
(dp67
Vconfigs
p68
(lp69
Vkernelarch-x86/config-arch-64
p70
ass(Vdescription
p71
g15
g23
Vaptosid-amd64
p72
tp73
(dp74
Vparts
p75
(lp76
Vxen
p77
ass(Vimage
p78
g5
tp79
(dp80
Vsuggests
p81
Vcrda
p82
sVinstall-stem
p83
Vvmlinuz
p84
sVbootloaders
p85
(lp86
Vgrub-pc
p87
aVextlinux
p88
aVgrub-efi-ia32
p89
asVconfigs
p90
(lp91
ss(Vbuild
p92
g5
tp93
(dp94
Vimage-file
p95
Varch/x86/boot/bzImage
p96
sVdebug-info
p97
I00
ss(Vimage
p98
g15
tp99
(dp100
Vsuggests
p101
Vcrda
p102
sVinstall-stem
p103
Vvmlinuz
p104
sVbootloaders
p105
(lp106
Vgrub-pc
p107
aVextlinux
p108
aVgrub-efi-amd64
p109
asVconfigs
p110
(lp111
ss(Vabi
p112
tp113
(dp114
Vabiname
p115
V0.slh.5
p116
ss(Vbase
p117
g5
tp118
(dp119
Vkernel-arch
p120
Vx86
p121
sVfeaturesets
p122
(lp123
g22
ag59
ass(Vdescription
p124
g5
NVaptosid-686
p125
tp126
(dp127
Vhardware
p128
Vmodern PCs
p129
sVhardware-long
p130
VPCs with Intel Pentium Pro/II/III/4/4M/D/M, Xeon, Celeron, Core or Atom; AMD Geode LX/NX, Athlon (K7), Duron, Opteron, Sempron, Turion or Phenom; Transmeta Efficeon; VIA C3 "Nehemiah" or C7 processors
p131
ss(Vimage
p132
tp133
(dp134
Vinitramfs-generators
p135
(lp136
Vinitramfs-tools
p137
aVinitramfs-fallback
p138
asVtype
p139
Vplain
p140
ss(Vversion
p141
tp142
(dp143
Vabiname_base
p144
V4.3.0
p145
sVsource
p146
V4.3-5
p147
sVabiname
p148
V4.3.0-0.slh.5
p149
sVupstream
p150
V4.3
p151
ss(Vbuild
p152
g15
tp153
(dp154
Vimage-file
p155
Varch/x86/boot/bzImage
p156
sVdebug-info
p157
I00
ss(Vdescription
p158
tp159
(dp160
Vpart-long-xen
p161
VThis kernel also runs on a Xen hypervisor.\u000aIt supports both privileged (dom0) and unprivileged (domU) operation.
p162
sVpart-long-up
p163
VThis kernel is not suitable for SMP (multi-processor,\u000amulti-core or hyper-threaded) systems.
p164
ss(Vrelations
p165
tp166
(dp167
Vinitramfs-fallback
p168
Vlinux-initramfs-tool
p169
sVgcc-5
p170
Vgcc-5
p171
sVinitramfs-tools
p172
Vinitramfs-tools (>= 0.118+c0.aptosid.1~)
p173
sstp174
Rp175
.