ccopy_reg
_reconstructor
p0
(cdebian_linux.config
ConfigCore
p1
c__builtin__
dict
p2
(dp3
(Vversion
p4
tp5
(dp6
Vsource
p7
V4.12-2
p8
sVabiname
p9
V4.12.0-0.slh.2
p10
sVupstream
p11
V4.12
p12
sVabiname_base
p13
V4.12.0
p14
ss(Vdescription
p15
tp16
(dp17
Vpart-long-xen
p18
VThis kernel also runs on a Xen hypervisor.\u000aIt supports both privileged (dom0) and unprivileged (domU) operation.
p19
sVpart-long-up
p20
VThis kernel is not suitable for SMP (multi-processor,\u000amulti-core or hyper-threaded) systems.
p21
ss(Vimage
p22
tp23
(dp24
Vinitramfs-generators
p25
(lp26
Vinitramfs-tools
p27
aVinitramfs-fallback
p28
ass(Vbase
p29
Vi386
p30
Vnone
p31
tp32
(dp33
Vflavours
p34
(lp35
Vaptosid-686
p36
asVimplicit-flavour
p37
I01
ss(Vbase
p38
Vamd64
p39
tp40
(dp41
Vfeaturesets
p42
(lp43
Vnone
p44
aVnone
p45
asVkernel-arch
p46
Vx86
p47
ss(Vimage
p48
g30
tp49
(dp50
Vbootloaders
p51
(lp52
Vgrub-pc
p53
aVextlinux
p54
aVgrub-efi-ia32
p55
asVinstall-stem
p56
Vvmlinuz
p57
sVbreaks
p58
Vxserver-xorg-input-vmmouse (<< 1:13.0.99)
p59
sVsuggests
p60
Vcrda
p61
ss(Vbase
p62
g39
g45
tp63
(dp64
g34
(lp65
Vaptosid-amd64
p66
asg37
I01
ss(Vimage
p67
g39
tp68
(dp69
Vbootloaders
p70
(lp71
Vgrub-pc
p72
aVextlinux
p73
aVgrub-efi-amd64
p74
asVinstall-stem
p75
Vvmlinuz
p76
sVbreaks
p77
Vxserver-xorg-input-vmmouse (<< 1:13.0.99)
p78
sVsuggests
p79
Vcrda
p80
ss(Vrelations
p81
tp82
(dp83
Vinitramfs-fallback
p84
Vlinux-initramfs-tool
p85
sVinitramfs-tools
p86
Vinitramfs-tools (>= 0.121~)
p87
sVgcc-6
p88
Vgcc-6
p89
ss(Vbuild
p90
g39
tp91
(dp92
Vdebug-info
p93
I00
sVimage-file
p94
Varch/x86/boot/bzImage
p95
ss(Vdescription
p96
g39
NVaptosid-amd64
p97
tp98
(dp99
Vhardware
p100
V64-bit PCs
p101
sVhardware-long
p102
VPCs with AMD64 or Intel 64 processors
p103
ss(Vabi
p104
tp105
(dp106
Vabiname
p107
V0.slh.2
p108
ss(Vdescription
p109
g39
g45
Vaptosid-amd64
p110
tp111
(dp112
Vparts
p113
(lp114
Vxen
p115
ass(Vbuild
p116
g30
tp117
(dp118
Vdebug-info
p119
I00
sVimage-file
p120
Varch/x86/boot/bzImage
p121
ss(Vdescription
p122
g30
NVaptosid-686
p123
tp124
(dp125
Vhardware
p126
Vmodern PCs
p127
sVhardware-long
p128
VPCs with Intel Pentium Pro/II/III/4/4M/D/M, Xeon, Celeron, Core or Atom; AMD Geode LX/NX, Athlon (K7), Duron, Opteron, Sempron, Turion or Phenom; Transmeta Efficeon; VIA C3 "Nehemiah" or C7 processors
p129
ss(Vbase
p130
g30
tp131
(dp132
Vfeaturesets
p133
(lp134
g44
ag31
asVkernel-arch
p135
Vx86
p136
ss(Vbase
p137
tp138
(dp139
Vfeaturesets
p140
(lp141
Vnone
p142
asVarches
p143
(lp144
Vamd64
p145
aVi386
p146
asVcompiler
p147
Vgcc-6
p148
sstp149
Rp150
.