ccopy_reg
_reconstructor
p0
(cdebian_linux.config
ConfigCore
p1
c__builtin__
dict
p2
(dp3
(Vimage
p4
Vamd64
p5
tp6
(dp7
Vsuggests
p8
Vcrda
p9
sVconfigs
p10
(lp11
sVinstall-stem
p12
Vvmlinuz
p13
sVbootloaders
p14
(lp15
Vgrub-pc
p16
aVextlinux
p17
aVgrub-efi-amd64
p18
ass(Vbase
p19
g5
tp20
(dp21
Vfeaturesets
p22
(lp23
Vnone
p24
aVnone
p25
asVkernel-arch
p26
Vx86
p27
ss(Vbase
p28
Vi386
p29
Vnone
p30
tp31
(dp32
Vimplicit-flavour
p33
I01
sVflavours
p34
(lp35
Vaptosid-686
p36
ass(Vdescription
p37
g5
g25
Vaptosid-amd64
p38
tp39
(dp40
Vparts
p41
(lp42
Vxen
p43
ass(Vbuild
p44
g29
tp45
(dp46
Vimage-file
p47
Varch/x86/boot/bzImage
p48
sVdebug-info
p49
I00
ss(Vimage
p50
g29
tp51
(dp52
Vsuggests
p53
Vcrda
p54
sVconfigs
p55
(lp56
sVinstall-stem
p57
Vvmlinuz
p58
sVbootloaders
p59
(lp60
Vgrub-pc
p61
aVextlinux
p62
aVgrub-efi-ia32
p63
ass(Vdescription
p64
g29
NVaptosid-686
p65
tp66
(dp67
Vhardware-long
p68
VPCs with Intel Pentium Pro/II/III/4/4M/D/M, Xeon, Celeron, Core or Atom; AMD Geode LX/NX, Athlon (K7), Duron, Opteron, Sempron, Turion or Phenom; Transmeta Efficeon; VIA C3 "Nehemiah" or C7 processors
p69
sVhardware
p70
Vmodern PCs
p71
ss(Vimage
p72
tp73
(dp74
Vinitramfs-generators
p75
(lp76
Vinitramfs-tools
p77
aVinitramfs-fallback
p78
asVtype
p79
Vplain
p80
ss(Vimage
p81
g5
NVaptosid-amd64
p82
tp83
(dp84
Vconfigs
p85
(lp86
Vkernelarch-x86/config-arch-64
p87
ass(Vbuild
p88
g5
tp89
(dp90
Vimage-file
p91
Varch/x86/boot/bzImage
p92
sVdebug-info
p93
I00
ss(Vrelations
p94
tp95
(dp96
Vinitramfs-fallback
p97
Vlinux-initramfs-tool
p98
sVinitramfs-tools
p99
Vinitramfs-tools (>= 0.118+c0.aptosid.1~)
p100
sVgcc-5
p101
Vgcc-5
p102
ss(Vbase
p103
g29
tp104
(dp105
Vfeaturesets
p106
(lp107
g24
ag30
asVkernel-arch
p108
Vx86
p109
ss(Vbase
p110
tp111
(dp112
Vcompiler
p113
Vgcc-5
p114
sVfeaturesets
p115
(lp116
Vnone
p117
asVarches
p118
(lp119
Vamd64
p120
aVi386
p121
ass(Vversion
p122
tp123
(dp124
Vsource
p125
V4.3-4
p126
sVabiname_base
p127
V4.3.0
p128
sVabiname
p129
V4.3.0-0.slh.4
p130
sVupstream
p131
V4.3
p132
ss(Vabi
p133
tp134
(dp135
Vabiname
p136
V0.slh.4
p137
ss(Vdescription
p138
g5
NVaptosid-amd64
p139
tp140
(dp141
Vhardware-long
p142
VPCs with AMD64 or Intel 64 processors
p143
sVhardware
p144
V64-bit PCs
p145
ss(Vdescription
p146
tp147
(dp148
Vpart-long-up
p149
VThis kernel is not suitable for SMP (multi-processor,\u000amulti-core or hyper-threaded) systems.
p150
sVpart-long-xen
p151
VThis kernel also runs on a Xen hypervisor.\u000aIt supports both privileged (dom0) and unprivileged (domU) operation.
p152
ss(Vbase
p153
g5
g25
tp154
(dp155
g33
I01
sg34
(lp156
Vaptosid-amd64
p157
ass(Vimage
p158
g29
NVaptosid-686
p159
tp160
(dp161
Vrecommends
p162
Vlibc6-i686
p163
sVconfigs
p164
(lp165
Vkernelarch-x86/config-arch-32
p166
ass(Vxen
p167
g5
g25
Vaptosid-amd64
p168
tp169
(dp170
Vflavours
p171
(lp172
Vaptosid-amd64
p173
asstp174
Rp175
.