ccopy_reg
_reconstructor
p0
(cdebian_linux.config
ConfigCore
p1
c__builtin__
dict
p2
(dp3
(Vxen
p4
Vamd64
p5
Vnone
p6
Vaptosid-amd64
p7
tp8
(dp9
Vflavours
p10
(lp11
Vaptosid-amd64
p12
ass(Vabi
p13
tp14
(dp15
Vabiname
p16
V7.slh.2
p17
ss(Vimage
p18
tp19
(dp20
Vinitramfs-generators
p21
(lp22
Vinitramfs-tools
p23
aVinitramfs-fallback
p24
ass(Vimage
p25
g5
tp26
(dp27
Vbreaks
p28
Vxserver-xorg-input-vmmouse (<< 1:13.0.99)
p29
sVbootloaders
p30
(lp31
Vgrub-pc
p32
aVextlinux
p33
aVgrub-efi-amd64
p34
asVinstall-stem
p35
Vvmlinuz
p36
sVsuggests
p37
Vcrda
p38
ss(Vdescription
p39
g5
g6
Vaptosid-amd64
p40
tp41
(dp42
Vparts
p43
(lp44
Vxen
p45
ass(Vdescription
p46
g5
NVaptosid-amd64
p47
tp48
(dp49
Vhardware-long
p50
VPCs with AMD64 or Intel 64 processors
p51
sVhardware
p52
V64-bit PCs
p53
ss(Vbase
p54
tp55
(dp56
Varches
p57
(lp58
Vamd64
p59
aVi386
p60
asVcompiler
p61
Vgcc-6
p62
sVfeaturesets
p63
(lp64
Vnone
p65
ass(Vversion
p66
tp67
(dp68
Vsource
p69
V4.8-12
p70
sVabiname
p71
V4.8.0-7.slh.2
p72
sVabiname_base
p73
V4.8.0
p74
sVupstream
p75
V4.8
p76
ss(Vbase
p77
g5
g6
tp78
(dp79
Vimplicit-flavour
p80
I01
sVflavours
p81
(lp82
Vaptosid-amd64
p83
ass(Vbuild
p84
Vi386
p85
tp86
(dp87
Vdebug-info
p88
I00
sVimage-file
p89
Varch/x86/boot/bzImage
p90
ss(Vrelations
p91
tp92
(dp93
Vinitramfs-tools
p94
Vinitramfs-tools (>= 0.121~)
p95
sVinitramfs-fallback
p96
Vlinux-initramfs-tool
p97
sVgcc-6
p98
Vgcc-6
p99
ss(Vbase
p100
g85
Vnone
p101
tp102
(dp103
g80
I01
sg81
(lp104
Vaptosid-686
p105
ass(Vbuild
p106
g5
tp107
(dp108
Vdebug-info
p109
I00
sVimage-file
p110
Varch/x86/boot/bzImage
p111
ss(Vbase
p112
g85
tp113
(dp114
Vkernel-arch
p115
Vx86
p116
sVfeaturesets
p117
(lp118
Vnone
p119
ag101
ass(Vdescription
p120
g85
NVaptosid-686
p121
tp122
(dp123
Vhardware-long
p124
VPCs with Intel Pentium Pro/II/III/4/4M/D/M, Xeon, Celeron, Core or Atom; AMD Geode LX/NX, Athlon (K7), Duron, Opteron, Sempron, Turion or Phenom; Transmeta Efficeon; VIA C3 "Nehemiah" or C7 processors
p125
sVhardware
p126
Vmodern PCs
p127
ss(Vdescription
p128
tp129
(dp130
Vpart-long-up
p131
VThis kernel is not suitable for SMP (multi-processor,\u000amulti-core or hyper-threaded) systems.
p132
sVpart-long-xen
p133
VThis kernel also runs on a Xen hypervisor.\u000aIt supports both privileged (dom0) and unprivileged (domU) operation.
p134
ss(Vbase
p135
g5
tp136
(dp137
Vkernel-arch
p138
Vx86
p139
sVfeaturesets
p140
(lp141
g119
ag6
ass(Vimage
p142
g85
tp143
(dp144
Vbreaks
p145
Vxserver-xorg-input-vmmouse (<< 1:13.0.99)
p146
sVbootloaders
p147
(lp148
Vgrub-pc
p149
aVextlinux
p150
aVgrub-efi-ia32
p151
asVinstall-stem
p152
Vvmlinuz
p153
sVsuggests
p154
Vcrda
p155
sstp156
Rp157
.