ccopy_reg
_reconstructor
p0
(cdebian_linux.config
ConfigCore
p1
c__builtin__
dict
p2
(dp3
(Vimage
p4
tp5
(dp6
Vinitramfs-generators
p7
(lp8
Vinitramfs-tools
p9
aVinitramfs-fallback
p10
ass(Vbase
p11
Vi386
p12
tp13
(dp14
Vfeaturesets
p15
(lp16
Vnone
p17
aVnone
p18
asVkernel-arch
p19
Vx86
p20
ss(Vdescription
p21
tp22
(dp23
Vpart-long-up
p24
VThis kernel is not suitable for SMP (multi-processor,\u000amulti-core or hyper-threaded) systems.
p25
sVpart-long-xen
p26
VThis kernel also runs on a Xen hypervisor.\u000aIt supports both privileged (dom0) and unprivileged (domU) operation.
p27
ss(Vdescription
p28
Vamd64
p29
NVaptosid-amd64
p30
tp31
(dp32
Vhardware-long
p33
VPCs with AMD64 or Intel 64 processors
p34
sVhardware
p35
V64-bit PCs
p36
ss(Vbuild
p37
g29
tp38
(dp39
Vimage-file
p40
Varch/x86/boot/bzImage
p41
sVdebug-info
p42
I00
ss(Vbase
p43
g29
Vnone
p44
tp45
(dp46
Vimplicit-flavour
p47
I01
sVflavours
p48
(lp49
Vaptosid-amd64
p50
ass(Vdescription
p51
g12
NVaptosid-686
p52
tp53
(dp54
Vhardware-long
p55
VPCs with Intel Pentium Pro/II/III/4/4M/D/M, Xeon, Celeron, Core or Atom; AMD Geode LX/NX, Athlon (K7), Duron, Opteron, Sempron, Turion or Phenom; Transmeta Efficeon; VIA C3 "Nehemiah" or C7 processors
p56
sVhardware
p57
Vmodern PCs
p58
ss(Vimage
p59
g29
tp60
(dp61
Vinstall-stem
p62
Vvmlinuz
p63
sVbreaks
p64
Vxserver-xorg-input-vmmouse (<< 1:13.0.99)
p65
sVbootloaders
p66
(lp67
Vgrub-pc
p68
aVextlinux
p69
aVgrub-efi-amd64
p70
asVsuggests
p71
Vcrda
p72
ss(Vbase
p73
tp74
(dp75
Varches
p76
(lp77
Vamd64
p78
aVi386
p79
asVfeaturesets
p80
(lp81
Vnone
p82
asVcompiler
p83
Vgcc-6
p84
ss(Vversion
p85
tp86
(dp87
Vabiname_base
p88
V4.10.0
p89
sVabiname
p90
V4.10.0-0.slh.3
p91
sVupstream
p92
V4.10
p93
sVsource
p94
V4.10-3
p95
ss(Vabi
p96
tp97
(dp98
Vabiname
p99
V0.slh.3
p100
ss(Vrelations
p101
tp102
(dp103
Vinitramfs-fallback
p104
Vlinux-initramfs-tool
p105
sVgcc-6
p106
Vgcc-6
p107
sVinitramfs-tools
p108
Vinitramfs-tools (>= 0.121~)
p109
ss(Vbuild
p110
g12
tp111
(dp112
Vimage-file
p113
Varch/x86/boot/bzImage
p114
sVdebug-info
p115
I00
ss(Vdescription
p116
g29
g44
Vaptosid-amd64
p117
tp118
(dp119
Vparts
p120
(lp121
Vxen
p122
ass(Vbase
p123
g12
g18
tp124
(dp125
g47
I01
sg48
(lp126
Vaptosid-686
p127
ass(Vbase
p128
g29
tp129
(dp130
Vfeaturesets
p131
(lp132
g17
ag44
asVkernel-arch
p133
Vx86
p134
ss(Vimage
p135
g12
tp136
(dp137
Vinstall-stem
p138
Vvmlinuz
p139
sVbreaks
p140
Vxserver-xorg-input-vmmouse (<< 1:13.0.99)
p141
sVbootloaders
p142
(lp143
Vgrub-pc
p144
aVextlinux
p145
aVgrub-efi-ia32
p146
asVsuggests
p147
Vcrda
p148
sstp149
Rp150
.