ccopy_reg
_reconstructor
p0
(cdebian_linux.config
ConfigCore
p1
c__builtin__
dict
p2
(dp3
(Vdescription
p4
tp5
(dp6
Vpart-long-up
p7
VThis kernel is not suitable for SMP (multi-processor,\u000amulti-core or hyper-threaded) systems.
p8
sVpart-long-xen
p9
VThis kernel also runs on a Xen hypervisor.\u000aIt supports both privileged (dom0) and unprivileged (domU) operation.
p10
ss(Vrelations
p11
tp12
(dp13
Vgcc-6
p14
Vgcc-6
p15
sVinitramfs-tools
p16
Vinitramfs-tools (>= 0.121~)
p17
sVinitramfs-fallback
p18
Vlinux-initramfs-tool
p19
ss(Vbase
p20
Vamd64
p21
Vnone
p22
tp23
(dp24
Vflavours
p25
(lp26
Vaptosid-amd64
p27
asVimplicit-flavour
p28
I01
ss(Vimage
p29
tp30
(dp31
Vinitramfs-generators
p32
(lp33
Vinitramfs-tools
p34
aVinitramfs-fallback
p35
ass(Vxen
p36
g21
g22
Vaptosid-amd64
p37
tp38
(dp39
Vflavours
p40
(lp41
Vaptosid-amd64
p42
ass(Vbase
p43
Vi386
p44
tp45
(dp46
Vfeaturesets
p47
(lp48
Vnone
p49
aVnone
p50
asVkernel-arch
p51
Vx86
p52
ss(Vimage
p53
g44
tp54
(dp55
Vsuggests
p56
Vcrda
p57
sVinstall-stem
p58
Vvmlinuz
p59
sVbootloaders
p60
(lp61
Vgrub-pc
p62
aVextlinux
p63
aVgrub-efi-ia32
p64
asVbreaks
p65
Vxserver-xorg-input-vmmouse (<< 1:13.0.99)
p66
ss(Vbuild
p67
g44
tp68
(dp69
Vdebug-info
p70
I00
sVimage-file
p71
Varch/x86/boot/bzImage
p72
ss(Vimage
p73
g21
tp74
(dp75
Vsuggests
p76
Vcrda
p77
sVinstall-stem
p78
Vvmlinuz
p79
sVbootloaders
p80
(lp81
Vgrub-pc
p82
aVextlinux
p83
aVgrub-efi-amd64
p84
asVbreaks
p85
Vxserver-xorg-input-vmmouse (<< 1:13.0.99)
p86
ss(Vbase
p87
g44
g50
tp88
(dp89
g25
(lp90
Vaptosid-686
p91
asg28
I01
ss(Vversion
p92
tp93
(dp94
Vabiname
p95
V4.8.0-9.slh.1
p96
sVupstream
p97
V4.8
p98
sVsource
p99
V4.8-13
p100
sVabiname_base
p101
V4.8.0
p102
ss(Vbase
p103
g21
tp104
(dp105
Vfeaturesets
p106
(lp107
g49
ag22
asVkernel-arch
p108
Vx86
p109
ss(Vdescription
p110
g21
NVaptosid-amd64
p111
tp112
(dp113
Vhardware-long
p114
VPCs with AMD64 or Intel 64 processors
p115
sVhardware
p116
V64-bit PCs
p117
ss(Vdescription
p118
g21
g22
Vaptosid-amd64
p119
tp120
(dp121
Vparts
p122
(lp123
Vxen
p124
ass(Vbase
p125
tp126
(dp127
Varches
p128
(lp129
Vamd64
p130
aVi386
p131
asVfeaturesets
p132
(lp133
Vnone
p134
asVcompiler
p135
Vgcc-6
p136
ss(Vdescription
p137
g44
NVaptosid-686
p138
tp139
(dp140
Vhardware-long
p141
VPCs with Intel Pentium Pro/II/III/4/4M/D/M, Xeon, Celeron, Core or Atom; AMD Geode LX/NX, Athlon (K7), Duron, Opteron, Sempron, Turion or Phenom; Transmeta Efficeon; VIA C3 "Nehemiah" or C7 processors
p142
sVhardware
p143
Vmodern PCs
p144
ss(Vbuild
p145
g21
tp146
(dp147
Vdebug-info
p148
I00
sVimage-file
p149
Varch/x86/boot/bzImage
p150
ss(Vabi
p151
tp152
(dp153
Vabiname
p154
V9.slh.1
p155
sstp156
Rp157
.