ccopy_reg
_reconstructor
p0
(cdebian_linux.config
ConfigCore
p1
c__builtin__
dict
p2
(dp3
(Vdescription
p4
tp5
(dp6
Vpart-long-up
p7
VThis kernel is not suitable for SMP (multi-processor,\u000amulti-core or hyper-threaded) systems.
p8
sVpart-long-xen
p9
VThis kernel also runs on a Xen hypervisor.\u000aIt supports both privileged (dom0) and unprivileged (domU) operation.
p10
ss(Vbase
p11
Vi386
p12
Vnone
p13
tp14
(dp15
Vimplicit-flavour
p16
I01
sVflavours
p17
(lp18
Vaptosid-686
p19
ass(Vdescription
p20
Vamd64
p21
NVaptosid-amd64
p22
tp23
(dp24
Vhardware
p25
V64-bit PCs
p26
sVhardware-long
p27
VPCs with AMD64 or Intel 64 processors
p28
ss(Vbuild
p29
g21
tp30
(dp31
Vdebug-info
p32
I00
sVimage-file
p33
Varch/x86/boot/bzImage
p34
ss(Vxen
p35
g21
Vnone
p36
Vaptosid-amd64
p37
tp38
(dp39
Vflavours
p40
(lp41
Vaptosid-amd64
p42
ass(Vversion
p43
tp44
(dp45
Vsource
p46
V4.8-23
p47
sVabiname_base
p48
V4.8.0
p49
sVupstream
p50
V4.8
p51
sVabiname
p52
V4.8.0-13.slh.2
p53
ss(Vbase
p54
g12
tp55
(dp56
Vfeaturesets
p57
(lp58
Vnone
p59
ag13
asVkernel-arch
p60
Vx86
p61
ss(Vbase
p62
tp63
(dp64
Vcompiler
p65
Vgcc-6
p66
sVfeaturesets
p67
(lp68
Vnone
p69
asVarches
p70
(lp71
Vamd64
p72
aVi386
p73
ass(Vbase
p74
g21
g36
tp75
(dp76
g16
I01
sg17
(lp77
Vaptosid-amd64
p78
ass(Vbase
p79
g21
tp80
(dp81
Vfeaturesets
p82
(lp83
g59
ag36
asVkernel-arch
p84
Vx86
p85
ss(Vimage
p86
g12
tp87
(dp88
Vsuggests
p89
Vcrda
p90
sVinstall-stem
p91
Vvmlinuz
p92
sVbootloaders
p93
(lp94
Vgrub-pc
p95
aVextlinux
p96
aVgrub-efi-ia32
p97
asVbreaks
p98
Vxserver-xorg-input-vmmouse (<< 1:13.0.99)
p99
ss(Vrelations
p100
tp101
(dp102
Vinitramfs-tools
p103
Vinitramfs-tools (>= 0.121~)
p104
sVgcc-6
p105
Vgcc-6
p106
sVinitramfs-fallback
p107
Vlinux-initramfs-tool
p108
ss(Vimage
p109
tp110
(dp111
Vinitramfs-generators
p112
(lp113
Vinitramfs-tools
p114
aVinitramfs-fallback
p115
ass(Vbuild
p116
g12
tp117
(dp118
Vdebug-info
p119
I00
sVimage-file
p120
Varch/x86/boot/bzImage
p121
ss(Vabi
p122
tp123
(dp124
Vabiname
p125
V13.slh.2
p126
ss(Vimage
p127
g21
tp128
(dp129
Vsuggests
p130
Vcrda
p131
sVinstall-stem
p132
Vvmlinuz
p133
sVbootloaders
p134
(lp135
Vgrub-pc
p136
aVextlinux
p137
aVgrub-efi-amd64
p138
asVbreaks
p139
Vxserver-xorg-input-vmmouse (<< 1:13.0.99)
p140
ss(Vdescription
p141
g12
NVaptosid-686
p142
tp143
(dp144
Vhardware
p145
Vmodern PCs
p146
sVhardware-long
p147
VPCs with Intel Pentium Pro/II/III/4/4M/D/M, Xeon, Celeron, Core or Atom; AMD Geode LX/NX, Athlon (K7), Duron, Opteron, Sempron, Turion or Phenom; Transmeta Efficeon; VIA C3 "Nehemiah" or C7 processors
p148
ss(Vdescription
p149
g21
g36
Vaptosid-amd64
p150
tp151
(dp152
Vparts
p153
(lp154
Vxen
p155
asstp156
Rp157
.