ccopy_reg
_reconstructor
p0
(cdebian_linux.config
ConfigCore
p1
c__builtin__
dict
p2
(dp3
(Vimage
p4
Vi386
p5
tp6
(dp7
Vinstall-stem
p8
Vvmlinuz
p9
sVbreaks
p10
Vxserver-xorg-input-vmmouse (<< 1:13.0.99)
p11
sVbootloaders
p12
(lp13
Vgrub-pc
p14
aVextlinux
p15
aVgrub-efi-ia32
p16
asVsuggests
p17
Vcrda
p18
ss(Vrelations
p19
tp20
(dp21
Vinitramfs-fallback
p22
Vlinux-initramfs-tool
p23
sVgcc-7
p24
Vgcc-7
p25
sVinitramfs-tools
p26
Vinitramfs-tools (>= 0.121~)
p27
ss(Vdescription
p28
g5
NVaptosid-686
p29
tp30
(dp31
Vhardware
p32
Vmodern PCs
p33
sVhardware-long
p34
VPCs with Intel Pentium Pro/II/III/4/4M/D/M, Xeon, Celeron, Core or Atom; AMD Geode LX/NX, Athlon (K7), Duron, Opteron, Sempron, Turion or Phenom; Transmeta Efficeon; VIA C3 "Nehemiah" or C7 processors
p35
ss(Vbuild
p36
Vamd64
p37
tp38
(dp39
Vimage-file
p40
Varch/x86/boot/bzImage
p41
sVdebug-info
p42
I00
ss(Vimage
p43
tp44
(dp45
Vinitramfs-generators
p46
(lp47
Vinitramfs-tools
p48
aVinitramfs-fallback
p49
ass(Vabi
p50
tp51
(dp52
Vabiname
p53
V4.slh.1
p54
ss(Vbase
p55
tp56
(dp57
Vcompiler
p58
Vgcc-7
p59
sVfeaturesets
p60
(lp61
Vnone
p62
asVarches
p63
(lp64
Vamd64
p65
aVi386
p66
ass(Vbase
p67
g5
tp68
(dp69
Vfeaturesets
p70
(lp71
Vnone
p72
aVnone
p73
asVkernel-arch
p74
Vx86
p75
ss(Vbase
p76
g37
Vnone
p77
tp78
(dp79
Vimplicit-flavour
p80
I01
sVflavours
p81
(lp82
Vaptosid-amd64
p83
ass(Vimage
p84
g37
tp85
(dp86
Vinstall-stem
p87
Vvmlinuz
p88
sVbreaks
p89
Vxserver-xorg-input-vmmouse (<< 1:13.0.99)
p90
sVbootloaders
p91
(lp92
Vgrub-pc
p93
aVextlinux
p94
aVgrub-efi-amd64
p95
asVsuggests
p96
Vcrda
p97
ss(Vbase
p98
g5
g73
tp99
(dp100
g80
I01
sg81
(lp101
Vaptosid-686
p102
ass(Vbase
p103
g37
tp104
(dp105
Vfeaturesets
p106
(lp107
g72
ag77
asVkernel-arch
p108
Vx86
p109
ss(Vdescription
p110
g37
NVaptosid-amd64
p111
tp112
(dp113
Vhardware
p114
V64-bit PCs
p115
sVhardware-long
p116
VPCs with AMD64 or Intel 64 processors
p117
ss(Vbuild
p118
g5
tp119
(dp120
Vimage-file
p121
Varch/x86/boot/bzImage
p122
sVdebug-info
p123
I00
ss(Vversion
p124
tp125
(dp126
Vabiname
p127
V4.13.0-4.slh.1
p128
sVabiname_base
p129
V4.13.0
p130
sVsource
p131
V4.13-8
p132
sVupstream
p133
V4.13
p134
ss(Vdescription
p135
g37
g77
Vaptosid-amd64
p136
tp137
(dp138
Vparts
p139
(lp140
Vxen
p141
ass(Vdescription
p142
tp143
(dp144
Vpart-long-up
p145
VThis kernel is not suitable for SMP (multi-processor,\u000amulti-core or hyper-threaded) systems.
p146
sVpart-long-xen
p147
VThis kernel also runs on a Xen hypervisor.\u000aIt supports both privileged (dom0) and unprivileged (domU) operation.
p148
sstp149
Rp150
.