ccopy_reg
_reconstructor
p0
(cdebian_linux.config
ConfigCore
p1
c__builtin__
dict
p2
(dp3
(Vimage
p4
Vamd64
p5
tp6
(dp7
Vbreaks
p8
Vxserver-xorg-input-vmmouse (<< 1:13.0.99)
p9
sVinstall-stem
p10
Vvmlinuz
p11
sVbootloaders
p12
(lp13
Vgrub-pc
p14
aVextlinux
p15
aVgrub-efi-amd64
p16
asVsuggests
p17
Vcrda
p18
ss(Vdescription
p19
g5
Vnone
p20
Vaptosid-amd64
p21
tp22
(dp23
Vparts
p24
(lp25
Vxen
p26
ass(Vimage
p27
tp28
(dp29
Vinitramfs-generators
p30
(lp31
Vinitramfs-tools
p32
aVinitramfs-fallback
p33
ass(Vversion
p34
tp35
(dp36
Vabiname_base
p37
V4.8.0
p38
sVupstream
p39
V4.8
p40
sVabiname
p41
V4.8.0-8.slh.1
p42
sVsource
p43
V4.8-12
p44
ss(Vbase
p45
g5
tp46
(dp47
Vfeaturesets
p48
(lp49
Vnone
p50
ag20
asVkernel-arch
p51
Vx86
p52
ss(Vbase
p53
g5
g20
tp54
(dp55
Vimplicit-flavour
p56
I01
sVflavours
p57
(lp58
Vaptosid-amd64
p59
ass(Vxen
p60
g5
g20
Vaptosid-amd64
p61
tp62
(dp63
Vflavours
p64
(lp65
Vaptosid-amd64
p66
ass(Vbase
p67
Vi386
p68
tp69
(dp70
Vfeaturesets
p71
(lp72
g50
aVnone
p73
asVkernel-arch
p74
Vx86
p75
ss(Vdescription
p76
tp77
(dp78
Vpart-long-xen
p79
VThis kernel also runs on a Xen hypervisor.\u000aIt supports both privileged (dom0) and unprivileged (domU) operation.
p80
sVpart-long-up
p81
VThis kernel is not suitable for SMP (multi-processor,\u000amulti-core or hyper-threaded) systems.
p82
ss(Vabi
p83
tp84
(dp85
Vabiname
p86
V8.slh.1
p87
ss(Vdescription
p88
g5
NVaptosid-amd64
p89
tp90
(dp91
Vhardware
p92
V64-bit PCs
p93
sVhardware-long
p94
VPCs with AMD64 or Intel 64 processors
p95
ss(Vbuild
p96
g5
tp97
(dp98
Vimage-file
p99
Varch/x86/boot/bzImage
p100
sVdebug-info
p101
I00
ss(Vimage
p102
g68
tp103
(dp104
Vbreaks
p105
Vxserver-xorg-input-vmmouse (<< 1:13.0.99)
p106
sVinstall-stem
p107
Vvmlinuz
p108
sVbootloaders
p109
(lp110
Vgrub-pc
p111
aVextlinux
p112
aVgrub-efi-ia32
p113
asVsuggests
p114
Vcrda
p115
ss(Vbuild
p116
g68
tp117
(dp118
Vimage-file
p119
Varch/x86/boot/bzImage
p120
sVdebug-info
p121
I00
ss(Vbase
p122
g68
g73
tp123
(dp124
g56
I01
sg57
(lp125
Vaptosid-686
p126
ass(Vbase
p127
tp128
(dp129
Vcompiler
p130
Vgcc-6
p131
sVfeaturesets
p132
(lp133
Vnone
p134
asVarches
p135
(lp136
Vamd64
p137
aVi386
p138
ass(Vdescription
p139
g68
NVaptosid-686
p140
tp141
(dp142
Vhardware
p143
Vmodern PCs
p144
sVhardware-long
p145
VPCs with Intel Pentium Pro/II/III/4/4M/D/M, Xeon, Celeron, Core or Atom; AMD Geode LX/NX, Athlon (K7), Duron, Opteron, Sempron, Turion or Phenom; Transmeta Efficeon; VIA C3 "Nehemiah" or C7 processors
p146
ss(Vrelations
p147
tp148
(dp149
Vinitramfs-fallback
p150
Vlinux-initramfs-tool
p151
sVinitramfs-tools
p152
Vinitramfs-tools (>= 0.121~)
p153
sVgcc-6
p154
Vgcc-6
p155
sstp156
Rp157
.