ccopy_reg
_reconstructor
p0
(cdebian_linux.config
ConfigCore
p1
c__builtin__
dict
p2
(dp3
(Vdescription
p4
Vi386
p5
NVaptosid-686
p6
tp7
(dp8
Vhardware-long
p9
VPCs with Intel Pentium Pro/II/III/4/4M/D/M, Xeon, Celeron, Core or Atom; AMD Geode LX/NX, Athlon (K7), Duron, Opteron, Sempron, Turion or Phenom; Transmeta Efficeon; VIA C3 "Nehemiah" or C7 processors
p10
sVhardware
p11
Vmodern PCs
p12
ss(Vabi
p13
tp14
(dp15
Vabiname
p16
V5.slh.1
p17
ss(Vimage
p18
tp19
(dp20
Vinitramfs-generators
p21
(lp22
Vinitramfs-tools
p23
aVinitramfs-fallback
p24
ass(Vdescription
p25
Vamd64
p26
Vnone
p27
Vaptosid-amd64
p28
tp29
(dp30
Vparts
p31
(lp32
Vxen
p33
ass(Vimage
p34
g5
tp35
(dp36
Vbreaks
p37
Vxserver-xorg-input-vmmouse (<< 1:13.0.99)
p38
sVbootloaders
p39
(lp40
Vgrub-pc
p41
aVextlinux
p42
aVgrub-efi-ia32
p43
asVsuggests
p44
Vcrda
p45
sVinstall-stem
p46
Vvmlinuz
p47
ss(Vbase
p48
g5
tp49
(dp50
Vkernel-arch
p51
Vx86
p52
sVfeaturesets
p53
(lp54
Vnone
p55
aVnone
p56
ass(Vbase
p57
tp58
(dp59
Vcompiler
p60
Vgcc-7
p61
sVarches
p62
(lp63
Vamd64
p64
aVi386
p65
asVfeaturesets
p66
(lp67
Vnone
p68
ass(Vversion
p69
tp70
(dp71
Vupstream
p72
V4.12
p73
sVabiname
p74
V4.12.0-5.slh.1
p75
sVabiname_base
p76
V4.12.0
p77
sVsource
p78
V4.12-11
p79
ss(Vimage
p80
g26
tp81
(dp82
Vbreaks
p83
Vxserver-xorg-input-vmmouse (<< 1:13.0.99)
p84
sVbootloaders
p85
(lp86
Vgrub-pc
p87
aVextlinux
p88
aVgrub-efi-amd64
p89
asVsuggests
p90
Vcrda
p91
sVinstall-stem
p92
Vvmlinuz
p93
ss(Vrelations
p94
tp95
(dp96
Vinitramfs-fallback
p97
Vlinux-initramfs-tool
p98
sVgcc-7
p99
Vgcc-7
p100
sVinitramfs-tools
p101
Vinitramfs-tools (>= 0.121~)
p102
ss(Vbuild
p103
g26
tp104
(dp105
Vimage-file
p106
Varch/x86/boot/bzImage
p107
sVdebug-info
p108
I00
ss(Vbase
p109
g26
g27
tp110
(dp111
Vflavours
p112
(lp113
Vaptosid-amd64
p114
asVimplicit-flavour
p115
I01
ss(Vdescription
p116
tp117
(dp118
Vpart-long-up
p119
VThis kernel is not suitable for SMP (multi-processor,\u000amulti-core or hyper-threaded) systems.
p120
sVpart-long-xen
p121
VThis kernel also runs on a Xen hypervisor.\u000aIt supports both privileged (dom0) and unprivileged (domU) operation.
p122
ss(Vbase
p123
g26
tp124
(dp125
Vkernel-arch
p126
Vx86
p127
sVfeaturesets
p128
(lp129
g55
ag27
ass(Vbuild
p130
g5
tp131
(dp132
Vimage-file
p133
Varch/x86/boot/bzImage
p134
sVdebug-info
p135
I00
ss(Vdescription
p136
g26
NVaptosid-amd64
p137
tp138
(dp139
Vhardware-long
p140
VPCs with AMD64 or Intel 64 processors
p141
sVhardware
p142
V64-bit PCs
p143
ss(Vbase
p144
g5
g56
tp145
(dp146
g112
(lp147
Vaptosid-686
p148
asg115
I01
sstp149
Rp150
.