ccopy_reg
_reconstructor
p0
(cdebian_linux.config
ConfigCore
p1
c__builtin__
dict
p2
(dp3
(Vrelations
p4
tp5
(dp6
Vinitramfs-fallback
p7
Vlinux-initramfs-tool
p8
sVinitramfs-tools
p9
Vinitramfs-tools (>= 0.121~)
p10
sVgcc-6
p11
Vgcc-6
p12
ss(Vbase
p13
Vi386
p14
Vnone
p15
tp16
(dp17
Vflavours
p18
(lp19
Vaptosid-686
p20
asVimplicit-flavour
p21
I01
ss(Vimage
p22
tp23
(dp24
Vinitramfs-generators
p25
(lp26
Vinitramfs-tools
p27
aVinitramfs-fallback
p28
ass(Vbase
p29
Vamd64
p30
Vnone
p31
tp32
(dp33
g18
(lp34
Vaptosid-amd64
p35
asg21
I01
ss(Vdescription
p36
g30
g31
Vaptosid-amd64
p37
tp38
(dp39
Vparts
p40
(lp41
Vxen
p42
ass(Vimage
p43
g30
tp44
(dp45
Vsuggests
p46
Vcrda
p47
sVbootloaders
p48
(lp49
Vgrub-pc
p50
aVextlinux
p51
aVgrub-efi-amd64
p52
asVinstall-stem
p53
Vvmlinuz
p54
sVbreaks
p55
Vxserver-xorg-input-vmmouse (<< 1:13.0.99)
p56
ss(Vbase
p57
tp58
(dp59
Vcompiler
p60
Vgcc-6
p61
sVarches
p62
(lp63
Vamd64
p64
aVi386
p65
asVfeaturesets
p66
(lp67
Vnone
p68
ass(Vdescription
p69
g14
NVaptosid-686
p70
tp71
(dp72
Vhardware
p73
Vmodern PCs
p74
sVhardware-long
p75
VPCs with Intel Pentium Pro/II/III/4/4M/D/M, Xeon, Celeron, Core or Atom; AMD Geode LX/NX, Athlon (K7), Duron, Opteron, Sempron, Turion or Phenom; Transmeta Efficeon; VIA C3 "Nehemiah" or C7 processors
p76
ss(Vabi
p77
tp78
(dp79
Vabiname
p80
V7.slh.3
p81
ss(Vbase
p82
g14
tp83
(dp84
Vkernel-arch
p85
Vx86
p86
sVfeaturesets
p87
(lp88
Vnone
p89
ag15
ass(Vbuild
p90
g14
tp91
(dp92
Vimage-file
p93
Varch/x86/boot/bzImage
p94
sVdebug-info
p95
I00
ss(Vbuild
p96
g30
tp97
(dp98
Vimage-file
p99
Varch/x86/boot/bzImage
p100
sVdebug-info
p101
I00
ss(Vbase
p102
g30
tp103
(dp104
Vkernel-arch
p105
Vx86
p106
sVfeaturesets
p107
(lp108
g89
ag31
ass(Vversion
p109
tp110
(dp111
Vsource
p112
V4.11-16
p113
sVabiname_base
p114
V4.11.0
p115
sVabiname
p116
V4.11.0-7.slh.3
p117
sVupstream
p118
V4.11
p119
ss(Vimage
p120
g14
tp121
(dp122
Vsuggests
p123
Vcrda
p124
sVbootloaders
p125
(lp126
Vgrub-pc
p127
aVextlinux
p128
aVgrub-efi-ia32
p129
asVinstall-stem
p130
Vvmlinuz
p131
sVbreaks
p132
Vxserver-xorg-input-vmmouse (<< 1:13.0.99)
p133
ss(Vdescription
p134
tp135
(dp136
Vpart-long-xen
p137
VThis kernel also runs on a Xen hypervisor.\u000aIt supports both privileged (dom0) and unprivileged (domU) operation.
p138
sVpart-long-up
p139
VThis kernel is not suitable for SMP (multi-processor,\u000amulti-core or hyper-threaded) systems.
p140
ss(Vdescription
p141
g30
NVaptosid-amd64
p142
tp143
(dp144
Vhardware
p145
V64-bit PCs
p146
sVhardware-long
p147
VPCs with AMD64 or Intel 64 processors
p148
sstp149
Rp150
.