ccopy_reg
_reconstructor
p0
(cdebian_linux.config
ConfigCore
p1
c__builtin__
dict
p2
(dp3
(Vabi
p4
tp5
(dp6
Vabiname
p7
V0.slh.1
p8
ss(Vbase
p9
tp10
(dp11
Varches
p12
(lp13
Vamd64
p14
aVi386
p15
asVfeaturesets
p16
(lp17
Vnone
p18
asVcompiler
p19
Vgcc-5
p20
ss(Vbase
p21
Vamd64
p22
tp23
(dp24
Vkernel-arch
p25
Vx86
p26
sVfeaturesets
p27
(lp28
Vnone
p29
aVnone
p30
ass(Vimage
p31
g22
NVaptosid-amd64
p32
tp33
(dp34
Vconfigs
p35
(lp36
Vkernelarch-x86/config-arch-64
p37
ass(Vbase
p38
Vi386
p39
Vnone
p40
tp41
(dp42
Vimplicit-flavour
p43
I01
sVflavours
p44
(lp45
Vaptosid-686
p46
ass(Vbuild
p47
g39
tp48
(dp49
Vdebug-info
p50
I00
sVimage-file
p51
Varch/x86/boot/bzImage
p52
ss(Vdescription
p53
tp54
(dp55
Vpart-long-up
p56
VThis kernel is not suitable for SMP (multi-processor,\u000amulti-core or hyper-threaded) systems.
p57
sVpart-long-xen
p58
VThis kernel also runs on a Xen hypervisor.\u000aIt supports both privileged (dom0) and unprivileged (domU) operation.
p59
ss(Vrelations
p60
tp61
(dp62
Vinitramfs-tools
p63
Vinitramfs-tools (>= 0.121~)
p64
sVgcc-5
p65
Vgcc-5
p66
sVinitramfs-fallback
p67
Vlinux-initramfs-tool
p68
ss(Vbase
p69
g39
tp70
(dp71
Vkernel-arch
p72
Vx86
p73
sVfeaturesets
p74
(lp75
g29
ag40
ass(Vimage
p76
g22
tp77
(dp78
Vbootloaders
p79
(lp80
Vgrub-pc
p81
aVextlinux
p82
aVgrub-efi-amd64
p83
asVinstall-stem
p84
Vvmlinuz
p85
sVsuggests
p86
Vcrda
p87
sVconfigs
p88
(lp89
ss(Vimage
p90
tp91
(dp92
Vinitramfs-generators
p93
(lp94
Vinitramfs-tools
p95
aVinitramfs-fallback
p96
asVtype
p97
Vplain
p98
ss(Vdescription
p99
g22
NVaptosid-amd64
p100
tp101
(dp102
Vhardware
p103
V64-bit PCs
p104
sVhardware-long
p105
VPCs with AMD64 or Intel 64 processors
p106
ss(Vbase
p107
g22
g30
tp108
(dp109
g43
I01
sg44
(lp110
Vaptosid-amd64
p111
ass(Vdescription
p112
g22
g30
Vaptosid-amd64
p113
tp114
(dp115
Vparts
p116
(lp117
Vxen
p118
ass(Vimage
p119
g39
NVaptosid-686
p120
tp121
(dp122
Vrecommends
p123
Vlibc6-i686
p124
sVconfigs
p125
(lp126
Vkernelarch-x86/config-arch-32
p127
ass(Vxen
p128
g22
g30
Vaptosid-amd64
p129
tp130
(dp131
Vflavours
p132
(lp133
Vaptosid-amd64
p134
ass(Vimage
p135
g39
tp136
(dp137
Vbootloaders
p138
(lp139
Vgrub-pc
p140
aVextlinux
p141
aVgrub-efi-ia32
p142
asVinstall-stem
p143
Vvmlinuz
p144
sVsuggests
p145
Vcrda
p146
sVconfigs
p147
(lp148
ss(Vdescription
p149
g39
NVaptosid-686
p150
tp151
(dp152
Vhardware
p153
Vmodern PCs
p154
sVhardware-long
p155
VPCs with Intel Pentium Pro/II/III/4/4M/D/M, Xeon, Celeron, Core or Atom; AMD Geode LX/NX, Athlon (K7), Duron, Opteron, Sempron, Turion or Phenom; Transmeta Efficeon; VIA C3 "Nehemiah" or C7 processors
p156
ss(Vversion
p157
tp158
(dp159
Vabiname_base
p160
V4.6.0
p161
sVupstream
p162
V4.6
p163
sVsource
p164
V4.6-2
p165
sVabiname
p166
V4.6.0-0.slh.1
p167
ss(Vbuild
p168
g22
tp169
(dp170
Vdebug-info
p171
I00
sVimage-file
p172
Varch/x86/boot/bzImage
p173
sstp174
Rp175
.