ccopy_reg
_reconstructor
p0
(cdebian_linux.config
ConfigCore
p1
c__builtin__
dict
p2
(dp3
(Vdescription
p4
Vi386
p5
NVaptosid-686
p6
tp7
(dp8
Vhardware
p9
Vmodern PCs
p10
sVhardware-long
p11
VPCs with Intel Pentium Pro/II/III/4/4M/D/M, Xeon, Celeron, Core or Atom; AMD Geode LX/NX, Athlon (K7), Duron, Opteron, Sempron, Turion or Phenom; Transmeta Efficeon; VIA C3 "Nehemiah" or C7 processors
p12
ss(Vimage
p13
g5
tp14
(dp15
Vbootloaders
p16
(lp17
Vgrub-pc
p18
aVextlinux
p19
aVgrub-efi-ia32
p20
asVbreaks
p21
Vxserver-xorg-input-vmmouse (<< 1:13.0.99)
p22
sVinstall-stem
p23
Vvmlinuz
p24
sVsuggests
p25
Vcrda
p26
ss(Vxen
p27
Vamd64
p28
Vnone
p29
Vaptosid-amd64
p30
tp31
(dp32
Vflavours
p33
(lp34
Vaptosid-amd64
p35
ass(Vdescription
p36
tp37
(dp38
Vpart-long-up
p39
VThis kernel is not suitable for SMP (multi-processor,\u000amulti-core or hyper-threaded) systems.
p40
sVpart-long-xen
p41
VThis kernel also runs on a Xen hypervisor.\u000aIt supports both privileged (dom0) and unprivileged (domU) operation.
p42
ss(Vabi
p43
tp44
(dp45
Vabiname
p46
V13.slh.2
p47
ss(Vimage
p48
g28
tp49
(dp50
Vbootloaders
p51
(lp52
Vgrub-pc
p53
aVextlinux
p54
aVgrub-efi-amd64
p55
asVbreaks
p56
Vxserver-xorg-input-vmmouse (<< 1:13.0.99)
p57
sVinstall-stem
p58
Vvmlinuz
p59
sVsuggests
p60
Vcrda
p61
ss(Vbase
p62
g5
Vnone
p63
tp64
(dp65
Vimplicit-flavour
p66
I01
sVflavours
p67
(lp68
Vaptosid-686
p69
ass(Vversion
p70
tp71
(dp72
Vsource
p73
V4.8-23
p74
sVabiname
p75
V4.8.0-13.slh.2
p76
sVabiname_base
p77
V4.8.0
p78
sVupstream
p79
V4.8
p80
ss(Vbase
p81
g28
tp82
(dp83
Vfeaturesets
p84
(lp85
Vnone
p86
ag29
asVkernel-arch
p87
Vx86
p88
ss(Vbuild
p89
g28
tp90
(dp91
Vdebug-info
p92
I00
sVimage-file
p93
Varch/x86/boot/bzImage
p94
ss(Vbase
p95
g5
tp96
(dp97
Vfeaturesets
p98
(lp99
g86
ag63
asVkernel-arch
p100
Vx86
p101
ss(Vimage
p102
tp103
(dp104
Vinitramfs-generators
p105
(lp106
Vinitramfs-tools
p107
aVinitramfs-fallback
p108
ass(Vdescription
p109
g28
NVaptosid-amd64
p110
tp111
(dp112
Vhardware
p113
V64-bit PCs
p114
sVhardware-long
p115
VPCs with AMD64 or Intel 64 processors
p116
ss(Vbase
p117
tp118
(dp119
Vfeaturesets
p120
(lp121
Vnone
p122
asVarches
p123
(lp124
Vamd64
p125
aVi386
p126
asVcompiler
p127
Vgcc-6
p128
ss(Vrelations
p129
tp130
(dp131
Vinitramfs-fallback
p132
Vlinux-initramfs-tool
p133
sVgcc-6
p134
Vgcc-6
p135
sVinitramfs-tools
p136
Vinitramfs-tools (>= 0.121~)
p137
ss(Vbase
p138
g28
g29
tp139
(dp140
g66
I01
sg67
(lp141
Vaptosid-amd64
p142
ass(Vbuild
p143
g5
tp144
(dp145
Vdebug-info
p146
I00
sVimage-file
p147
Varch/x86/boot/bzImage
p148
ss(Vdescription
p149
g28
g29
Vaptosid-amd64
p150
tp151
(dp152
Vparts
p153
(lp154
Vxen
p155
asstp156
Rp157
.