ccopy_reg
_reconstructor
p0
(cdebian_linux.config
ConfigCore
p1
c__builtin__
dict
p2
(dp3
(Vimage
p4
tp5
(dp6
Vinitramfs-generators
p7
(lp8
Vinitramfs-tools
p9
aVinitramfs-fallback
p10
ass(Vimage
p11
Vamd64
p12
tp13
(dp14
Vsuggests
p15
Vcrda
p16
sVbreaks
p17
Vxserver-xorg-input-vmmouse (<< 1:13.0.99)
p18
sVbootloaders
p19
(lp20
Vgrub-pc
p21
aVextlinux
p22
aVgrub-efi-amd64
p23
asVinstall-stem
p24
Vvmlinuz
p25
ss(Vdescription
p26
Vi386
p27
NVaptosid-686
p28
tp29
(dp30
Vhardware
p31
Vmodern PCs
p32
sVhardware-long
p33
VPCs with Intel Pentium Pro/II/III/4/4M/D/M, Xeon, Celeron, Core or Atom; AMD Geode LX/NX, Athlon (K7), Duron, Opteron, Sempron, Turion or Phenom; Transmeta Efficeon; VIA C3 "Nehemiah" or C7 processors
p34
ss(Vdescription
p35
g12
Vnone
p36
Vaptosid-amd64
p37
tp38
(dp39
Vparts
p40
(lp41
Vxen
p42
ass(Vdescription
p43
g12
NVaptosid-amd64
p44
tp45
(dp46
Vhardware
p47
V64-bit PCs
p48
sVhardware-long
p49
VPCs with AMD64 or Intel 64 processors
p50
ss(Vbuild
p51
g27
tp52
(dp53
Vimage-file
p54
Varch/x86/boot/bzImage
p55
sVdebug-info
p56
I00
ss(Vrelations
p57
tp58
(dp59
Vgcc-6
p60
Vgcc-6
p61
sVinitramfs-tools
p62
Vinitramfs-tools (>= 0.121~)
p63
sVinitramfs-fallback
p64
Vlinux-initramfs-tool
p65
ss(Vbase
p66
g27
tp67
(dp68
Vfeaturesets
p69
(lp70
Vnone
p71
aVnone
p72
asVkernel-arch
p73
Vx86
p74
ss(Vbuild
p75
g12
tp76
(dp77
Vimage-file
p78
Varch/x86/boot/bzImage
p79
sVdebug-info
p80
I00
ss(Vbase
p81
tp82
(dp83
Vfeaturesets
p84
(lp85
Vnone
p86
asVarches
p87
(lp88
Vamd64
p89
aVi386
p90
asVcompiler
p91
Vgcc-6
p92
ss(Vbase
p93
g27
g72
tp94
(dp95
Vimplicit-flavour
p96
I01
sVflavours
p97
(lp98
Vaptosid-686
p99
ass(Vabi
p100
tp101
(dp102
Vabiname
p103
V3.slh.2
p104
ss(Vbase
p105
g12
tp106
(dp107
Vfeaturesets
p108
(lp109
g71
ag36
asVkernel-arch
p110
Vx86
p111
ss(Vversion
p112
tp113
(dp114
Vabiname
p115
V4.12.0-3.slh.2
p116
sVabiname_base
p117
V4.12.0
p118
sVsource
p119
V4.12-7
p120
sVupstream
p121
V4.12
p122
ss(Vdescription
p123
tp124
(dp125
Vpart-long-up
p126
VThis kernel is not suitable for SMP (multi-processor,\u000amulti-core or hyper-threaded) systems.
p127
sVpart-long-xen
p128
VThis kernel also runs on a Xen hypervisor.\u000aIt supports both privileged (dom0) and unprivileged (domU) operation.
p129
ss(Vimage
p130
g27
tp131
(dp132
Vsuggests
p133
Vcrda
p134
sVbreaks
p135
Vxserver-xorg-input-vmmouse (<< 1:13.0.99)
p136
sVbootloaders
p137
(lp138
Vgrub-pc
p139
aVextlinux
p140
aVgrub-efi-ia32
p141
asVinstall-stem
p142
Vvmlinuz
p143
ss(Vbase
p144
g12
g36
tp145
(dp146
g96
I01
sg97
(lp147
Vaptosid-amd64
p148
asstp149
Rp150
.