ccopy_reg
_reconstructor
p0
(cdebian_linux.config
ConfigCore
p1
c__builtin__
dict
p2
(dp3
(Vbase
p4
Vi386
p5
tp6
(dp7
Vkernel-arch
p8
Vx86
p9
sVfeaturesets
p10
(lp11
Vnone
p12
aVnone
p13
ass(Vbase
p14
Vamd64
p15
Vnone
p16
tp17
(dp18
Vflavours
p19
(lp20
Vaptosid-amd64
p21
asVimplicit-flavour
p22
I01
ss(Vversion
p23
tp24
(dp25
Vabiname
p26
V4.12.0-7.slh.2
p27
sVsource
p28
V4.12-15
p29
sVabiname_base
p30
V4.12.0
p31
sVupstream
p32
V4.12
p33
ss(Vbuild
p34
g5
tp35
(dp36
Vdebug-info
p37
I00
sVimage-file
p38
Varch/x86/boot/bzImage
p39
ss(Vrelations
p40
tp41
(dp42
Vinitramfs-tools
p43
Vinitramfs-tools (>= 0.121~)
p44
sVinitramfs-fallback
p45
Vlinux-initramfs-tool
p46
sVgcc-7
p47
Vgcc-7
p48
ss(Vbase
p49
tp50
(dp51
Vfeaturesets
p52
(lp53
Vnone
p54
asVcompiler
p55
Vgcc-7
p56
sVarches
p57
(lp58
Vamd64
p59
aVi386
p60
ass(Vabi
p61
tp62
(dp63
Vabiname
p64
V7.slh.2
p65
ss(Vbuild
p66
g15
tp67
(dp68
Vdebug-info
p69
I00
sVimage-file
p70
Varch/x86/boot/bzImage
p71
ss(Vimage
p72
tp73
(dp74
Vinitramfs-generators
p75
(lp76
Vinitramfs-tools
p77
aVinitramfs-fallback
p78
ass(Vdescription
p79
g15
NVaptosid-amd64
p80
tp81
(dp82
Vhardware-long
p83
VPCs with AMD64 or Intel 64 processors
p84
sVhardware
p85
V64-bit PCs
p86
ss(Vimage
p87
g5
tp88
(dp89
Vbreaks
p90
Vxserver-xorg-input-vmmouse (<< 1:13.0.99)
p91
sVsuggests
p92
Vcrda
p93
sVinstall-stem
p94
Vvmlinuz
p95
sVbootloaders
p96
(lp97
Vgrub-pc
p98
aVextlinux
p99
aVgrub-efi-ia32
p100
ass(Vdescription
p101
tp102
(dp103
Vpart-long-up
p104
VThis kernel is not suitable for SMP (multi-processor,\u000amulti-core or hyper-threaded) systems.
p105
sVpart-long-xen
p106
VThis kernel also runs on a Xen hypervisor.\u000aIt supports both privileged (dom0) and unprivileged (domU) operation.
p107
ss(Vbase
p108
g15
tp109
(dp110
Vkernel-arch
p111
Vx86
p112
sVfeaturesets
p113
(lp114
g12
ag16
ass(Vdescription
p115
g15
g16
Vaptosid-amd64
p116
tp117
(dp118
Vparts
p119
(lp120
Vxen
p121
ass(Vbase
p122
g5
g13
tp123
(dp124
g19
(lp125
Vaptosid-686
p126
asg22
I01
ss(Vdescription
p127
g5
NVaptosid-686
p128
tp129
(dp130
Vhardware-long
p131
VPCs with Intel Pentium Pro/II/III/4/4M/D/M, Xeon, Celeron, Core or Atom; AMD Geode LX/NX, Athlon (K7), Duron, Opteron, Sempron, Turion or Phenom; Transmeta Efficeon; VIA C3 "Nehemiah" or C7 processors
p132
sVhardware
p133
Vmodern PCs
p134
ss(Vimage
p135
g15
tp136
(dp137
Vbreaks
p138
Vxserver-xorg-input-vmmouse (<< 1:13.0.99)
p139
sVsuggests
p140
Vcrda
p141
sVinstall-stem
p142
Vvmlinuz
p143
sVbootloaders
p144
(lp145
Vgrub-pc
p146
aVextlinux
p147
aVgrub-efi-amd64
p148
asstp149
Rp150
.