ccopy_reg
_reconstructor
p0
(cdebian_linux.config
ConfigCore
p1
c__builtin__
dict
p2
(dp3
(Vimage
p4
Vi386
p5
tp6
(dp7
Vbootloaders
p8
(lp9
Vgrub-pc
p10
aVextlinux
p11
aVgrub-efi-ia32
p12
asVsuggests
p13
Vcrda
p14
sVbreaks
p15
Vxserver-xorg-input-vmmouse (<< 1:13.0.99)
p16
sVinstall-stem
p17
Vvmlinuz
p18
ss(Vdescription
p19
g5
NVaptosid-686
p20
tp21
(dp22
Vhardware-long
p23
VPCs with Intel Pentium Pro/II/III/4/4M/D/M, Xeon, Celeron, Core or Atom; AMD Geode LX/NX, Athlon (K7), Duron, Opteron, Sempron, Turion or Phenom; Transmeta Efficeon; VIA C3 "Nehemiah" or C7 processors
p24
sVhardware
p25
Vmodern PCs
p26
ss(Vbase
p27
g5
Vnone
p28
tp29
(dp30
Vimplicit-flavour
p31
I01
sVflavours
p32
(lp33
Vaptosid-686
p34
ass(Vimage
p35
tp36
(dp37
Vinitramfs-generators
p38
(lp39
Vinitramfs-tools
p40
aVinitramfs-fallback
p41
ass(Vdescription
p42
Vamd64
p43
NVaptosid-amd64
p44
tp45
(dp46
Vhardware-long
p47
VPCs with AMD64 or Intel 64 processors
p48
sVhardware
p49
V64-bit PCs
p50
ss(Vrelations
p51
tp52
(dp53
Vinitramfs-fallback
p54
Vlinux-initramfs-tool
p55
sVgcc-5
p56
Vgcc-5
p57
sVinitramfs-tools
p58
Vinitramfs-tools (>= 0.121~)
p59
ss(Vbase
p60
g43
Vnone
p61
tp62
(dp63
g31
I01
sg32
(lp64
Vaptosid-amd64
p65
ass(Vdescription
p66
g43
g61
Vaptosid-amd64
p67
tp68
(dp69
Vparts
p70
(lp71
Vxen
p72
ass(Vbuild
p73
g5
tp74
(dp75
Vimage-file
p76
Varch/x86/boot/bzImage
p77
sVdebug-info
p78
I00
ss(Vbase
p79
tp80
(dp81
Varches
p82
(lp83
Vamd64
p84
aVi386
p85
asVcompiler
p86
Vgcc-5
p87
sVfeaturesets
p88
(lp89
Vnone
p90
ass(Vxen
p91
g43
g61
Vaptosid-amd64
p92
tp93
(dp94
Vflavours
p95
(lp96
Vaptosid-amd64
p97
ass(Vimage
p98
g43
tp99
(dp100
Vbootloaders
p101
(lp102
Vgrub-pc
p103
aVextlinux
p104
aVgrub-efi-amd64
p105
asVsuggests
p106
Vcrda
p107
sVbreaks
p108
Vxserver-xorg-input-vmmouse (<< 1:13.0.99)
p109
sVinstall-stem
p110
Vvmlinuz
p111
ss(Vbuild
p112
g43
tp113
(dp114
Vimage-file
p115
Varch/x86/boot/bzImage
p116
sVdebug-info
p117
I00
ss(Vbase
p118
g43
tp119
(dp120
Vkernel-arch
p121
Vx86
p122
sVfeaturesets
p123
(lp124
Vnone
p125
ag61
ass(Vdescription
p126
tp127
(dp128
Vpart-long-up
p129
VThis kernel is not suitable for SMP (multi-processor,\u000amulti-core or hyper-threaded) systems.
p130
sVpart-long-xen
p131
VThis kernel also runs on a Xen hypervisor.\u000aIt supports both privileged (dom0) and unprivileged (domU) operation.
p132
ss(Vabi
p133
tp134
(dp135
Vabiname
p136
V0.slh.1
p137
ss(Vbase
p138
g5
tp139
(dp140
Vkernel-arch
p141
Vx86
p142
sVfeaturesets
p143
(lp144
g125
ag28
ass(Vversion
p145
tp146
(dp147
Vupstream
p148
V4.7
p149
sVabiname_base
p150
V4.7.0
p151
sVsource
p152
V4.7-2
p153
sVabiname
p154
V4.7.0-0.slh.1
p155
sstp156
Rp157
.