ccopy_reg
_reconstructor
p0
(cdebian_linux.config
ConfigCore
p1
c__builtin__
dict
p2
(dp3
(Vimage
p4
Vi386
p5
tp6
(dp7
Vbreaks
p8
Vxserver-xorg-input-vmmouse (<< 1:13.0.99)
p9
sVbootloaders
p10
(lp11
Vgrub-pc
p12
aVextlinux
p13
aVgrub-efi-ia32
p14
asVsuggests
p15
Vcrda
p16
sVinstall-stem
p17
Vvmlinuz
p18
ss(Vbuild
p19
Vamd64
p20
tp21
(dp22
Vdebug-info
p23
I00
sVimage-file
p24
Varch/x86/boot/bzImage
p25
ss(Vdescription
p26
tp27
(dp28
Vpart-long-xen
p29
VThis kernel also runs on a Xen hypervisor.\u000aIt supports both privileged (dom0) and unprivileged (domU) operation.
p30
sVpart-long-up
p31
VThis kernel is not suitable for SMP (multi-processor,\u000amulti-core or hyper-threaded) systems.
p32
ss(Vbase
p33
tp34
(dp35
Vcompiler
p36
Vgcc-6
p37
sVfeaturesets
p38
(lp39
Vnone
p40
asVarches
p41
(lp42
Vamd64
p43
aVi386
p44
ass(Vbuild
p45
g5
tp46
(dp47
Vdebug-info
p48
I00
sVimage-file
p49
Varch/x86/boot/bzImage
p50
ss(Vrelations
p51
tp52
(dp53
Vinitramfs-tools
p54
Vinitramfs-tools (>= 0.121~)
p55
sVinitramfs-fallback
p56
Vlinux-initramfs-tool
p57
sVgcc-6
p58
Vgcc-6
p59
ss(Vdescription
p60
g20
Vnone
p61
Vaptosid-amd64
p62
tp63
(dp64
Vparts
p65
(lp66
Vxen
p67
ass(Vbase
p68
g20
tp69
(dp70
Vkernel-arch
p71
Vx86
p72
sVfeaturesets
p73
(lp74
Vnone
p75
ag61
ass(Vimage
p76
g20
tp77
(dp78
Vbreaks
p79
Vxserver-xorg-input-vmmouse (<< 1:13.0.99)
p80
sVbootloaders
p81
(lp82
Vgrub-pc
p83
aVextlinux
p84
aVgrub-efi-amd64
p85
asVsuggests
p86
Vcrda
p87
sVinstall-stem
p88
Vvmlinuz
p89
ss(Vimage
p90
tp91
(dp92
Vinitramfs-generators
p93
(lp94
Vinitramfs-tools
p95
aVinitramfs-fallback
p96
ass(Vdescription
p97
g20
NVaptosid-amd64
p98
tp99
(dp100
Vhardware
p101
V64-bit PCs
p102
sVhardware-long
p103
VPCs with AMD64 or Intel 64 processors
p104
ss(Vversion
p105
tp106
(dp107
Vupstream
p108
V4.11
p109
sVabiname_base
p110
V4.11.0
p111
sVsource
p112
V4.11-5
p113
sVabiname
p114
V4.11.0-1.slh.1
p115
ss(Vabi
p116
tp117
(dp118
Vabiname
p119
V1.slh.1
p120
ss(Vbase
p121
g20
g61
tp122
(dp123
Vimplicit-flavour
p124
I01
sVflavours
p125
(lp126
Vaptosid-amd64
p127
ass(Vbase
p128
g5
Vnone
p129
tp130
(dp131
g124
I01
sg125
(lp132
Vaptosid-686
p133
ass(Vbase
p134
g5
tp135
(dp136
Vkernel-arch
p137
Vx86
p138
sVfeaturesets
p139
(lp140
g75
ag129
ass(Vdescription
p141
g5
NVaptosid-686
p142
tp143
(dp144
Vhardware
p145
Vmodern PCs
p146
sVhardware-long
p147
VPCs with Intel Pentium Pro/II/III/4/4M/D/M, Xeon, Celeron, Core or Atom; AMD Geode LX/NX, Athlon (K7), Duron, Opteron, Sempron, Turion or Phenom; Transmeta Efficeon; VIA C3 "Nehemiah" or C7 processors
p148
sstp149
Rp150
.