ccopy_reg
_reconstructor
p0
(cdebian_linux.config
ConfigCore
p1
c__builtin__
dict
p2
(dp3
(Vdescription
p4
Vamd64
p5
NVaptosid-amd64
p6
tp7
(dp8
Vhardware
p9
V64-bit PCs
p10
sVhardware-long
p11
VPCs with AMD64 or Intel 64 processors
p12
ss(Vdescription
p13
tp14
(dp15
Vpart-long-xen
p16
VThis kernel also runs on a Xen hypervisor.\u000aIt supports both privileged (dom0) and unprivileged (domU) operation.
p17
sVpart-long-up
p18
VThis kernel is not suitable for SMP (multi-processor,\u000amulti-core or hyper-threaded) systems.
p19
ss(Vrelations
p20
tp21
(dp22
Vgcc-6
p23
Vgcc-6
p24
sVinitramfs-fallback
p25
Vlinux-initramfs-tool
p26
sVinitramfs-tools
p27
Vinitramfs-tools (>= 0.121~)
p28
ss(Vbase
p29
Vi386
p30
tp31
(dp32
Vfeaturesets
p33
(lp34
Vnone
p35
aVnone
p36
asVkernel-arch
p37
Vx86
p38
ss(Vbuild
p39
g30
tp40
(dp41
Vdebug-info
p42
I00
sVimage-file
p43
Varch/x86/boot/bzImage
p44
ss(Vversion
p45
tp46
(dp47
Vabiname
p48
V4.8.0-6.slh.2
p49
sVsource
p50
V4.8-11
p51
sVupstream
p52
V4.8
p53
sVabiname_base
p54
V4.8.0
p55
ss(Vxen
p56
g5
Vnone
p57
Vaptosid-amd64
p58
tp59
(dp60
Vflavours
p61
(lp62
Vaptosid-amd64
p63
ass(Vimage
p64
tp65
(dp66
Vinitramfs-generators
p67
(lp68
Vinitramfs-tools
p69
aVinitramfs-fallback
p70
ass(Vbase
p71
g30
g36
tp72
(dp73
Vflavours
p74
(lp75
Vaptosid-686
p76
asVimplicit-flavour
p77
I01
ss(Vimage
p78
g30
tp79
(dp80
Vinstall-stem
p81
Vvmlinuz
p82
sVsuggests
p83
Vcrda
p84
sVbootloaders
p85
(lp86
Vgrub-pc
p87
aVextlinux
p88
aVgrub-efi-ia32
p89
asVbreaks
p90
Vxserver-xorg-input-vmmouse (<< 1:13.0.99)
p91
ss(Vbase
p92
tp93
(dp94
Vcompiler
p95
Vgcc-6
p96
sVarches
p97
(lp98
Vamd64
p99
aVi386
p100
asVfeaturesets
p101
(lp102
Vnone
p103
ass(Vdescription
p104
g5
g57
Vaptosid-amd64
p105
tp106
(dp107
Vparts
p108
(lp109
Vxen
p110
ass(Vbuild
p111
g5
tp112
(dp113
Vdebug-info
p114
I00
sVimage-file
p115
Varch/x86/boot/bzImage
p116
ss(Vimage
p117
g5
tp118
(dp119
Vinstall-stem
p120
Vvmlinuz
p121
sVsuggests
p122
Vcrda
p123
sVbootloaders
p124
(lp125
Vgrub-pc
p126
aVextlinux
p127
aVgrub-efi-amd64
p128
asVbreaks
p129
Vxserver-xorg-input-vmmouse (<< 1:13.0.99)
p130
ss(Vbase
p131
g5
tp132
(dp133
Vfeaturesets
p134
(lp135
g35
ag57
asVkernel-arch
p136
Vx86
p137
ss(Vabi
p138
tp139
(dp140
Vabiname
p141
V6.slh.2
p142
ss(Vbase
p143
g5
g57
tp144
(dp145
g74
(lp146
Vaptosid-amd64
p147
asg77
I01
ss(Vdescription
p148
g30
NVaptosid-686
p149
tp150
(dp151
Vhardware
p152
Vmodern PCs
p153
sVhardware-long
p154
VPCs with Intel Pentium Pro/II/III/4/4M/D/M, Xeon, Celeron, Core or Atom; AMD Geode LX/NX, Athlon (K7), Duron, Opteron, Sempron, Turion or Phenom; Transmeta Efficeon; VIA C3 "Nehemiah" or C7 processors
p155
sstp156
Rp157
.