ccopy_reg
_reconstructor
p0
(cdebian_linux.config
ConfigCore
p1
c__builtin__
dict
p2
(dp3
(Vbase
p4
tp5
(dp6
Varches
p7
(lp8
Vamd64
p9
aVi386
p10
asVfeaturesets
p11
(lp12
Vnone
p13
asVcompiler
p14
Vgcc-5
p15
ss(Vdescription
p16
Vi386
p17
NVaptosid-686
p18
tp19
(dp20
Vhardware-long
p21
VPCs with Intel Pentium Pro/II/III/4/4M/D/M, Xeon, Celeron, Core or Atom; AMD Geode LX/NX, Athlon (K7), Duron, Opteron, Sempron, Turion or Phenom; Transmeta Efficeon; VIA C3 "Nehemiah" or C7 processors
p22
sVhardware
p23
Vmodern PCs
p24
ss(Vbuild
p25
g17
tp26
(dp27
Vimage-file
p28
Varch/x86/boot/bzImage
p29
sVdebug-info
p30
I00
ss(Vversion
p31
tp32
(dp33
Vabiname
p34
V4.3.0-0.slh.4
p35
sVupstream
p36
V4.3
p37
sVsource
p38
V4.3-4
p39
sVabiname_base
p40
V4.3.0
p41
ss(Vimage
p42
g17
tp43
(dp44
Vsuggests
p45
Vcrda
p46
sVbootloaders
p47
(lp48
Vgrub-pc
p49
aVextlinux
p50
aVgrub-efi-ia32
p51
asVconfigs
p52
(lp53
sVinstall-stem
p54
Vvmlinuz
p55
ss(Vdescription
p56
Vamd64
p57
NVaptosid-amd64
p58
tp59
(dp60
Vhardware-long
p61
VPCs with AMD64 or Intel 64 processors
p62
sVhardware
p63
V64-bit PCs
p64
ss(Vabi
p65
tp66
(dp67
Vabiname
p68
V0.slh.4
p69
ss(Vbase
p70
g17
Vnone
p71
tp72
(dp73
Vflavours
p74
(lp75
Vaptosid-686
p76
asVimplicit-flavour
p77
I01
ss(Vbase
p78
g57
tp79
(dp80
Vkernel-arch
p81
Vx86
p82
sVfeaturesets
p83
(lp84
Vnone
p85
aVnone
p86
ass(Vimage
p87
g17
NVaptosid-686
p88
tp89
(dp90
Vrecommends
p91
Vlibc6-i686
p92
sVconfigs
p93
(lp94
Vkernelarch-x86/config-arch-32
p95
ass(Vdescription
p96
g57
g86
Vaptosid-amd64
p97
tp98
(dp99
Vparts
p100
(lp101
Vxen
p102
ass(Vxen
p103
g57
g86
Vaptosid-amd64
p104
tp105
(dp106
Vflavours
p107
(lp108
Vaptosid-amd64
p109
ass(Vimage
p110
tp111
(dp112
Vinitramfs-generators
p113
(lp114
Vinitramfs-tools
p115
aVinitramfs-fallback
p116
asVtype
p117
Vplain
p118
ss(Vbuild
p119
g57
tp120
(dp121
Vimage-file
p122
Varch/x86/boot/bzImage
p123
sVdebug-info
p124
I00
ss(Vrelations
p125
tp126
(dp127
Vinitramfs-tools
p128
Vinitramfs-tools (>= 0.118+c0.aptosid.1~)
p129
sVinitramfs-fallback
p130
Vlinux-initramfs-tool
p131
sVgcc-5
p132
Vgcc-5
p133
ss(Vimage
p134
g57
tp135
(dp136
Vsuggests
p137
Vcrda
p138
sVbootloaders
p139
(lp140
Vgrub-pc
p141
aVextlinux
p142
aVgrub-efi-amd64
p143
asVconfigs
p144
(lp145
sVinstall-stem
p146
Vvmlinuz
p147
ss(Vbase
p148
g17
tp149
(dp150
Vkernel-arch
p151
Vx86
p152
sVfeaturesets
p153
(lp154
g85
ag71
ass(Vimage
p155
g57
NVaptosid-amd64
p156
tp157
(dp158
Vconfigs
p159
(lp160
Vkernelarch-x86/config-arch-64
p161
ass(Vbase
p162
g57
g86
tp163
(dp164
g74
(lp165
Vaptosid-amd64
p166
asg77
I01
ss(Vdescription
p167
tp168
(dp169
Vpart-long-xen
p170
VThis kernel also runs on a Xen hypervisor.\u000aIt supports both privileged (dom0) and unprivileged (domU) operation.
p171
sVpart-long-up
p172
VThis kernel is not suitable for SMP (multi-processor,\u000amulti-core or hyper-threaded) systems.
p173
sstp174
Rp175
.