ccopy_reg
_reconstructor
p0
(cdebian_linux.config
ConfigCore
p1
c__builtin__
dict
p2
(dp3
(Vabi
p4
tp5
(dp6
Vabiname
p7
V4.slh.2
p8
ss(Vimage
p9
tp10
(dp11
Vinitramfs-generators
p12
(lp13
Vinitramfs-tools
p14
aVinitramfs-fallback
p15
ass(Vbase
p16
Vamd64
p17
tp18
(dp19
Vfeaturesets
p20
(lp21
Vnone
p22
aVnone
p23
asVkernel-arch
p24
Vx86
p25
ss(Vbuild
p26
Vi386
p27
tp28
(dp29
Vimage-file
p30
Varch/x86/boot/bzImage
p31
sVdebug-info
p32
I00
ss(Vbase
p33
g27
tp34
(dp35
Vfeaturesets
p36
(lp37
g22
aVnone
p38
asVkernel-arch
p39
Vx86
p40
ss(Vversion
p41
tp42
(dp43
Vsource
p44
V4.8-8
p45
sVupstream
p46
V4.8
p47
sVabiname
p48
V4.8.0-4.slh.2
p49
sVabiname_base
p50
V4.8.0
p51
ss(Vxen
p52
g17
g23
Vaptosid-amd64
p53
tp54
(dp55
Vflavours
p56
(lp57
Vaptosid-amd64
p58
ass(Vbase
p59
g27
g38
tp60
(dp61
Vimplicit-flavour
p62
I01
sVflavours
p63
(lp64
Vaptosid-686
p65
ass(Vdescription
p66
g27
NVaptosid-686
p67
tp68
(dp69
Vhardware-long
p70
VPCs with Intel Pentium Pro/II/III/4/4M/D/M, Xeon, Celeron, Core or Atom; AMD Geode LX/NX, Athlon (K7), Duron, Opteron, Sempron, Turion or Phenom; Transmeta Efficeon; VIA C3 "Nehemiah" or C7 processors
p71
sVhardware
p72
Vmodern PCs
p73
ss(Vimage
p74
g17
tp75
(dp76
Vinstall-stem
p77
Vvmlinuz
p78
sVsuggests
p79
Vcrda
p80
sVbreaks
p81
Vxserver-xorg-input-vmmouse (<< 1:13.0.99)
p82
sVbootloaders
p83
(lp84
Vgrub-pc
p85
aVextlinux
p86
aVgrub-efi-amd64
p87
ass(Vbase
p88
tp89
(dp90
Vfeaturesets
p91
(lp92
Vnone
p93
asVcompiler
p94
Vgcc-6
p95
sVarches
p96
(lp97
Vamd64
p98
aVi386
p99
ass(Vbase
p100
g17
g23
tp101
(dp102
g62
I01
sg63
(lp103
Vaptosid-amd64
p104
ass(Vdescription
p105
tp106
(dp107
Vpart-long-up
p108
VThis kernel is not suitable for SMP (multi-processor,\u000amulti-core or hyper-threaded) systems.
p109
sVpart-long-xen
p110
VThis kernel also runs on a Xen hypervisor.\u000aIt supports both privileged (dom0) and unprivileged (domU) operation.
p111
ss(Vbuild
p112
g17
tp113
(dp114
Vimage-file
p115
Varch/x86/boot/bzImage
p116
sVdebug-info
p117
I00
ss(Vdescription
p118
g17
g23
Vaptosid-amd64
p119
tp120
(dp121
Vparts
p122
(lp123
Vxen
p124
ass(Vdescription
p125
g17
NVaptosid-amd64
p126
tp127
(dp128
Vhardware-long
p129
VPCs with AMD64 or Intel 64 processors
p130
sVhardware
p131
V64-bit PCs
p132
ss(Vimage
p133
g27
tp134
(dp135
Vinstall-stem
p136
Vvmlinuz
p137
sVsuggests
p138
Vcrda
p139
sVbreaks
p140
Vxserver-xorg-input-vmmouse (<< 1:13.0.99)
p141
sVbootloaders
p142
(lp143
Vgrub-pc
p144
aVextlinux
p145
aVgrub-efi-ia32
p146
ass(Vrelations
p147
tp148
(dp149
Vgcc-6
p150
Vgcc-6
p151
sVinitramfs-tools
p152
Vinitramfs-tools (>= 0.121~)
p153
sVinitramfs-fallback
p154
Vlinux-initramfs-tool
p155
sstp156
Rp157
.