ccopy_reg
_reconstructor
p0
(cdebian_linux.config
ConfigCore
p1
c__builtin__
dict
p2
(dp3
(Vbase
p4
Vamd64
p5
Vnone
p6
tp7
(dp8
Vimplicit-flavour
p9
I01
sVflavours
p10
(lp11
Vaptosid-amd64
p12
ass(Vdescription
p13
Vi386
p14
NVaptosid-686
p15
tp16
(dp17
Vhardware-long
p18
VPCs with Intel Pentium Pro/II/III/4/4M/D/M, Xeon, Celeron, Core or Atom; AMD Geode LX/NX, Athlon (K7), Duron, Opteron, Sempron, Turion or Phenom; Transmeta Efficeon; VIA C3 "Nehemiah" or C7 processors
p19
sVhardware
p20
Vmodern PCs
p21
ss(Vimage
p22
g14
tp23
(dp24
Vbreaks
p25
Vxserver-xorg-input-vmmouse (<< 1:13.0.99)
p26
sVsuggests
p27
Vcrda
p28
sVbootloaders
p29
(lp30
Vgrub-pc
p31
aVextlinux
p32
aVgrub-efi-ia32
p33
asVinstall-stem
p34
Vvmlinuz
p35
ss(Vbase
p36
g5
tp37
(dp38
Vfeaturesets
p39
(lp40
Vnone
p41
ag6
asVkernel-arch
p42
Vx86
p43
ss(Vbuild
p44
g14
tp45
(dp46
Vimage-file
p47
Varch/x86/boot/bzImage
p48
sVdebug-info
p49
I00
ss(Vdescription
p50
g5
g6
Vaptosid-amd64
p51
tp52
(dp53
Vparts
p54
(lp55
Vxen
p56
ass(Vbase
p57
g14
tp58
(dp59
Vfeaturesets
p60
(lp61
g41
aVnone
p62
asVkernel-arch
p63
Vx86
p64
ss(Vimage
p65
g5
tp66
(dp67
Vbreaks
p68
Vxserver-xorg-input-vmmouse (<< 1:13.0.99)
p69
sVsuggests
p70
Vcrda
p71
sVbootloaders
p72
(lp73
Vgrub-pc
p74
aVextlinux
p75
aVgrub-efi-amd64
p76
asVinstall-stem
p77
Vvmlinuz
p78
ss(Vbase
p79
tp80
(dp81
Vfeaturesets
p82
(lp83
Vnone
p84
asVarches
p85
(lp86
Vamd64
p87
aVi386
p88
asVcompiler
p89
Vgcc-6
p90
ss(Vxen
p91
g5
g6
Vaptosid-amd64
p92
tp93
(dp94
Vflavours
p95
(lp96
Vaptosid-amd64
p97
ass(Vimage
p98
tp99
(dp100
Vinitramfs-generators
p101
(lp102
Vinitramfs-tools
p103
aVinitramfs-fallback
p104
ass(Vversion
p105
tp106
(dp107
Vsource
p108
V4.8-1
p109
sVupstream
p110
V4.8
p111
sVabiname_base
p112
V4.8.0
p113
sVabiname
p114
V4.8.0-0.slh.1
p115
ss(Vdescription
p116
tp117
(dp118
Vpart-long-up
p119
VThis kernel is not suitable for SMP (multi-processor,\u000amulti-core or hyper-threaded) systems.
p120
sVpart-long-xen
p121
VThis kernel also runs on a Xen hypervisor.\u000aIt supports both privileged (dom0) and unprivileged (domU) operation.
p122
ss(Vbuild
p123
g5
tp124
(dp125
Vimage-file
p126
Varch/x86/boot/bzImage
p127
sVdebug-info
p128
I00
ss(Vdescription
p129
g5
NVaptosid-amd64
p130
tp131
(dp132
Vhardware-long
p133
VPCs with AMD64 or Intel 64 processors
p134
sVhardware
p135
V64-bit PCs
p136
ss(Vrelations
p137
tp138
(dp139
Vinitramfs-tools
p140
Vinitramfs-tools (>= 0.121~)
p141
sVinitramfs-fallback
p142
Vlinux-initramfs-tool
p143
sVgcc-6
p144
Vgcc-6
p145
ss(Vabi
p146
tp147
(dp148
Vabiname
p149
V0.slh.1
p150
ss(Vbase
p151
g14
g62
tp152
(dp153
g9
I01
sg10
(lp154
Vaptosid-686
p155
asstp156
Rp157
.