ccopy_reg
_reconstructor
p0
(cdebian_linux.config
ConfigCore
p1
c__builtin__
dict
p2
(dp3
(Vxen
p4
Vamd64
p5
Vnone
p6
Vaptosid-amd64
p7
tp8
(dp9
Vflavours
p10
(lp11
Vaptosid-amd64
p12
ass(Vbase
p13
g5
tp14
(dp15
Vfeaturesets
p16
(lp17
Vnone
p18
ag6
asVkernel-arch
p19
Vx86
p20
ss(Vdescription
p21
tp22
(dp23
Vpart-long-xen
p24
VThis kernel also runs on a Xen hypervisor.\u000aIt supports both privileged (dom0) and unprivileged (domU) operation.
p25
sVpart-long-up
p26
VThis kernel is not suitable for SMP (multi-processor,\u000amulti-core or hyper-threaded) systems.
p27
ss(Vbuild
p28
g5
tp29
(dp30
Vdebug-info
p31
I00
sVimage-file
p32
Varch/x86/boot/bzImage
p33
ss(Vbase
p34
Vi386
p35
tp36
(dp37
Vfeaturesets
p38
(lp39
g18
aVnone
p40
asVkernel-arch
p41
Vx86
p42
ss(Vbuild
p43
g35
tp44
(dp45
Vdebug-info
p46
I00
sVimage-file
p47
Varch/x86/boot/bzImage
p48
ss(Vversion
p49
tp50
(dp51
Vsource
p52
V4.7-16
p53
sVabiname
p54
V4.7.0-5.slh.1
p55
sVupstream
p56
V4.7
p57
sVabiname_base
p58
V4.7.0
p59
ss(Vrelations
p60
tp61
(dp62
Vinitramfs-fallback
p63
Vlinux-initramfs-tool
p64
sVgcc-6
p65
Vgcc-6
p66
sVinitramfs-tools
p67
Vinitramfs-tools (>= 0.121~)
p68
ss(Vbase
p69
g35
g40
tp70
(dp71
Vimplicit-flavour
p72
I01
sVflavours
p73
(lp74
Vaptosid-686
p75
ass(Vabi
p76
tp77
(dp78
Vabiname
p79
V5.slh.1
p80
ss(Vdescription
p81
g35
NVaptosid-686
p82
tp83
(dp84
Vhardware
p85
Vmodern PCs
p86
sVhardware-long
p87
VPCs with Intel Pentium Pro/II/III/4/4M/D/M, Xeon, Celeron, Core or Atom; AMD Geode LX/NX, Athlon (K7), Duron, Opteron, Sempron, Turion or Phenom; Transmeta Efficeon; VIA C3 "Nehemiah" or C7 processors
p88
ss(Vimage
p89
tp90
(dp91
Vinitramfs-generators
p92
(lp93
Vinitramfs-tools
p94
aVinitramfs-fallback
p95
ass(Vimage
p96
g5
tp97
(dp98
Vinstall-stem
p99
Vvmlinuz
p100
sVsuggests
p101
Vcrda
p102
sVbootloaders
p103
(lp104
Vgrub-pc
p105
aVextlinux
p106
aVgrub-efi-amd64
p107
asVbreaks
p108
Vxserver-xorg-input-vmmouse (<< 1:13.0.99)
p109
ss(Vbase
p110
tp111
(dp112
Varches
p113
(lp114
Vamd64
p115
aVi386
p116
asVcompiler
p117
Vgcc-6
p118
sVfeaturesets
p119
(lp120
Vnone
p121
ass(Vimage
p122
g35
tp123
(dp124
Vinstall-stem
p125
Vvmlinuz
p126
sVsuggests
p127
Vcrda
p128
sVbootloaders
p129
(lp130
Vgrub-pc
p131
aVextlinux
p132
aVgrub-efi-ia32
p133
asVbreaks
p134
Vxserver-xorg-input-vmmouse (<< 1:13.0.99)
p135
ss(Vbase
p136
g5
g6
tp137
(dp138
g72
I01
sg73
(lp139
Vaptosid-amd64
p140
ass(Vdescription
p141
g5
NVaptosid-amd64
p142
tp143
(dp144
Vhardware
p145
V64-bit PCs
p146
sVhardware-long
p147
VPCs with AMD64 or Intel 64 processors
p148
ss(Vdescription
p149
g5
g6
Vaptosid-amd64
p150
tp151
(dp152
Vparts
p153
(lp154
Vxen
p155
asstp156
Rp157
.