ccopy_reg
_reconstructor
p0
(cdebian_linux.config
ConfigCore
p1
c__builtin__
dict
p2
(dp3
(Vbase
p4
Vamd64
p5
tp6
(dp7
Vfeaturesets
p8
(lp9
Vnone
p10
aVnone
p11
asVkernel-arch
p12
Vx86
p13
ss(Vdescription
p14
Vi386
p15
NVaptosid-686
p16
tp17
(dp18
Vhardware
p19
Vmodern PCs
p20
sVhardware-long
p21
VPCs with Intel Pentium Pro/II/III/4/4M/D/M, Xeon, Celeron, Core or Atom; AMD Geode LX/NX, Athlon (K7), Duron, Opteron, Sempron, Turion or Phenom; Transmeta Efficeon; VIA C3 "Nehemiah" or C7 processors
p22
ss(Vbase
p23
g15
tp24
(dp25
Vfeaturesets
p26
(lp27
g10
aVnone
p28
asVkernel-arch
p29
Vx86
p30
ss(Vversion
p31
tp32
(dp33
Vabiname_base
p34
V4.3.0
p35
sVupstream
p36
V4.3
p37
sVabiname
p38
V4.3.0-1.slh.1
p39
sVsource
p40
V4.3-6
p41
ss(Vbuild
p42
g15
tp43
(dp44
Vimage-file
p45
Varch/x86/boot/bzImage
p46
sVdebug-info
p47
I00
ss(Vbase
p48
tp49
(dp50
Vfeaturesets
p51
(lp52
Vnone
p53
asVarches
p54
(lp55
Vamd64
p56
aVi386
p57
asVcompiler
p58
Vgcc-5
p59
ss(Vrelations
p60
tp61
(dp62
Vinitramfs-fallback
p63
Vlinux-initramfs-tool
p64
sVinitramfs-tools
p65
Vinitramfs-tools (>= 0.118+c0.aptosid.1~)
p66
sVgcc-5
p67
Vgcc-5
p68
ss(Vimage
p69
g15
tp70
(dp71
Vbootloaders
p72
(lp73
Vgrub-pc
p74
aVextlinux
p75
aVgrub-efi-ia32
p76
asVconfigs
p77
(lp78
sVinstall-stem
p79
Vvmlinuz
p80
sVsuggests
p81
Vcrda
p82
ss(Vabi
p83
tp84
(dp85
Vabiname
p86
V1.slh.1
p87
ss(Vimage
p88
g5
tp89
(dp90
Vbootloaders
p91
(lp92
Vgrub-pc
p93
aVextlinux
p94
aVgrub-efi-amd64
p95
asVconfigs
p96
(lp97
sVinstall-stem
p98
Vvmlinuz
p99
sVsuggests
p100
Vcrda
p101
ss(Vbuild
p102
g5
tp103
(dp104
Vimage-file
p105
Varch/x86/boot/bzImage
p106
sVdebug-info
p107
I00
ss(Vdescription
p108
g5
NVaptosid-amd64
p109
tp110
(dp111
Vhardware
p112
V64-bit PCs
p113
sVhardware-long
p114
VPCs with AMD64 or Intel 64 processors
p115
ss(Vimage
p116
g5
NVaptosid-amd64
p117
tp118
(dp119
Vconfigs
p120
(lp121
Vkernelarch-x86/config-arch-64
p122
ass(Vimage
p123
tp124
(dp125
Vtype
p126
Vplain
p127
sVinitramfs-generators
p128
(lp129
Vinitramfs-tools
p130
aVinitramfs-fallback
p131
ass(Vdescription
p132
g5
g11
Vaptosid-amd64
p133
tp134
(dp135
Vparts
p136
(lp137
Vxen
p138
ass(Vbase
p139
g5
g11
tp140
(dp141
Vflavours
p142
(lp143
Vaptosid-amd64
p144
asVimplicit-flavour
p145
I01
ss(Vxen
p146
g5
g11
Vaptosid-amd64
p147
tp148
(dp149
Vflavours
p150
(lp151
Vaptosid-amd64
p152
ass(Vimage
p153
g15
NVaptosid-686
p154
tp155
(dp156
Vconfigs
p157
(lp158
Vkernelarch-x86/config-arch-32
p159
asVrecommends
p160
Vlibc6-i686
p161
ss(Vbase
p162
g15
g28
tp163
(dp164
g142
(lp165
Vaptosid-686
p166
asg145
I01
ss(Vdescription
p167
tp168
(dp169
Vpart-long-up
p170
VThis kernel is not suitable for SMP (multi-processor,\u000amulti-core or hyper-threaded) systems.
p171
sVpart-long-xen
p172
VThis kernel also runs on a Xen hypervisor.\u000aIt supports both privileged (dom0) and unprivileged (domU) operation.
p173
sstp174
Rp175
.