ccopy_reg
_reconstructor
p0
(cdebian_linux.config
ConfigCore
p1
c__builtin__
dict
p2
(dp3
(Vdescription
p4
tp5
(dp6
Vpart-long-xen
p7
VThis kernel also runs on a Xen hypervisor.\u000aIt supports both privileged (dom0) and unprivileged (domU) operation.
p8
sVpart-long-up
p9
VThis kernel is not suitable for SMP (multi-processor,\u000amulti-core or hyper-threaded) systems.
p10
ss(Vrelations
p11
tp12
(dp13
Vinitramfs-fallback
p14
Vlinux-initramfs-tool
p15
sVgcc-7
p16
Vgcc-7
p17
sVinitramfs-tools
p18
Vinitramfs-tools (>= 0.121~)
p19
ss(Vbuild
p20
Vamd64
p21
tp22
(dp23
Vimage-file
p24
Varch/x86/boot/bzImage
p25
sVdebug-info
p26
I00
ss(Vimage
p27
tp28
(dp29
Vinitramfs-generators
p30
(lp31
Vinitramfs-tools
p32
aVinitramfs-fallback
p33
ass(Vimage
p34
g21
tp35
(dp36
Vinstall-stem
p37
Vvmlinuz
p38
sVbreaks
p39
Vxserver-xorg-input-vmmouse (<< 1:13.0.99)
p40
sVbootloaders
p41
(lp42
Vgrub-pc
p43
aVextlinux
p44
aVgrub-efi-amd64
p45
asVsuggests
p46
Vcrda
p47
ss(Vversion
p48
tp49
(dp50
Vabiname_base
p51
V4.12.0
p52
sVabiname
p53
V4.12.0-8.slh.1
p54
sVsource
p55
V4.12-16
p56
sVupstream
p57
V4.12
p58
ss(Vabi
p59
tp60
(dp61
Vabiname
p62
V8.slh.1
p63
ss(Vdescription
p64
g21
Vnone
p65
Vaptosid-amd64
p66
tp67
(dp68
Vparts
p69
(lp70
Vxen
p71
ass(Vdescription
p72
Vi386
p73
NVaptosid-686
p74
tp75
(dp76
Vhardware
p77
Vmodern PCs
p78
sVhardware-long
p79
VPCs with Intel Pentium Pro/II/III/4/4M/D/M, Xeon, Celeron, Core or Atom; AMD Geode LX/NX, Athlon (K7), Duron, Opteron, Sempron, Turion or Phenom; Transmeta Efficeon; VIA C3 "Nehemiah" or C7 processors
p80
ss(Vimage
p81
g73
tp82
(dp83
Vinstall-stem
p84
Vvmlinuz
p85
sVbreaks
p86
Vxserver-xorg-input-vmmouse (<< 1:13.0.99)
p87
sVbootloaders
p88
(lp89
Vgrub-pc
p90
aVextlinux
p91
aVgrub-efi-ia32
p92
asVsuggests
p93
Vcrda
p94
ss(Vbuild
p95
g73
tp96
(dp97
Vimage-file
p98
Varch/x86/boot/bzImage
p99
sVdebug-info
p100
I00
ss(Vdescription
p101
g21
NVaptosid-amd64
p102
tp103
(dp104
Vhardware
p105
V64-bit PCs
p106
sVhardware-long
p107
VPCs with AMD64 or Intel 64 processors
p108
ss(Vbase
p109
tp110
(dp111
Vfeaturesets
p112
(lp113
Vnone
p114
asVarches
p115
(lp116
Vamd64
p117
aVi386
p118
asVcompiler
p119
Vgcc-7
p120
ss(Vbase
p121
g73
Vnone
p122
tp123
(dp124
Vflavours
p125
(lp126
Vaptosid-686
p127
asVimplicit-flavour
p128
I01
ss(Vbase
p129
g21
g65
tp130
(dp131
g125
(lp132
Vaptosid-amd64
p133
asg128
I01
ss(Vbase
p134
g21
tp135
(dp136
Vfeaturesets
p137
(lp138
Vnone
p139
ag65
asVkernel-arch
p140
Vx86
p141
ss(Vbase
p142
g73
tp143
(dp144
Vfeaturesets
p145
(lp146
g139
ag122
asVkernel-arch
p147
Vx86
p148
sstp149
Rp150
.