ccopy_reg
_reconstructor
p0
(cdebian_linux.config
ConfigCore
p1
c__builtin__
dict
p2
(dp3
(Vimage
p4
Vi386
p5
tp6
(dp7
Vinstall-stem
p8
Vvmlinuz
p9
sVbreaks
p10
Vxserver-xorg-input-vmmouse (<< 1:13.0.99)
p11
sVsuggests
p12
Vcrda
p13
sVbootloaders
p14
(lp15
Vgrub-pc
p16
aVextlinux
p17
aVgrub-efi-ia32
p18
ass(Vbase
p19
g5
Vnone
p20
tp21
(dp22
Vflavours
p23
(lp24
Vaptosid-686
p25
asVimplicit-flavour
p26
I01
ss(Vbuild
p27
g5
tp28
(dp29
Vimage-file
p30
Varch/x86/boot/bzImage
p31
sVdebug-info
p32
I00
ss(Vbuild
p33
Vamd64
p34
tp35
(dp36
Vimage-file
p37
Varch/x86/boot/bzImage
p38
sVdebug-info
p39
I00
ss(Vabi
p40
tp41
(dp42
Vabiname
p43
V12.slh.1
p44
ss(Vbase
p45
g5
tp46
(dp47
Vfeaturesets
p48
(lp49
Vnone
p50
ag20
asVkernel-arch
p51
Vx86
p52
ss(Vbase
p53
g34
Vnone
p54
tp55
(dp56
g23
(lp57
Vaptosid-amd64
p58
asg26
I01
ss(Vbase
p59
g34
tp60
(dp61
Vfeaturesets
p62
(lp63
g50
ag54
asVkernel-arch
p64
Vx86
p65
ss(Vversion
p66
tp67
(dp68
Vsource
p69
V4.10-18
p70
sVupstream
p71
V4.10
p72
sVabiname
p73
V4.10.0-12.slh.1
p74
sVabiname_base
p75
V4.10.0
p76
ss(Vimage
p77
tp78
(dp79
Vinitramfs-generators
p80
(lp81
Vinitramfs-tools
p82
aVinitramfs-fallback
p83
ass(Vdescription
p84
g5
NVaptosid-686
p85
tp86
(dp87
Vhardware
p88
Vmodern PCs
p89
sVhardware-long
p90
VPCs with Intel Pentium Pro/II/III/4/4M/D/M, Xeon, Celeron, Core or Atom; AMD Geode LX/NX, Athlon (K7), Duron, Opteron, Sempron, Turion or Phenom; Transmeta Efficeon; VIA C3 "Nehemiah" or C7 processors
p91
ss(Vdescription
p92
g34
g54
Vaptosid-amd64
p93
tp94
(dp95
Vparts
p96
(lp97
Vxen
p98
ass(Vimage
p99
g34
tp100
(dp101
Vinstall-stem
p102
Vvmlinuz
p103
sVbreaks
p104
Vxserver-xorg-input-vmmouse (<< 1:13.0.99)
p105
sVsuggests
p106
Vcrda
p107
sVbootloaders
p108
(lp109
Vgrub-pc
p110
aVextlinux
p111
aVgrub-efi-amd64
p112
ass(Vdescription
p113
tp114
(dp115
Vpart-long-xen
p116
VThis kernel also runs on a Xen hypervisor.\u000aIt supports both privileged (dom0) and unprivileged (domU) operation.
p117
sVpart-long-up
p118
VThis kernel is not suitable for SMP (multi-processor,\u000amulti-core or hyper-threaded) systems.
p119
ss(Vbase
p120
tp121
(dp122
Vfeaturesets
p123
(lp124
Vnone
p125
asVarches
p126
(lp127
Vamd64
p128
aVi386
p129
asVcompiler
p130
Vgcc-6
p131
ss(Vdescription
p132
g34
NVaptosid-amd64
p133
tp134
(dp135
Vhardware
p136
V64-bit PCs
p137
sVhardware-long
p138
VPCs with AMD64 or Intel 64 processors
p139
ss(Vrelations
p140
tp141
(dp142
Vinitramfs-fallback
p143
Vlinux-initramfs-tool
p144
sVgcc-6
p145
Vgcc-6
p146
sVinitramfs-tools
p147
Vinitramfs-tools (>= 0.121~)
p148
sstp149
Rp150
.