ccopy_reg
_reconstructor
p0
(cdebian_linux.config
ConfigCore
p1
c__builtin__
dict
p2
(dp3
(Vdescription
p4
Vamd64
p5
NVaptosid-amd64
p6
tp7
(dp8
Vhardware-long
p9
VPCs with AMD64 or Intel 64 processors
p10
sVhardware
p11
V64-bit PCs
p12
ss(Vdescription
p13
Vi386
p14
NVaptosid-686
p15
tp16
(dp17
Vhardware-long
p18
VPCs with Intel Pentium Pro/II/III/4/4M/D/M, Xeon, Celeron, Core or Atom; AMD Geode LX/NX, Athlon (K7), Duron, Opteron, Sempron, Turion or Phenom; Transmeta Efficeon; VIA C3 "Nehemiah" or C7 processors
p19
sVhardware
p20
Vmodern PCs
p21
ss(Vbase
p22
g5
tp23
(dp24
Vfeaturesets
p25
(lp26
Vnone
p27
aVnone
p28
asVkernel-arch
p29
Vx86
p30
ss(Vabi
p31
tp32
(dp33
Vabiname
p34
V9.slh.2
p35
ss(Vbase
p36
g14
Vnone
p37
tp38
(dp39
Vflavours
p40
(lp41
Vaptosid-686
p42
asVimplicit-flavour
p43
I01
ss(Vbase
p44
tp45
(dp46
Varches
p47
(lp48
Vamd64
p49
aVi386
p50
asVcompiler
p51
Vgcc-6
p52
sVfeaturesets
p53
(lp54
Vnone
p55
ass(Vdescription
p56
tp57
(dp58
Vpart-long-up
p59
VThis kernel is not suitable for SMP (multi-processor,\u000amulti-core or hyper-threaded) systems.
p60
sVpart-long-xen
p61
VThis kernel also runs on a Xen hypervisor.\u000aIt supports both privileged (dom0) and unprivileged (domU) operation.
p62
ss(Vbuild
p63
g14
tp64
(dp65
Vimage-file
p66
Varch/x86/boot/bzImage
p67
sVdebug-info
p68
I00
ss(Vimage
p69
g5
tp70
(dp71
Vsuggests
p72
Vcrda
p73
sVbreaks
p74
Vxserver-xorg-input-vmmouse (<< 1:13.0.99)
p75
sVbootloaders
p76
(lp77
Vgrub-pc
p78
aVextlinux
p79
aVgrub-efi-amd64
p80
asVinstall-stem
p81
Vvmlinuz
p82
ss(Vimage
p83
tp84
(dp85
Vinitramfs-generators
p86
(lp87
Vinitramfs-tools
p88
aVinitramfs-fallback
p89
ass(Vbuild
p90
g5
tp91
(dp92
Vimage-file
p93
Varch/x86/boot/bzImage
p94
sVdebug-info
p95
I00
ss(Vversion
p96
tp97
(dp98
Vabiname
p99
V4.9.0-9.slh.2
p100
sVsource
p101
V4.9-16
p102
sVupstream
p103
V4.9
p104
sVabiname_base
p105
V4.9.0
p106
ss(Vimage
p107
g14
tp108
(dp109
Vsuggests
p110
Vcrda
p111
sVbreaks
p112
Vxserver-xorg-input-vmmouse (<< 1:13.0.99)
p113
sVbootloaders
p114
(lp115
Vgrub-pc
p116
aVextlinux
p117
aVgrub-efi-ia32
p118
asVinstall-stem
p119
Vvmlinuz
p120
ss(Vbase
p121
g5
g28
tp122
(dp123
g40
(lp124
Vaptosid-amd64
p125
asg43
I01
ss(Vbase
p126
g14
tp127
(dp128
Vfeaturesets
p129
(lp130
g27
ag37
asVkernel-arch
p131
Vx86
p132
ss(Vrelations
p133
tp134
(dp135
Vinitramfs-fallback
p136
Vlinux-initramfs-tool
p137
sVinitramfs-tools
p138
Vinitramfs-tools (>= 0.121~)
p139
sVgcc-6
p140
Vgcc-6
p141
ss(Vdescription
p142
g5
g28
Vaptosid-amd64
p143
tp144
(dp145
Vparts
p146
(lp147
Vxen
p148
asstp149
Rp150
.