ccopy_reg
_reconstructor
p0
(cdebian_linux.config
ConfigCore
p1
c__builtin__
dict
p2
(dp3
(Vimage
p4
Vi386
p5
tp6
(dp7
Vsuggests
p8
Vcrda
p9
sVbootloaders
p10
(lp11
Vgrub-pc
p12
aVextlinux
p13
aVgrub-efi-ia32
p14
asVbreaks
p15
Vxserver-xorg-input-vmmouse (<< 1:13.0.99)
p16
sVinstall-stem
p17
Vvmlinuz
p18
ss(Vdescription
p19
tp20
(dp21
Vpart-long-xen
p22
VThis kernel also runs on a Xen hypervisor.\u000aIt supports both privileged (dom0) and unprivileged (domU) operation.
p23
sVpart-long-up
p24
VThis kernel is not suitable for SMP (multi-processor,\u000amulti-core or hyper-threaded) systems.
p25
ss(Vimage
p26
tp27
(dp28
Vinitramfs-generators
p29
(lp30
Vinitramfs-tools
p31
aVinitramfs-fallback
p32
ass(Vbase
p33
Vamd64
p34
Vnone
p35
tp36
(dp37
Vimplicit-flavour
p38
I01
sVflavours
p39
(lp40
Vaptosid-amd64
p41
ass(Vbase
p42
tp43
(dp44
Varches
p45
(lp46
Vamd64
p47
aVi386
p48
asVcompiler
p49
Vgcc-6
p50
sVfeaturesets
p51
(lp52
Vnone
p53
ass(Vversion
p54
tp55
(dp56
Vsource
p57
V4.9-7
p58
sVupstream
p59
V4.9
p60
sVabiname
p61
V4.9.0-3.slh.1
p62
sVabiname_base
p63
V4.9.0
p64
ss(Vbase
p65
g5
Vnone
p66
tp67
(dp68
g38
I01
sg39
(lp69
Vaptosid-686
p70
ass(Vbase
p71
g5
tp72
(dp73
Vfeaturesets
p74
(lp75
Vnone
p76
ag66
asVkernel-arch
p77
Vx86
p78
ss(Vdescription
p79
g34
g35
Vaptosid-amd64
p80
tp81
(dp82
Vparts
p83
(lp84
Vxen
p85
ass(Vimage
p86
g34
tp87
(dp88
Vsuggests
p89
Vcrda
p90
sVbootloaders
p91
(lp92
Vgrub-pc
p93
aVextlinux
p94
aVgrub-efi-amd64
p95
asVbreaks
p96
Vxserver-xorg-input-vmmouse (<< 1:13.0.99)
p97
sVinstall-stem
p98
Vvmlinuz
p99
ss(Vbase
p100
g34
tp101
(dp102
Vfeaturesets
p103
(lp104
g76
ag35
asVkernel-arch
p105
Vx86
p106
ss(Vbuild
p107
g34
tp108
(dp109
Vimage-file
p110
Varch/x86/boot/bzImage
p111
sVdebug-info
p112
I00
ss(Vrelations
p113
tp114
(dp115
Vinitramfs-fallback
p116
Vlinux-initramfs-tool
p117
sVgcc-6
p118
Vgcc-6
p119
sVinitramfs-tools
p120
Vinitramfs-tools (>= 0.121~)
p121
ss(Vabi
p122
tp123
(dp124
Vabiname
p125
V3.slh.1
p126
ss(Vdescription
p127
g5
NVaptosid-686
p128
tp129
(dp130
Vhardware-long
p131
VPCs with Intel Pentium Pro/II/III/4/4M/D/M, Xeon, Celeron, Core or Atom; AMD Geode LX/NX, Athlon (K7), Duron, Opteron, Sempron, Turion or Phenom; Transmeta Efficeon; VIA C3 "Nehemiah" or C7 processors
p132
sVhardware
p133
Vmodern PCs
p134
ss(Vdescription
p135
g34
NVaptosid-amd64
p136
tp137
(dp138
Vhardware-long
p139
VPCs with AMD64 or Intel 64 processors
p140
sVhardware
p141
V64-bit PCs
p142
ss(Vbuild
p143
g5
tp144
(dp145
Vimage-file
p146
Varch/x86/boot/bzImage
p147
sVdebug-info
p148
I00
sstp149
Rp150
.