ccopy_reg
_reconstructor
p0
(cdebian_linux.config
ConfigCore
p1
c__builtin__
dict
p2
(dp3
(Vbase
p4
Vi386
p5
tp6
(dp7
Vfeaturesets
p8
(lp9
Vnone
p10
aVnone
p11
asVkernel-arch
p12
Vx86
p13
ss(Vabi
p14
tp15
(dp16
Vabiname
p17
V1.slh.1
p18
ss(Vversion
p19
tp20
(dp21
Vabiname_base
p22
V4.12.0
p23
sVsource
p24
V4.12-3
p25
sVabiname
p26
V4.12.0-1.slh.1
p27
sVupstream
p28
V4.12
p29
ss(Vbuild
p30
g5
tp31
(dp32
Vdebug-info
p33
I00
sVimage-file
p34
Varch/x86/boot/bzImage
p35
ss(Vimage
p36
Vamd64
p37
tp38
(dp39
Vbreaks
p40
Vxserver-xorg-input-vmmouse (<< 1:13.0.99)
p41
sVinstall-stem
p42
Vvmlinuz
p43
sVsuggests
p44
Vcrda
p45
sVbootloaders
p46
(lp47
Vgrub-pc
p48
aVextlinux
p49
aVgrub-efi-amd64
p50
ass(Vrelations
p51
tp52
(dp53
Vinitramfs-fallback
p54
Vlinux-initramfs-tool
p55
sVgcc-6
p56
Vgcc-6
p57
sVinitramfs-tools
p58
Vinitramfs-tools (>= 0.121~)
p59
ss(Vimage
p60
tp61
(dp62
Vinitramfs-generators
p63
(lp64
Vinitramfs-tools
p65
aVinitramfs-fallback
p66
ass(Vbase
p67
tp68
(dp69
Varches
p70
(lp71
Vamd64
p72
aVi386
p73
asVfeaturesets
p74
(lp75
Vnone
p76
asVcompiler
p77
Vgcc-6
p78
ss(Vdescription
p79
g37
Vnone
p80
Vaptosid-amd64
p81
tp82
(dp83
Vparts
p84
(lp85
Vxen
p86
ass(Vdescription
p87
g37
NVaptosid-amd64
p88
tp89
(dp90
Vhardware
p91
V64-bit PCs
p92
sVhardware-long
p93
VPCs with AMD64 or Intel 64 processors
p94
ss(Vbase
p95
g37
g80
tp96
(dp97
Vimplicit-flavour
p98
I01
sVflavours
p99
(lp100
Vaptosid-amd64
p101
ass(Vdescription
p102
g5
NVaptosid-686
p103
tp104
(dp105
Vhardware
p106
Vmodern PCs
p107
sVhardware-long
p108
VPCs with Intel Pentium Pro/II/III/4/4M/D/M, Xeon, Celeron, Core or Atom; AMD Geode LX/NX, Athlon (K7), Duron, Opteron, Sempron, Turion or Phenom; Transmeta Efficeon; VIA C3 "Nehemiah" or C7 processors
p109
ss(Vimage
p110
g5
tp111
(dp112
Vbreaks
p113
Vxserver-xorg-input-vmmouse (<< 1:13.0.99)
p114
sVinstall-stem
p115
Vvmlinuz
p116
sVsuggests
p117
Vcrda
p118
sVbootloaders
p119
(lp120
Vgrub-pc
p121
aVextlinux
p122
aVgrub-efi-ia32
p123
ass(Vbase
p124
g5
g11
tp125
(dp126
g98
I01
sg99
(lp127
Vaptosid-686
p128
ass(Vdescription
p129
tp130
(dp131
Vpart-long-xen
p132
VThis kernel also runs on a Xen hypervisor.\u000aIt supports both privileged (dom0) and unprivileged (domU) operation.
p133
sVpart-long-up
p134
VThis kernel is not suitable for SMP (multi-processor,\u000amulti-core or hyper-threaded) systems.
p135
ss(Vbase
p136
g37
tp137
(dp138
Vfeaturesets
p139
(lp140
g10
ag80
asVkernel-arch
p141
Vx86
p142
ss(Vbuild
p143
g37
tp144
(dp145
Vdebug-info
p146
I00
sVimage-file
p147
Varch/x86/boot/bzImage
p148
sstp149
Rp150
.