ccopy_reg
_reconstructor
p0
(cdebian_linux.config
ConfigCore
p1
c__builtin__
dict
p2
(dp3
(Vbase
p4
Vamd64
p5
Vnone
p6
tp7
(dp8
Vflavours
p9
(lp10
Vaptosid-amd64
p11
asVimplicit-flavour
p12
I01
ss(Vbuild
p13
Vi386
p14
tp15
(dp16
Vimage-file
p17
Varch/x86/boot/bzImage
p18
sVdebug-info
p19
I00
ss(Vbase
p20
g14
tp21
(dp22
Vfeaturesets
p23
(lp24
Vnone
p25
aVnone
p26
asVkernel-arch
p27
Vx86
p28
ss(Vbase
p29
g14
g26
tp30
(dp31
g9
(lp32
Vaptosid-686
p33
asg12
I01
ss(Vbase
p34
g5
tp35
(dp36
Vfeaturesets
p37
(lp38
g25
ag6
asVkernel-arch
p39
Vx86
p40
ss(Vversion
p41
tp42
(dp43
Vupstream
p44
V4.9
p45
sVsource
p46
V4.9-3
p47
sVabiname_base
p48
V4.9.0
p49
sVabiname
p50
V4.9.0-0.slh.3
p51
ss(Vimage
p52
g14
tp53
(dp54
Vinstall-stem
p55
Vvmlinuz
p56
sVbreaks
p57
Vxserver-xorg-input-vmmouse (<< 1:13.0.99)
p58
sVsuggests
p59
Vcrda
p60
sVbootloaders
p61
(lp62
Vgrub-pc
p63
aVextlinux
p64
aVgrub-efi-ia32
p65
ass(Vbuild
p66
g5
tp67
(dp68
Vimage-file
p69
Varch/x86/boot/bzImage
p70
sVdebug-info
p71
I00
ss(Vdescription
p72
tp73
(dp74
Vpart-long-xen
p75
VThis kernel also runs on a Xen hypervisor.\u000aIt supports both privileged (dom0) and unprivileged (domU) operation.
p76
sVpart-long-up
p77
VThis kernel is not suitable for SMP (multi-processor,\u000amulti-core or hyper-threaded) systems.
p78
ss(Vrelations
p79
tp80
(dp81
Vinitramfs-fallback
p82
Vlinux-initramfs-tool
p83
sVinitramfs-tools
p84
Vinitramfs-tools (>= 0.121~)
p85
sVgcc-6
p86
Vgcc-6
p87
ss(Vabi
p88
tp89
(dp90
Vabiname
p91
V0.slh.3
p92
ss(Vimage
p93
g5
tp94
(dp95
Vinstall-stem
p96
Vvmlinuz
p97
sVbreaks
p98
Vxserver-xorg-input-vmmouse (<< 1:13.0.99)
p99
sVsuggests
p100
Vcrda
p101
sVbootloaders
p102
(lp103
Vgrub-pc
p104
aVextlinux
p105
aVgrub-efi-amd64
p106
ass(Vdescription
p107
g14
NVaptosid-686
p108
tp109
(dp110
Vhardware-long
p111
VPCs with Intel Pentium Pro/II/III/4/4M/D/M, Xeon, Celeron, Core or Atom; AMD Geode LX/NX, Athlon (K7), Duron, Opteron, Sempron, Turion or Phenom; Transmeta Efficeon; VIA C3 "Nehemiah" or C7 processors
p112
sVhardware
p113
Vmodern PCs
p114
ss(Vdescription
p115
g5
g6
Vaptosid-amd64
p116
tp117
(dp118
Vparts
p119
(lp120
Vxen
p121
ass(Vimage
p122
tp123
(dp124
Vinitramfs-generators
p125
(lp126
Vinitramfs-tools
p127
aVinitramfs-fallback
p128
ass(Vdescription
p129
g5
NVaptosid-amd64
p130
tp131
(dp132
Vhardware-long
p133
VPCs with AMD64 or Intel 64 processors
p134
sVhardware
p135
V64-bit PCs
p136
ss(Vbase
p137
tp138
(dp139
Varches
p140
(lp141
Vamd64
p142
aVi386
p143
asVfeaturesets
p144
(lp145
Vnone
p146
asVcompiler
p147
Vgcc-6
p148
sstp149
Rp150
.