ccopy_reg
_reconstructor
p0
(cdebian_linux.config
ConfigCore
p1
c__builtin__
dict
p2
(dp3
(Vdescription
p4
Vamd64
p5
NVaptosid-amd64
p6
tp7
(dp8
Vhardware-long
p9
VPCs with AMD64 or Intel 64 processors
p10
sVhardware
p11
V64-bit PCs
p12
ss(Vbase
p13
g5
tp14
(dp15
Vkernel-arch
p16
Vx86
p17
sVfeaturesets
p18
(lp19
Vnone
p20
aVnone
p21
ass(Vbuild
p22
g5
tp23
(dp24
Vdebug-info
p25
I00
sVimage-file
p26
Varch/x86/boot/bzImage
p27
ss(Vdescription
p28
Vi386
p29
NVaptosid-686
p30
tp31
(dp32
Vhardware-long
p33
VPCs with Intel Pentium Pro/II/III/4/4M/D/M, Xeon, Celeron, Core or Atom; AMD Geode LX/NX, Athlon (K7), Duron, Opteron, Sempron, Turion or Phenom; Transmeta Efficeon; VIA C3 "Nehemiah" or C7 processors
p34
sVhardware
p35
Vmodern PCs
p36
ss(Vbase
p37
g29
tp38
(dp39
Vkernel-arch
p40
Vx86
p41
sVfeaturesets
p42
(lp43
g20
aVnone
p44
ass(Vbase
p45
tp46
(dp47
Vfeaturesets
p48
(lp49
Vnone
p50
asVcompiler
p51
Vgcc-5
p52
sVarches
p53
(lp54
Vamd64
p55
aVi386
p56
ass(Vabi
p57
tp58
(dp59
Vabiname
p60
V2.slh.3
p61
ss(Vimage
p62
g29
NVaptosid-686
p63
tp64
(dp65
Vconfigs
p66
(lp67
Vkernelarch-x86/config-arch-32
p68
asVrecommends
p69
Vlibc6-i686
p70
ss(Vimage
p71
g5
NVaptosid-amd64
p72
tp73
(dp74
Vconfigs
p75
(lp76
Vkernelarch-x86/config-arch-64
p77
ass(Vimage
p78
tp79
(dp80
Vinitramfs-generators
p81
(lp82
Vinitramfs-tools
p83
aVinitramfs-fallback
p84
asVtype
p85
Vplain
p86
ss(Vbuild
p87
g29
tp88
(dp89
Vdebug-info
p90
I00
sVimage-file
p91
Varch/x86/boot/bzImage
p92
ss(Vxen
p93
g5
g21
Vaptosid-amd64
p94
tp95
(dp96
Vflavours
p97
(lp98
Vaptosid-amd64
p99
ass(Vrelations
p100
tp101
(dp102
Vinitramfs-tools
p103
Vinitramfs-tools (>= 0.121~)
p104
sVinitramfs-fallback
p105
Vlinux-initramfs-tool
p106
sVgcc-5
p107
Vgcc-5
p108
ss(Vdescription
p109
g5
g21
Vaptosid-amd64
p110
tp111
(dp112
Vparts
p113
(lp114
Vxen
p115
ass(Vdescription
p116
tp117
(dp118
Vpart-long-xen
p119
VThis kernel also runs on a Xen hypervisor.\u000aIt supports both privileged (dom0) and unprivileged (domU) operation.
p120
sVpart-long-up
p121
VThis kernel is not suitable for SMP (multi-processor,\u000amulti-core or hyper-threaded) systems.
p122
ss(Vbase
p123
g5
g21
tp124
(dp125
Vimplicit-flavour
p126
I01
sVflavours
p127
(lp128
Vaptosid-amd64
p129
ass(Vbase
p130
g29
g44
tp131
(dp132
g126
I01
sg127
(lp133
Vaptosid-686
p134
ass(Vimage
p135
g5
tp136
(dp137
Vconfigs
p138
(lp139
sVbootloaders
p140
(lp141
Vgrub-pc
p142
aVextlinux
p143
aVgrub-efi-amd64
p144
asVsuggests
p145
Vcrda
p146
sVinstall-stem
p147
Vvmlinuz
p148
ss(Vversion
p149
tp150
(dp151
Vabiname
p152
V4.5.0-2.slh.3
p153
sVabiname_base
p154
V4.5.0
p155
sVupstream
p156
V4.5
p157
sVsource
p158
V4.5-9
p159
ss(Vimage
p160
g29
tp161
(dp162
Vconfigs
p163
(lp164
sVbootloaders
p165
(lp166
Vgrub-pc
p167
aVextlinux
p168
aVgrub-efi-ia32
p169
asVsuggests
p170
Vcrda
p171
sVinstall-stem
p172
Vvmlinuz
p173
sstp174
Rp175
.