ccopy_reg
_reconstructor
p0
(cdebian_linux.config
ConfigCore
p1
c__builtin__
dict
p2
(dp3
(Vdescription
p4
Vamd64
p5
Vnone
p6
Vaptosid-amd64
p7
tp8
(dp9
Vparts
p10
(lp11
Vxen
p12
ass(Vimage
p13
Vi386
p14
tp15
(dp16
Vbootloaders
p17
(lp18
Vgrub-pc
p19
aVextlinux
p20
aVgrub-efi-ia32
p21
asVsuggests
p22
Vcrda
p23
sVbreaks
p24
Vxserver-xorg-input-vmmouse (<< 1:13.0.99)
p25
sVinstall-stem
p26
Vvmlinuz
p27
ss(Vimage
p28
g5
tp29
(dp30
Vbootloaders
p31
(lp32
Vgrub-pc
p33
aVextlinux
p34
aVgrub-efi-amd64
p35
asVsuggests
p36
Vcrda
p37
sVbreaks
p38
Vxserver-xorg-input-vmmouse (<< 1:13.0.99)
p39
sVinstall-stem
p40
Vvmlinuz
p41
ss(Vbase
p42
tp43
(dp44
Vcompiler
p45
Vgcc-6
p46
sVarches
p47
(lp48
Vamd64
p49
aVi386
p50
asVfeaturesets
p51
(lp52
Vnone
p53
ass(Vdescription
p54
tp55
(dp56
Vpart-long-up
p57
VThis kernel is not suitable for SMP (multi-processor,\u000amulti-core or hyper-threaded) systems.
p58
sVpart-long-xen
p59
VThis kernel also runs on a Xen hypervisor.\u000aIt supports both privileged (dom0) and unprivileged (domU) operation.
p60
ss(Vxen
p61
g5
g6
Vaptosid-amd64
p62
tp63
(dp64
Vflavours
p65
(lp66
Vaptosid-amd64
p67
ass(Vbuild
p68
g5
tp69
(dp70
Vdebug-info
p71
I00
sVimage-file
p72
Varch/x86/boot/bzImage
p73
ss(Vbuild
p74
g14
tp75
(dp76
Vdebug-info
p77
I00
sVimage-file
p78
Varch/x86/boot/bzImage
p79
ss(Vbase
p80
g5
g6
tp81
(dp82
Vimplicit-flavour
p83
I01
sVflavours
p84
(lp85
Vaptosid-amd64
p86
ass(Vabi
p87
tp88
(dp89
Vabiname
p90
V2.slh.1
p91
ss(Vdescription
p92
g14
NVaptosid-686
p93
tp94
(dp95
Vhardware-long
p96
VPCs with Intel Pentium Pro/II/III/4/4M/D/M, Xeon, Celeron, Core or Atom; AMD Geode LX/NX, Athlon (K7), Duron, Opteron, Sempron, Turion or Phenom; Transmeta Efficeon; VIA C3 "Nehemiah" or C7 processors
p97
sVhardware
p98
Vmodern PCs
p99
ss(Vrelations
p100
tp101
(dp102
Vinitramfs-fallback
p103
Vlinux-initramfs-tool
p104
sVgcc-6
p105
Vgcc-6
p106
sVinitramfs-tools
p107
Vinitramfs-tools (>= 0.121~)
p108
ss(Vbase
p109
g14
tp110
(dp111
Vfeaturesets
p112
(lp113
Vnone
p114
aVnone
p115
asVkernel-arch
p116
Vx86
p117
ss(Vbase
p118
g5
tp119
(dp120
Vfeaturesets
p121
(lp122
g114
ag6
asVkernel-arch
p123
Vx86
p124
ss(Vdescription
p125
g5
NVaptosid-amd64
p126
tp127
(dp128
Vhardware-long
p129
VPCs with AMD64 or Intel 64 processors
p130
sVhardware
p131
V64-bit PCs
p132
ss(Vbase
p133
g14
g115
tp134
(dp135
g83
I01
sg84
(lp136
Vaptosid-686
p137
ass(Vimage
p138
tp139
(dp140
Vinitramfs-generators
p141
(lp142
Vinitramfs-tools
p143
aVinitramfs-fallback
p144
ass(Vversion
p145
tp146
(dp147
Vabiname_base
p148
V4.7.0
p149
sVsource
p150
V4.7-10
p151
sVupstream
p152
V4.7
p153
sVabiname
p154
V4.7.0-2.slh.1
p155
sstp156
Rp157
.