ccopy_reg
_reconstructor
p0
(cdebian_linux.config
ConfigCore
p1
c__builtin__
dict
p2
(dp3
(Vdescription
p4
Vi386
p5
NVaptosid-686
p6
tp7
(dp8
Vhardware-long
p9
VPCs with Intel Pentium Pro/II/III/4/4M/D/M, Xeon, Celeron, Core or Atom; AMD Geode LX/NX, Athlon (K7), Duron, Opteron, Sempron, Turion or Phenom; Transmeta Efficeon; VIA C3 "Nehemiah" or C7 processors
p10
sVhardware
p11
Vmodern PCs
p12
ss(Vversion
p13
tp14
(dp15
Vupstream
p16
V4.9
p17
sVabiname_base
p18
V4.9.0
p19
sVabiname
p20
V4.9.0-6.slh.1
p21
sVsource
p22
V4.9-11
p23
ss(Vimage
p24
g5
tp25
(dp26
Vsuggests
p27
Vcrda
p28
sVbreaks
p29
Vxserver-xorg-input-vmmouse (<< 1:13.0.99)
p30
sVinstall-stem
p31
Vvmlinuz
p32
sVbootloaders
p33
(lp34
Vgrub-pc
p35
aVextlinux
p36
aVgrub-efi-ia32
p37
ass(Vdescription
p38
Vamd64
p39
NVaptosid-amd64
p40
tp41
(dp42
Vhardware-long
p43
VPCs with AMD64 or Intel 64 processors
p44
sVhardware
p45
V64-bit PCs
p46
ss(Vbuild
p47
g5
tp48
(dp49
Vimage-file
p50
Varch/x86/boot/bzImage
p51
sVdebug-info
p52
I00
ss(Vbase
p53
g39
Vnone
p54
tp55
(dp56
Vimplicit-flavour
p57
I01
sVflavours
p58
(lp59
Vaptosid-amd64
p60
ass(Vrelations
p61
tp62
(dp63
Vinitramfs-tools
p64
Vinitramfs-tools (>= 0.121~)
p65
sVinitramfs-fallback
p66
Vlinux-initramfs-tool
p67
sVgcc-6
p68
Vgcc-6
p69
ss(Vabi
p70
tp71
(dp72
Vabiname
p73
V6.slh.1
p74
ss(Vimage
p75
tp76
(dp77
Vinitramfs-generators
p78
(lp79
Vinitramfs-tools
p80
aVinitramfs-fallback
p81
ass(Vbase
p82
g5
tp83
(dp84
Vkernel-arch
p85
Vx86
p86
sVfeaturesets
p87
(lp88
Vnone
p89
aVnone
p90
ass(Vbase
p91
tp92
(dp93
Vfeaturesets
p94
(lp95
Vnone
p96
asVarches
p97
(lp98
Vamd64
p99
aVi386
p100
asVcompiler
p101
Vgcc-6
p102
ss(Vbase
p103
g39
tp104
(dp105
Vkernel-arch
p106
Vx86
p107
sVfeaturesets
p108
(lp109
g89
ag54
ass(Vdescription
p110
g39
g54
Vaptosid-amd64
p111
tp112
(dp113
Vparts
p114
(lp115
Vxen
p116
ass(Vbuild
p117
g39
tp118
(dp119
Vimage-file
p120
Varch/x86/boot/bzImage
p121
sVdebug-info
p122
I00
ss(Vdescription
p123
tp124
(dp125
Vpart-long-up
p126
VThis kernel is not suitable for SMP (multi-processor,\u000amulti-core or hyper-threaded) systems.
p127
sVpart-long-xen
p128
VThis kernel also runs on a Xen hypervisor.\u000aIt supports both privileged (dom0) and unprivileged (domU) operation.
p129
ss(Vimage
p130
g39
tp131
(dp132
Vsuggests
p133
Vcrda
p134
sVbreaks
p135
Vxserver-xorg-input-vmmouse (<< 1:13.0.99)
p136
sVinstall-stem
p137
Vvmlinuz
p138
sVbootloaders
p139
(lp140
Vgrub-pc
p141
aVextlinux
p142
aVgrub-efi-amd64
p143
ass(Vbase
p144
g5
g90
tp145
(dp146
g57
I01
sg58
(lp147
Vaptosid-686
p148
asstp149
Rp150
.