ccopy_reg
_reconstructor
p0
(cdebian_linux.config
ConfigCore
p1
c__builtin__
dict
p2
(dp3
(Vversion
p4
tp5
(dp6
Vabiname
p7
V4.8.0-10.slh.2
p8
sVabiname_base
p9
V4.8.0
p10
sVsource
p11
V4.8-16
p12
sVupstream
p13
V4.8
p14
ss(Vbase
p15
tp16
(dp17
Varches
p18
(lp19
Vamd64
p20
aVi386
p21
asVcompiler
p22
Vgcc-6
p23
sVfeaturesets
p24
(lp25
Vnone
p26
ass(Vbase
p27
Vi386
p28
tp29
(dp30
Vkernel-arch
p31
Vx86
p32
sVfeaturesets
p33
(lp34
Vnone
p35
aVnone
p36
ass(Vbuild
p37
Vamd64
p38
tp39
(dp40
Vimage-file
p41
Varch/x86/boot/bzImage
p42
sVdebug-info
p43
I00
ss(Vbase
p44
g28
g36
tp45
(dp46
Vflavours
p47
(lp48
Vaptosid-686
p49
asVimplicit-flavour
p50
I01
ss(Vdescription
p51
tp52
(dp53
Vpart-long-xen
p54
VThis kernel also runs on a Xen hypervisor.\u000aIt supports both privileged (dom0) and unprivileged (domU) operation.
p55
sVpart-long-up
p56
VThis kernel is not suitable for SMP (multi-processor,\u000amulti-core or hyper-threaded) systems.
p57
ss(Vrelations
p58
tp59
(dp60
Vinitramfs-fallback
p61
Vlinux-initramfs-tool
p62
sVgcc-6
p63
Vgcc-6
p64
sVinitramfs-tools
p65
Vinitramfs-tools (>= 0.121~)
p66
ss(Vabi
p67
tp68
(dp69
Vabiname
p70
V10.slh.2
p71
ss(Vimage
p72
g38
tp73
(dp74
Vsuggests
p75
Vcrda
p76
sVbootloaders
p77
(lp78
Vgrub-pc
p79
aVextlinux
p80
aVgrub-efi-amd64
p81
asVinstall-stem
p82
Vvmlinuz
p83
sVbreaks
p84
Vxserver-xorg-input-vmmouse (<< 1:13.0.99)
p85
ss(Vimage
p86
tp87
(dp88
Vinitramfs-generators
p89
(lp90
Vinitramfs-tools
p91
aVinitramfs-fallback
p92
ass(Vxen
p93
g38
Vnone
p94
Vaptosid-amd64
p95
tp96
(dp97
Vflavours
p98
(lp99
Vaptosid-amd64
p100
ass(Vdescription
p101
g28
NVaptosid-686
p102
tp103
(dp104
Vhardware
p105
Vmodern PCs
p106
sVhardware-long
p107
VPCs with Intel Pentium Pro/II/III/4/4M/D/M, Xeon, Celeron, Core or Atom; AMD Geode LX/NX, Athlon (K7), Duron, Opteron, Sempron, Turion or Phenom; Transmeta Efficeon; VIA C3 "Nehemiah" or C7 processors
p108
ss(Vbuild
p109
g28
tp110
(dp111
Vimage-file
p112
Varch/x86/boot/bzImage
p113
sVdebug-info
p114
I00
ss(Vdescription
p115
g38
NVaptosid-amd64
p116
tp117
(dp118
Vhardware
p119
V64-bit PCs
p120
sVhardware-long
p121
VPCs with AMD64 or Intel 64 processors
p122
ss(Vimage
p123
g28
tp124
(dp125
Vsuggests
p126
Vcrda
p127
sVbootloaders
p128
(lp129
Vgrub-pc
p130
aVextlinux
p131
aVgrub-efi-ia32
p132
asVinstall-stem
p133
Vvmlinuz
p134
sVbreaks
p135
Vxserver-xorg-input-vmmouse (<< 1:13.0.99)
p136
ss(Vdescription
p137
g38
g94
Vaptosid-amd64
p138
tp139
(dp140
Vparts
p141
(lp142
Vxen
p143
ass(Vbase
p144
g38
g94
tp145
(dp146
g47
(lp147
Vaptosid-amd64
p148
asg50
I01
ss(Vbase
p149
g38
tp150
(dp151
Vkernel-arch
p152
Vx86
p153
sVfeaturesets
p154
(lp155
g35
ag94
asstp156
Rp157
.