ccopy_reg
_reconstructor
p1
(cdebian_linux.config
ConfigCore
p2
c__builtin__
dict
p3
(dp4
(S'image'
S'amd64'
p5
tp6
(dp7
S'suggests'
p8
S'crda'
p9
sS'configs'
p10
(lp11
S'kernelarch-x86/config'
p12
asS'bootloaders'
p13
(lp14
S'grub-pc'
p15
aS'extlinux'
p16
aS'grub-efi-amd64'
p17
ass(S'image'
S'i386'
p18
NS'aptosid-686'
tp19
(dp20
S'configs'
p21
(lp22
S'kernelarch-x86/config-arch-32'
p23
asS'recommends'
p24
S'libc6-i686'
p25
ss(S'base'
p26
g5
S'none'
p27
tp28
(dp29
S'implicit-flavour'
p30
I01
sS'flavours'
p31
(lp32
S'aptosid-amd64'
p33
ass(S'base'
g5
tp34
(dp35
S'kernel-arch'
p36
S'x86'
p37
sS'featuresets'
p38
(lp39
g27
ass(S'image'
p40
tp41
(dp42
S'initramfs-generators'
p43
(lp44
S'initramfs-tools'
p45
aS'initramfs-fallback'
p46
asS'type'
p47
S'plain'
p48
ss(S'build'
g18
NS'aptosid-686'
tp49
(dp50
S'debug-info'
p51
I00
ss(S'version'
p52
tp53
(dp54
S'abiname'
p55
S'3.10-0.slh.3'
p56
sS'source'
p57
V3.10-3
p58
ss(S'description'
g5
NS'aptosid-amd64'
tp59
(dp60
S'hardware'
p61
S'64-bit PCs'
p62
sS'hardware-long'
p63
S'PCs with AMD64 or Intel 64 processors'
p64
ss(S'base'
p65
g18
tp66
(dp67
S'kernel-arch'
p68
S'x86'
p69
sg38
(lp70
g27
ass(S'image'
g5
NS'aptosid-amd64'
tp71
(dp72
S'configs'
p73
(lp74
S'kernelarch-x86/config-arch-64'
p75
ass(S'description'
g18
NS'aptosid-686'
tp76
(dp77
S'hardware'
p78
S'modern PCs'
p79
sS'hardware-long'
p80
S'PCs with Intel Pentium Pro/II/III/4/4M/D/M, Xeon, Celeron, Core or Atom; AMD Geode LX/NX, Athlon (K7), Duron, Opteron, Sempron, Turion or Phenom; Transmeta Efficeon; VIA C3 "Nehemiah" or C7 processors'
p81
ss(S'abi'
p82
tp83
(dp84
S'abiname'
p85
S'0.slh.3'
p86
ss(S'image'
p87
g18
tp88
(dp89
S'suggests'
p90
S'crda'
p91
sS'configs'
p92
(lp93
S'kernelarch-x86/config'
p94
asS'bootloaders'
p95
(lp96
S'grub-pc'
p97
aS'extlinux'
p98
ass(S'build'
g5
NS'aptosid-amd64'
tp99
(dp100
S'debug-info'
p101
I00
ss(g26
g18
g27
tp102
(dp103
g30
I01
sg31
(lp104
S'aptosid-686'
p105
ass(S'base'
p106
tp107
(dp108
S'arches'
p109
(lp110
S'amd64'
p111
aS'i386'
p112
asS'featuresets'
p113
(lp114
S'none'
p115
asS'compiler'
p116
S'gcc-4.8'
p117
ss(S'relations'
p118
tp119
(dp120
S'initramfs-fallback'
p121
S'linux-initramfs-tool'
p122
sS'lilo'
p123
S'lilo (>= 22.8-8.2~)'
p124
sS'gcc-4.8'
p125
S'gcc-4.8'
p126
sS'initramfs-tools'
p127
S'initramfs-tools (>= 0.110~)'
p128
sS'elilo'
p129
S'elilo (>= 3.12-3.1~)'
p130
sstRp131
.