ccopy_reg
_reconstructor
p0
(cdebian_linux.config
ConfigCore
p1
c__builtin__
dict
p2
(dp3
(Vbase
p4
Vamd64
p5
Vnone
p6
tp7
(dp8
Vflavours
p9
(lp10
Vaptosid-amd64
p11
asVimplicit-flavour
p12
I01
ss(Vimage
p13
tp14
(dp15
Vinitramfs-generators
p16
(lp17
Vinitramfs-tools
p18
aVinitramfs-fallback
p19
ass(Vbuild
p20
Vi386
p21
tp22
(dp23
Vdebug-info
p24
I00
sVimage-file
p25
Varch/x86/boot/bzImage
p26
ss(Vdescription
p27
g5
NVaptosid-amd64
p28
tp29
(dp30
Vhardware-long
p31
VPCs with AMD64 or Intel 64 processors
p32
sVhardware
p33
V64-bit PCs
p34
ss(Vbuild
p35
g5
tp36
(dp37
Vdebug-info
p38
I00
sVimage-file
p39
Varch/x86/boot/bzImage
p40
ss(Vimage
p41
g5
tp42
(dp43
Vbreaks
p44
Vxserver-xorg-input-vmmouse (<< 1:13.0.99)
p45
sVbootloaders
p46
(lp47
Vgrub-pc
p48
aVextlinux
p49
aVgrub-efi-amd64
p50
asVinstall-stem
p51
Vvmlinuz
p52
sVsuggests
p53
Vcrda
p54
ss(Vdescription
p55
g21
NVaptosid-686
p56
tp57
(dp58
Vhardware-long
p59
VPCs with Intel Pentium Pro/II/III/4/4M/D/M, Xeon, Celeron, Core or Atom; AMD Geode LX/NX, Athlon (K7), Duron, Opteron, Sempron, Turion or Phenom; Transmeta Efficeon; VIA C3 "Nehemiah" or C7 processors
p60
sVhardware
p61
Vmodern PCs
p62
ss(Vdescription
p63
g5
g6
Vaptosid-amd64
p64
tp65
(dp66
Vparts
p67
(lp68
Vxen
p69
ass(Vbase
p70
g5
tp71
(dp72
Vfeaturesets
p73
(lp74
Vnone
p75
ag6
asVkernel-arch
p76
Vx86
p77
ss(Vbase
p78
g21
Vnone
p79
tp80
(dp81
g9
(lp82
Vaptosid-686
p83
asg12
I01
ss(Vrelations
p84
tp85
(dp86
Vinitramfs-fallback
p87
Vlinux-initramfs-tool
p88
sVinitramfs-tools
p89
Vinitramfs-tools (>= 0.121~)
p90
sVgcc-7
p91
Vgcc-7
p92
ss(Vimage
p93
g21
tp94
(dp95
Vbreaks
p96
Vxserver-xorg-input-vmmouse (<< 1:13.0.99)
p97
sVbootloaders
p98
(lp99
Vgrub-pc
p100
aVextlinux
p101
aVgrub-efi-ia32
p102
asVinstall-stem
p103
Vvmlinuz
p104
sVsuggests
p105
Vcrda
p106
ss(Vdescription
p107
tp108
(dp109
Vpart-long-xen
p110
VThis kernel also runs on a Xen hypervisor.\u000aIt supports both privileged (dom0) and unprivileged (domU) operation.
p111
sVpart-long-up
p112
VThis kernel is not suitable for SMP (multi-processor,\u000amulti-core or hyper-threaded) systems.
p113
ss(Vversion
p114
tp115
(dp116
Vsource
p117
V4.13-7
p118
sVabiname
p119
V4.13.0-3.slh.1
p120
sVabiname_base
p121
V4.13.0
p122
sVupstream
p123
V4.13
p124
ss(Vbase
p125
tp126
(dp127
Vfeaturesets
p128
(lp129
Vnone
p130
asVarches
p131
(lp132
Vamd64
p133
aVi386
p134
asVcompiler
p135
Vgcc-7
p136
ss(Vabi
p137
tp138
(dp139
Vabiname
p140
V3.slh.1
p141
ss(Vbase
p142
g21
tp143
(dp144
Vfeaturesets
p145
(lp146
g75
ag79
asVkernel-arch
p147
Vx86
p148
sstp149
Rp150
.