ccopy_reg
_reconstructor
p0
(cdebian_linux.config
ConfigCore
p1
c__builtin__
dict
p2
(dp3
(Vrelations
p4
tp5
(dp6
Vinitramfs-tools
p7
Vinitramfs-tools (>= 0.121~)
p8
sVinitramfs-fallback
p9
Vlinux-initramfs-tool
p10
sVgcc-7
p11
Vgcc-7
p12
ss(Vbuild
p13
Vamd64
p14
tp15
(dp16
Vimage-file
p17
Varch/x86/boot/bzImage
p18
sVdebug-info
p19
I00
ss(Vbase
p20
tp21
(dp22
Vcompiler
p23
Vgcc-7
p24
sVfeaturesets
p25
(lp26
Vnone
p27
asVarches
p28
(lp29
Vamd64
p30
aVi386
p31
ass(Vdescription
p32
g14
Vnone
p33
Vaptosid-amd64
p34
tp35
(dp36
Vparts
p37
(lp38
Vxen
p39
ass(Vimage
p40
tp41
(dp42
Vinitramfs-generators
p43
(lp44
Vinitramfs-tools
p45
aVinitramfs-fallback
p46
ass(Vbase
p47
Vi386
p48
tp49
(dp50
Vfeaturesets
p51
(lp52
Vnone
p53
aVnone
p54
asVkernel-arch
p55
Vx86
p56
ss(Vdescription
p57
tp58
(dp59
Vpart-long-up
p60
VThis kernel is not suitable for SMP (multi-processor,\u000amulti-core or hyper-threaded) systems.
p61
sVpart-long-xen
p62
VThis kernel also runs on a Xen hypervisor.\u000aIt supports both privileged (dom0) and unprivileged (domU) operation.
p63
ss(Vabi
p64
tp65
(dp66
Vabiname
p67
V10.slh.1
p68
ss(Vdescription
p69
g48
NVaptosid-686
p70
tp71
(dp72
Vhardware
p73
Vmodern PCs
p74
sVhardware-long
p75
VPCs with Intel Pentium Pro/II/III/4/4M/D/M, Xeon, Celeron, Core or Atom; AMD Geode LX/NX, Athlon (K7), Duron, Opteron, Sempron, Turion or Phenom; Transmeta Efficeon; VIA C3 "Nehemiah" or C7 processors
p76
ss(Vbase
p77
g48
g54
tp78
(dp79
Vimplicit-flavour
p80
I01
sVflavours
p81
(lp82
Vaptosid-686
p83
ass(Vversion
p84
tp85
(dp86
Vsource
p87
V4.12-20
p88
sVabiname
p89
V4.12.0-10.slh.1
p90
sVupstream
p91
V4.12
p92
sVabiname_base
p93
V4.12.0
p94
ss(Vimage
p95
g48
tp96
(dp97
Vbootloaders
p98
(lp99
Vgrub-pc
p100
aVextlinux
p101
aVgrub-efi-ia32
p102
asVbreaks
p103
Vxserver-xorg-input-vmmouse (<< 1:13.0.99)
p104
sVinstall-stem
p105
Vvmlinuz
p106
sVsuggests
p107
Vcrda
p108
ss(Vbase
p109
g14
tp110
(dp111
Vfeaturesets
p112
(lp113
g53
ag33
asVkernel-arch
p114
Vx86
p115
ss(Vimage
p116
g14
tp117
(dp118
Vbootloaders
p119
(lp120
Vgrub-pc
p121
aVextlinux
p122
aVgrub-efi-amd64
p123
asVbreaks
p124
Vxserver-xorg-input-vmmouse (<< 1:13.0.99)
p125
sVinstall-stem
p126
Vvmlinuz
p127
sVsuggests
p128
Vcrda
p129
ss(Vdescription
p130
g14
NVaptosid-amd64
p131
tp132
(dp133
Vhardware
p134
V64-bit PCs
p135
sVhardware-long
p136
VPCs with AMD64 or Intel 64 processors
p137
ss(Vbase
p138
g14
g33
tp139
(dp140
g80
I01
sg81
(lp141
Vaptosid-amd64
p142
ass(Vbuild
p143
g48
tp144
(dp145
Vimage-file
p146
Varch/x86/boot/bzImage
p147
sVdebug-info
p148
I00
sstp149
Rp150
.