ccopy_reg
_reconstructor
p0
(cdebian_linux.config
ConfigCore
p1
c__builtin__
dict
p2
(dp3
(Vversion
p4
tp5
(dp6
Vabiname_base
p7
V4.5.0
p8
sVsource
p9
V4.5-8
p10
sVupstream
p11
V4.5
p12
sVabiname
p13
V4.5.0-2.slh.2
p14
ss(Vbase
p15
Vamd64
p16
tp17
(dp18
Vfeaturesets
p19
(lp20
Vnone
p21
aVnone
p22
asVkernel-arch
p23
Vx86
p24
ss(Vdescription
p25
g16
NVaptosid-amd64
p26
tp27
(dp28
Vhardware-long
p29
VPCs with AMD64 or Intel 64 processors
p30
sVhardware
p31
V64-bit PCs
p32
ss(Vbase
p33
Vi386
p34
Vnone
p35
tp36
(dp37
Vflavours
p38
(lp39
Vaptosid-686
p40
asVimplicit-flavour
p41
I01
ss(Vbase
p42
tp43
(dp44
Vcompiler
p45
Vgcc-5
p46
sVfeaturesets
p47
(lp48
Vnone
p49
asVarches
p50
(lp51
Vamd64
p52
aVi386
p53
ass(Vabi
p54
tp55
(dp56
Vabiname
p57
V2.slh.2
p58
ss(Vxen
p59
g16
g22
Vaptosid-amd64
p60
tp61
(dp62
Vflavours
p63
(lp64
Vaptosid-amd64
p65
ass(Vdescription
p66
g16
g22
Vaptosid-amd64
p67
tp68
(dp69
Vparts
p70
(lp71
Vxen
p72
ass(Vimage
p73
g16
NVaptosid-amd64
p74
tp75
(dp76
Vconfigs
p77
(lp78
Vkernelarch-x86/config-arch-64
p79
ass(Vbase
p80
g34
tp81
(dp82
Vfeaturesets
p83
(lp84
g21
ag35
asVkernel-arch
p85
Vx86
p86
ss(Vimage
p87
g34
tp88
(dp89
Vsuggests
p90
Vcrda
p91
sVinstall-stem
p92
Vvmlinuz
p93
sVconfigs
p94
(lp95
sVbootloaders
p96
(lp97
Vgrub-pc
p98
aVextlinux
p99
aVgrub-efi-ia32
p100
ass(Vbuild
p101
g34
tp102
(dp103
Vimage-file
p104
Varch/x86/boot/bzImage
p105
sVdebug-info
p106
I00
ss(Vdescription
p107
g34
NVaptosid-686
p108
tp109
(dp110
Vhardware-long
p111
VPCs with Intel Pentium Pro/II/III/4/4M/D/M, Xeon, Celeron, Core or Atom; AMD Geode LX/NX, Athlon (K7), Duron, Opteron, Sempron, Turion or Phenom; Transmeta Efficeon; VIA C3 "Nehemiah" or C7 processors
p112
sVhardware
p113
Vmodern PCs
p114
ss(Vbuild
p115
g16
tp116
(dp117
Vimage-file
p118
Varch/x86/boot/bzImage
p119
sVdebug-info
p120
I00
ss(Vimage
p121
tp122
(dp123
Vinitramfs-generators
p124
(lp125
Vinitramfs-tools
p126
aVinitramfs-fallback
p127
asVtype
p128
Vplain
p129
ss(Vbase
p130
g16
g22
tp131
(dp132
g38
(lp133
Vaptosid-amd64
p134
asg41
I01
ss(Vdescription
p135
tp136
(dp137
Vpart-long-up
p138
VThis kernel is not suitable for SMP (multi-processor,\u000amulti-core or hyper-threaded) systems.
p139
sVpart-long-xen
p140
VThis kernel also runs on a Xen hypervisor.\u000aIt supports both privileged (dom0) and unprivileged (domU) operation.
p141
ss(Vimage
p142
g16
tp143
(dp144
Vsuggests
p145
Vcrda
p146
sVinstall-stem
p147
Vvmlinuz
p148
sVconfigs
p149
(lp150
sVbootloaders
p151
(lp152
Vgrub-pc
p153
aVextlinux
p154
aVgrub-efi-amd64
p155
ass(Vimage
p156
g34
NVaptosid-686
p157
tp158
(dp159
Vconfigs
p160
(lp161
Vkernelarch-x86/config-arch-32
p162
asVrecommends
p163
Vlibc6-i686
p164
ss(Vrelations
p165
tp166
(dp167
Vgcc-5
p168
Vgcc-5
p169
sVinitramfs-tools
p170
Vinitramfs-tools (>= 0.121~)
p171
sVinitramfs-fallback
p172
Vlinux-initramfs-tool
p173
sstp174
Rp175
.