ccopy_reg
_reconstructor
p0
(cdebian_linux.config
ConfigCore
p1
c__builtin__
dict
p2
(dp3
(Vbase
p4
tp5
(dp6
Varches
p7
(lp8
Vamd64
p9
aVi386
p10
asVcompiler
p11
Vgcc-7
p12
sVfeaturesets
p13
(lp14
Vnone
p15
ass(Vabi
p16
tp17
(dp18
Vabiname
p19
V5.slh.2
p20
ss(Vbase
p21
Vamd64
p22
tp23
(dp24
Vfeaturesets
p25
(lp26
Vnone
p27
aVnone
p28
asVkernel-arch
p29
Vx86
p30
ss(Vdescription
p31
g22
g28
Vaptosid-amd64
p32
tp33
(dp34
Vparts
p35
(lp36
Vxen
p37
ass(Vbase
p38
g22
g28
tp39
(dp40
Vimplicit-flavour
p41
I01
sVflavours
p42
(lp43
Vaptosid-amd64
p44
ass(Vbase
p45
Vi386
p46
tp47
(dp48
Vfeaturesets
p49
(lp50
g27
aVnone
p51
asVkernel-arch
p52
Vx86
p53
ss(Vdescription
p54
tp55
(dp56
Vpart-long-xen
p57
VThis kernel also runs on a Xen hypervisor.\u000aIt supports both privileged (dom0) and unprivileged (domU) operation.
p58
sVpart-long-up
p59
VThis kernel is not suitable for SMP (multi-processor,\u000amulti-core or hyper-threaded) systems.
p60
ss(Vrelations
p61
tp62
(dp63
Vgcc-7
p64
Vgcc-7
p65
sVinitramfs-tools
p66
Vinitramfs-tools (>= 0.121~)
p67
sVinitramfs-fallback
p68
Vlinux-initramfs-tool
p69
ss(Vimage
p70
g46
tp71
(dp72
Vbreaks
p73
Vxserver-xorg-input-vmmouse (<< 1:13.0.99)
p74
sVsuggests
p75
Vcrda
p76
sVbootloaders
p77
(lp78
Vgrub-pc
p79
aVextlinux
p80
aVgrub-efi-ia32
p81
asVinstall-stem
p82
Vvmlinuz
p83
ss(Vbuild
p84
g22
tp85
(dp86
Vimage-file
p87
Varch/x86/boot/bzImage
p88
sVdebug-info
p89
I00
ss(Vbase
p90
g46
g51
tp91
(dp92
g41
I01
sg42
(lp93
Vaptosid-686
p94
ass(Vdescription
p95
g46
NVaptosid-686
p96
tp97
(dp98
Vhardware-long
p99
VPCs with Intel Pentium Pro/II/III/4/4M/D/M, Xeon, Celeron, Core or Atom; AMD Geode LX/NX, Athlon (K7), Duron, Opteron, Sempron, Turion or Phenom; Transmeta Efficeon; VIA C3 "Nehemiah" or C7 processors
p100
sVhardware
p101
Vmodern PCs
p102
ss(Vversion
p103
tp104
(dp105
Vsource
p106
V4.12-12
p107
sVupstream
p108
V4.12
p109
sVabiname_base
p110
V4.12.0
p111
sVabiname
p112
V4.12.0-5.slh.2
p113
ss(Vdescription
p114
g22
NVaptosid-amd64
p115
tp116
(dp117
Vhardware-long
p118
VPCs with AMD64 or Intel 64 processors
p119
sVhardware
p120
V64-bit PCs
p121
ss(Vimage
p122
tp123
(dp124
Vinitramfs-generators
p125
(lp126
Vinitramfs-tools
p127
aVinitramfs-fallback
p128
ass(Vimage
p129
g22
tp130
(dp131
Vbreaks
p132
Vxserver-xorg-input-vmmouse (<< 1:13.0.99)
p133
sVsuggests
p134
Vcrda
p135
sVbootloaders
p136
(lp137
Vgrub-pc
p138
aVextlinux
p139
aVgrub-efi-amd64
p140
asVinstall-stem
p141
Vvmlinuz
p142
ss(Vbuild
p143
g46
tp144
(dp145
Vimage-file
p146
Varch/x86/boot/bzImage
p147
sVdebug-info
p148
I00
sstp149
Rp150
.