ccopy_reg
_reconstructor
p0
(cdebian_linux.config
ConfigCore
p1
c__builtin__
dict
p2
(dp3
(Vabi
p4
tp5
(dp6
Vabiname
p7
V1.slh.1
p8
ss(Vversion
p9
tp10
(dp11
Vabiname
p12
V4.7.0-1.slh.1
p13
sVupstream
p14
V4.7
p15
sVsource
p16
V4.7-8
p17
sVabiname_base
p18
V4.7.0
p19
ss(Vbuild
p20
Vi386
p21
tp22
(dp23
Vdebug-info
p24
I00
sVimage-file
p25
Varch/x86/boot/bzImage
p26
ss(Vdescription
p27
g21
NVaptosid-686
p28
tp29
(dp30
Vhardware-long
p31
VPCs with Intel Pentium Pro/II/III/4/4M/D/M, Xeon, Celeron, Core or Atom; AMD Geode LX/NX, Athlon (K7), Duron, Opteron, Sempron, Turion or Phenom; Transmeta Efficeon; VIA C3 "Nehemiah" or C7 processors
p32
sVhardware
p33
Vmodern PCs
p34
ss(Vdescription
p35
tp36
(dp37
Vpart-long-xen
p38
VThis kernel also runs on a Xen hypervisor.\u000aIt supports both privileged (dom0) and unprivileged (domU) operation.
p39
sVpart-long-up
p40
VThis kernel is not suitable for SMP (multi-processor,\u000amulti-core or hyper-threaded) systems.
p41
ss(Vbase
p42
g21
Vnone
p43
tp44
(dp45
Vflavours
p46
(lp47
Vaptosid-686
p48
asVimplicit-flavour
p49
I01
ss(Vbase
p50
g21
tp51
(dp52
Vfeaturesets
p53
(lp54
Vnone
p55
ag43
asVkernel-arch
p56
Vx86
p57
ss(Vxen
p58
Vamd64
p59
Vnone
p60
Vaptosid-amd64
p61
tp62
(dp63
Vflavours
p64
(lp65
Vaptosid-amd64
p66
ass(Vdescription
p67
g59
NVaptosid-amd64
p68
tp69
(dp70
Vhardware-long
p71
VPCs with AMD64 or Intel 64 processors
p72
sVhardware
p73
V64-bit PCs
p74
ss(Vimage
p75
g21
tp76
(dp77
Vsuggests
p78
Vcrda
p79
sVinstall-stem
p80
Vvmlinuz
p81
sVbreaks
p82
Vxserver-xorg-input-vmmouse (<< 1:13.0.99)
p83
sVbootloaders
p84
(lp85
Vgrub-pc
p86
aVextlinux
p87
aVgrub-efi-ia32
p88
ass(Vbase
p89
g59
tp90
(dp91
Vfeaturesets
p92
(lp93
g55
ag60
asVkernel-arch
p94
Vx86
p95
ss(Vbase
p96
tp97
(dp98
Varches
p99
(lp100
Vamd64
p101
aVi386
p102
asVcompiler
p103
Vgcc-6
p104
sVfeaturesets
p105
(lp106
Vnone
p107
ass(Vimage
p108
tp109
(dp110
Vinitramfs-generators
p111
(lp112
Vinitramfs-tools
p113
aVinitramfs-fallback
p114
ass(Vdescription
p115
g59
g60
Vaptosid-amd64
p116
tp117
(dp118
Vparts
p119
(lp120
Vxen
p121
ass(Vbase
p122
g59
g60
tp123
(dp124
g46
(lp125
Vaptosid-amd64
p126
asg49
I01
ss(Vrelations
p127
tp128
(dp129
Vgcc-6
p130
Vgcc-6
p131
sVinitramfs-fallback
p132
Vlinux-initramfs-tool
p133
sVinitramfs-tools
p134
Vinitramfs-tools (>= 0.121~)
p135
ss(Vimage
p136
g59
tp137
(dp138
Vsuggests
p139
Vcrda
p140
sVinstall-stem
p141
Vvmlinuz
p142
sVbreaks
p143
Vxserver-xorg-input-vmmouse (<< 1:13.0.99)
p144
sVbootloaders
p145
(lp146
Vgrub-pc
p147
aVextlinux
p148
aVgrub-efi-amd64
p149
ass(Vbuild
p150
g59
tp151
(dp152
Vdebug-info
p153
I00
sVimage-file
p154
Varch/x86/boot/bzImage
p155
sstp156
Rp157
.