ccopy_reg
_reconstructor
p0
(cdebian_linux.config
ConfigCore
p1
c__builtin__
dict
p2
(dp3
(Vimage
p4
tp5
(dp6
Vinitramfs-generators
p7
(lp8
Vinitramfs-tools
p9
aVinitramfs-fallback
p10
ass(Vbase
p11
Vamd64
p12
Vnone
p13
tp14
(dp15
Vimplicit-flavour
p16
I01
sVflavours
p17
(lp18
Vaptosid-amd64
p19
ass(Vversion
p20
tp21
(dp22
Vabiname_base
p23
V4.7.0
p24
sVabiname
p25
V4.7.0-0.slh.3
p26
sVsource
p27
V4.7-6
p28
sVupstream
p29
V4.7
p30
ss(Vimage
p31
g12
tp32
(dp33
Vbreaks
p34
Vxserver-xorg-input-vmmouse (<< 1:13.0.99)
p35
sVinstall-stem
p36
Vvmlinuz
p37
sVsuggests
p38
Vcrda
p39
sVbootloaders
p40
(lp41
Vgrub-pc
p42
aVextlinux
p43
aVgrub-efi-amd64
p44
ass(Vdescription
p45
g12
g13
Vaptosid-amd64
p46
tp47
(dp48
Vparts
p49
(lp50
Vxen
p51
ass(Vdescription
p52
Vi386
p53
NVaptosid-686
p54
tp55
(dp56
Vhardware
p57
Vmodern PCs
p58
sVhardware-long
p59
VPCs with Intel Pentium Pro/II/III/4/4M/D/M, Xeon, Celeron, Core or Atom; AMD Geode LX/NX, Athlon (K7), Duron, Opteron, Sempron, Turion or Phenom; Transmeta Efficeon; VIA C3 "Nehemiah" or C7 processors
p60
ss(Vdescription
p61
g12
NVaptosid-amd64
p62
tp63
(dp64
Vhardware
p65
V64-bit PCs
p66
sVhardware-long
p67
VPCs with AMD64 or Intel 64 processors
p68
ss(Vrelations
p69
tp70
(dp71
Vinitramfs-tools
p72
Vinitramfs-tools (>= 0.121~)
p73
sVgcc-6
p74
Vgcc-6
p75
sVinitramfs-fallback
p76
Vlinux-initramfs-tool
p77
ss(Vimage
p78
g53
tp79
(dp80
Vbreaks
p81
Vxserver-xorg-input-vmmouse (<< 1:13.0.99)
p82
sVinstall-stem
p83
Vvmlinuz
p84
sVsuggests
p85
Vcrda
p86
sVbootloaders
p87
(lp88
Vgrub-pc
p89
aVextlinux
p90
aVgrub-efi-ia32
p91
ass(Vdescription
p92
tp93
(dp94
Vpart-long-up
p95
VThis kernel is not suitable for SMP (multi-processor,\u000amulti-core or hyper-threaded) systems.
p96
sVpart-long-xen
p97
VThis kernel also runs on a Xen hypervisor.\u000aIt supports both privileged (dom0) and unprivileged (domU) operation.
p98
ss(Vbase
p99
tp100
(dp101
Varches
p102
(lp103
Vamd64
p104
aVi386
p105
asVcompiler
p106
Vgcc-6
p107
sVfeaturesets
p108
(lp109
Vnone
p110
ass(Vbuild
p111
g12
tp112
(dp113
Vimage-file
p114
Varch/x86/boot/bzImage
p115
sVdebug-info
p116
I00
ss(Vbase
p117
g12
tp118
(dp119
Vfeaturesets
p120
(lp121
Vnone
p122
ag13
asVkernel-arch
p123
Vx86
p124
ss(Vbuild
p125
g53
tp126
(dp127
Vimage-file
p128
Varch/x86/boot/bzImage
p129
sVdebug-info
p130
I00
ss(Vbase
p131
g53
tp132
(dp133
Vfeaturesets
p134
(lp135
g122
aVnone
p136
asVkernel-arch
p137
Vx86
p138
ss(Vabi
p139
tp140
(dp141
Vabiname
p142
V0.slh.3
p143
ss(Vxen
p144
g12
g13
Vaptosid-amd64
p145
tp146
(dp147
Vflavours
p148
(lp149
Vaptosid-amd64
p150
ass(Vbase
p151
g53
g136
tp152
(dp153
g16
I01
sg17
(lp154
Vaptosid-686
p155
asstp156
Rp157
.