ccopy_reg
_reconstructor
p1
(cdebian_linux.config
ConfigCore
p2
c__builtin__
dict
p3
(dp4
(S'image'
S'amd64'
p5
tp6
(dp7
S'suggests'
p8
S'crda'
p9
sS'configs'
p10
(lp11
S'kernelarch-x86/config'
p12
asS'bootloaders'
p13
(lp14
S'grub-pc'
p15
aS'extlinux'
p16
aS'grub-efi-amd64'
p17
ass(S'build'
g5
NS'aptosid-amd64'
tp18
(dp19
S'debug-info'
p20
I00
ss(S'base'
p21
g5
S'none'
p22
tp23
(dp24
S'implicit-flavour'
p25
I01
sS'flavours'
p26
(lp27
S'aptosid-amd64'
p28
ass(S'base'
g5
tp29
(dp30
S'kernel-arch'
p31
S'x86'
p32
sS'featuresets'
p33
(lp34
g22
ass(S'image'
p35
tp36
(dp37
S'initramfs-generators'
p38
(lp39
S'initramfs-tools'
p40
aS'initramfs-fallback'
p41
asS'type'
p42
S'plain'
p43
ss(S'description'
g5
NS'aptosid-amd64'
tp44
(dp45
S'hardware'
p46
S'64-bit PCs'
p47
sS'hardware-long'
p48
S'PCs with AMD64 or Intel 64 processors'
p49
ss(S'version'
p50
tp51
(dp52
S'abiname'
p53
S'3.12-7.slh.1'
p54
sS'source'
p55
V3.12-23
p56
ss(S'image'
S'i386'
p57
NS'aptosid-686'
tp58
(dp59
S'configs'
p60
(lp61
S'kernelarch-x86/config-arch-32'
p62
asS'recommends'
p63
S'libc6-i686'
p64
ss(S'base'
p65
g57
tp66
(dp67
S'kernel-arch'
p68
S'x86'
p69
sg33
(lp70
g22
ass(S'description'
g57
NS'aptosid-686'
tp71
(dp72
S'hardware'
p73
S'modern PCs'
p74
sS'hardware-long'
p75
S'PCs with Intel Pentium Pro/II/III/4/4M/D/M, Xeon, Celeron, Core or Atom; AMD Geode LX/NX, Athlon (K7), Duron, Opteron, Sempron, Turion or Phenom; Transmeta Efficeon; VIA C3 "Nehemiah" or C7 processors'
p76
ss(S'image'
g5
NS'aptosid-amd64'
tp77
(dp78
S'configs'
p79
(lp80
S'kernelarch-x86/config-arch-64'
p81
ass(S'abi'
p82
tp83
(dp84
S'abiname'
p85
S'7.slh.1'
p86
ss(S'image'
p87
g57
tp88
(dp89
S'suggests'
p90
S'crda'
p91
sS'configs'
p92
(lp93
S'kernelarch-x86/config'
p94
asS'bootloaders'
p95
(lp96
S'grub-pc'
p97
aS'extlinux'
p98
ass(g21
g57
g22
tp99
(dp100
g25
I01
sg26
(lp101
S'aptosid-686'
p102
ass(S'build'
g57
NS'aptosid-686'
tp103
(dp104
S'debug-info'
p105
I00
ss(S'base'
p106
tp107
(dp108
S'arches'
p109
(lp110
S'amd64'
p111
aS'i386'
p112
asS'featuresets'
p113
(lp114
S'none'
p115
asS'compiler'
p116
S'gcc-4.8'
p117
ss(S'relations'
p118
tp119
(dp120
S'initramfs-fallback'
p121
S'linux-initramfs-tool'
p122
sS'lilo'
p123
S'lilo (>= 22.8-8.2~)'
p124
sS'gcc-4.8'
p125
S'gcc-4.8'
p126
sS'initramfs-tools'
p127
S'initramfs-tools (>= 0.110~)'
p128
sS'elilo'
p129
S'elilo (>= 3.12-3.1~)'
p130
sstRp131
.