ccopy_reg
_reconstructor
p0
(cdebian_linux.config
ConfigCore
p1
c__builtin__
dict
p2
(dp3
(Vimage
p4
Vi386
p5
NVaptosid-686
p6
tp7
(dp8
Vconfigs
p9
(lp10
Vkernelarch-x86/config-arch-32
p11
asVrecommends
p12
Vlibc6-i686
p13
ss(Vimage
p14
Vamd64
p15
NVaptosid-amd64
p16
tp17
(dp18
Vconfigs
p19
(lp20
Vkernelarch-x86/config-arch-64
p21
ass(Vimage
p22
g15
tp23
(dp24
Vconfigs
p25
(lp26
sVbootloaders
p27
(lp28
Vgrub-pc
p29
aVextlinux
p30
aVgrub-efi-amd64
p31
asVinstall-stem
p32
Vvmlinuz
p33
sVsuggests
p34
Vcrda
p35
ss(Vbase
p36
g15
Vnone
p37
tp38
(dp39
Vflavours
p40
(lp41
Vaptosid-amd64
p42
asVimplicit-flavour
p43
I01
ss(Vdescription
p44
tp45
(dp46
Vpart-long-up
p47
VThis kernel is not suitable for SMP (multi-processor,\u000amulti-core or hyper-threaded) systems.
p48
sVpart-long-xen
p49
VThis kernel also runs on a Xen hypervisor.\u000aIt supports both privileged (dom0) and unprivileged (domU) operation.
p50
ss(Vdescription
p51
g15
NVaptosid-amd64
p52
tp53
(dp54
Vhardware-long
p55
VPCs with AMD64 or Intel 64 processors
p56
sVhardware
p57
V64-bit PCs
p58
ss(Vrelations
p59
tp60
(dp61
Vinitramfs-tools
p62
Vinitramfs-tools (>= 0.118+c0.aptosid.1~)
p63
sVinitramfs-fallback
p64
Vlinux-initramfs-tool
p65
sVgcc-5
p66
Vgcc-5
p67
ss(Vimage
p68
tp69
(dp70
Vtype
p71
Vplain
p72
sVinitramfs-generators
p73
(lp74
Vinitramfs-tools
p75
aVinitramfs-fallback
p76
ass(Vbase
p77
g15
tp78
(dp79
Vkernel-arch
p80
Vx86
p81
sVfeaturesets
p82
(lp83
Vnone
p84
ag37
ass(Vbuild
p85
g5
tp86
(dp87
Vimage-file
p88
Varch/x86/boot/bzImage
p89
sVdebug-info
p90
I00
ss(Vdescription
p91
g15
g37
Vaptosid-amd64
p92
tp93
(dp94
Vparts
p95
(lp96
Vxen
p97
ass(Vxen
p98
g15
g37
Vaptosid-amd64
p99
tp100
(dp101
Vflavours
p102
(lp103
Vaptosid-amd64
p104
ass(Vbase
p105
tp106
(dp107
Varches
p108
(lp109
Vamd64
p110
aVi386
p111
asVcompiler
p112
Vgcc-5
p113
sVfeaturesets
p114
(lp115
Vnone
p116
ass(Vabi
p117
tp118
(dp119
Vabiname
p120
V3.slh.2
p121
ss(Vimage
p122
g5
tp123
(dp124
Vconfigs
p125
(lp126
sVbootloaders
p127
(lp128
Vgrub-pc
p129
aVextlinux
p130
aVgrub-efi-ia32
p131
asVinstall-stem
p132
Vvmlinuz
p133
sVsuggests
p134
Vcrda
p135
ss(Vbase
p136
g5
Vnone
p137
tp138
(dp139
g40
(lp140
Vaptosid-686
p141
asg43
I01
ss(Vversion
p142
tp143
(dp144
Vsource
p145
V4.3-12
p146
sVupstream
p147
V4.3
p148
sVabiname_base
p149
V4.3.0
p150
sVabiname
p151
V4.3.0-3.slh.2
p152
ss(Vbase
p153
g5
tp154
(dp155
Vkernel-arch
p156
Vx86
p157
sVfeaturesets
p158
(lp159
g84
ag137
ass(Vdescription
p160
g5
NVaptosid-686
p161
tp162
(dp163
Vhardware-long
p164
VPCs with Intel Pentium Pro/II/III/4/4M/D/M, Xeon, Celeron, Core or Atom; AMD Geode LX/NX, Athlon (K7), Duron, Opteron, Sempron, Turion or Phenom; Transmeta Efficeon; VIA C3 "Nehemiah" or C7 processors
p165
sVhardware
p166
Vmodern PCs
p167
ss(Vbuild
p168
g15
tp169
(dp170
Vimage-file
p171
Varch/x86/boot/bzImage
p172
sVdebug-info
p173
I00
sstp174
Rp175
.