ccopy_reg
_reconstructor
p0
(cdebian_linux.config
ConfigCore
p1
c__builtin__
dict
p2
(dp3
(Vdescription
p4
Vamd64
p5
NVaptosid-amd64
p6
tp7
(dp8
Vhardware
p9
V64-bit PCs
p10
sVhardware-long
p11
VPCs with AMD64 or Intel 64 processors
p12
ss(Vbuild
p13
Vi386
p14
tp15
(dp16
Vimage-file
p17
Varch/x86/boot/bzImage
p18
sVdebug-info
p19
I00
ss(Vbase
p20
tp21
(dp22
Vfeaturesets
p23
(lp24
Vnone
p25
asVcompiler
p26
Vgcc-6
p27
sVarches
p28
(lp29
Vamd64
p30
aVi386
p31
ass(Vbase
p32
g14
Vnone
p33
tp34
(dp35
Vimplicit-flavour
p36
I01
sVflavours
p37
(lp38
Vaptosid-686
p39
ass(Vbuild
p40
g5
tp41
(dp42
Vimage-file
p43
Varch/x86/boot/bzImage
p44
sVdebug-info
p45
I00
ss(Vrelations
p46
tp47
(dp48
Vinitramfs-tools
p49
Vinitramfs-tools (>= 0.121~)
p50
sVinitramfs-fallback
p51
Vlinux-initramfs-tool
p52
sVgcc-6
p53
Vgcc-6
p54
ss(Vdescription
p55
g14
NVaptosid-686
p56
tp57
(dp58
Vhardware
p59
Vmodern PCs
p60
sVhardware-long
p61
VPCs with Intel Pentium Pro/II/III/4/4M/D/M, Xeon, Celeron, Core or Atom; AMD Geode LX/NX, Athlon (K7), Duron, Opteron, Sempron, Turion or Phenom; Transmeta Efficeon; VIA C3 "Nehemiah" or C7 processors
p62
ss(Vversion
p63
tp64
(dp65
Vabiname
p66
V4.11.0-2.slh.1
p67
sVabiname_base
p68
V4.11.0
p69
sVupstream
p70
V4.11
p71
sVsource
p72
V4.11-7
p73
ss(Vabi
p74
tp75
(dp76
Vabiname
p77
V2.slh.1
p78
ss(Vbase
p79
g14
tp80
(dp81
Vkernel-arch
p82
Vx86
p83
sVfeaturesets
p84
(lp85
Vnone
p86
ag33
ass(Vbase
p87
g5
Vnone
p88
tp89
(dp90
g36
I01
sg37
(lp91
Vaptosid-amd64
p92
ass(Vdescription
p93
tp94
(dp95
Vpart-long-xen
p96
VThis kernel also runs on a Xen hypervisor.\u000aIt supports both privileged (dom0) and unprivileged (domU) operation.
p97
sVpart-long-up
p98
VThis kernel is not suitable for SMP (multi-processor,\u000amulti-core or hyper-threaded) systems.
p99
ss(Vbase
p100
g5
tp101
(dp102
Vkernel-arch
p103
Vx86
p104
sVfeaturesets
p105
(lp106
g86
ag88
ass(Vimage
p107
tp108
(dp109
Vinitramfs-generators
p110
(lp111
Vinitramfs-tools
p112
aVinitramfs-fallback
p113
ass(Vdescription
p114
g5
g88
Vaptosid-amd64
p115
tp116
(dp117
Vparts
p118
(lp119
Vxen
p120
ass(Vimage
p121
g5
tp122
(dp123
Vsuggests
p124
Vcrda
p125
sVbreaks
p126
Vxserver-xorg-input-vmmouse (<< 1:13.0.99)
p127
sVbootloaders
p128
(lp129
Vgrub-pc
p130
aVextlinux
p131
aVgrub-efi-amd64
p132
asVinstall-stem
p133
Vvmlinuz
p134
ss(Vimage
p135
g14
tp136
(dp137
Vsuggests
p138
Vcrda
p139
sVbreaks
p140
Vxserver-xorg-input-vmmouse (<< 1:13.0.99)
p141
sVbootloaders
p142
(lp143
Vgrub-pc
p144
aVextlinux
p145
aVgrub-efi-ia32
p146
asVinstall-stem
p147
Vvmlinuz
p148
sstp149
Rp150
.