ccopy_reg
_reconstructor
p0
(cdebian_linux.config
ConfigCore
p1
c__builtin__
dict
p2
(dp3
(Vabi
p4
tp5
(dp6
Vabiname
p7
V8.slh.1
p8
ss(Vbase
p9
Vamd64
p10
Vnone
p11
tp12
(dp13
Vimplicit-flavour
p14
I01
sVflavours
p15
(lp16
Vaptosid-amd64
p17
ass(Vrelations
p18
tp19
(dp20
Vinitramfs-fallback
p21
Vlinux-initramfs-tool
p22
sVgcc-6
p23
Vgcc-6
p24
sVinitramfs-tools
p25
Vinitramfs-tools (>= 0.121~)
p26
ss(Vbase
p27
Vi386
p28
tp29
(dp30
Vkernel-arch
p31
Vx86
p32
sVfeaturesets
p33
(lp34
Vnone
p35
aVnone
p36
ass(Vdescription
p37
g10
NVaptosid-amd64
p38
tp39
(dp40
Vhardware-long
p41
VPCs with AMD64 or Intel 64 processors
p42
sVhardware
p43
V64-bit PCs
p44
ss(Vbase
p45
g28
g36
tp46
(dp47
g14
I01
sg15
(lp48
Vaptosid-686
p49
ass(Vxen
p50
g10
g11
Vaptosid-amd64
p51
tp52
(dp53
Vflavours
p54
(lp55
Vaptosid-amd64
p56
ass(Vdescription
p57
g28
NVaptosid-686
p58
tp59
(dp60
Vhardware-long
p61
VPCs with Intel Pentium Pro/II/III/4/4M/D/M, Xeon, Celeron, Core or Atom; AMD Geode LX/NX, Athlon (K7), Duron, Opteron, Sempron, Turion or Phenom; Transmeta Efficeon; VIA C3 "Nehemiah" or C7 processors
p62
sVhardware
p63
Vmodern PCs
p64
ss(Vimage
p65
g10
tp66
(dp67
Vbootloaders
p68
(lp69
Vgrub-pc
p70
aVextlinux
p71
aVgrub-efi-amd64
p72
asVbreaks
p73
Vxserver-xorg-input-vmmouse (<< 1:13.0.99)
p74
sVsuggests
p75
Vcrda
p76
sVinstall-stem
p77
Vvmlinuz
p78
ss(Vdescription
p79
tp80
(dp81
Vpart-long-up
p82
VThis kernel is not suitable for SMP (multi-processor,\u000amulti-core or hyper-threaded) systems.
p83
sVpart-long-xen
p84
VThis kernel also runs on a Xen hypervisor.\u000aIt supports both privileged (dom0) and unprivileged (domU) operation.
p85
ss(Vbase
p86
g10
tp87
(dp88
Vkernel-arch
p89
Vx86
p90
sVfeaturesets
p91
(lp92
g35
ag11
ass(Vbase
p93
tp94
(dp95
Varches
p96
(lp97
Vamd64
p98
aVi386
p99
asVcompiler
p100
Vgcc-6
p101
sVfeaturesets
p102
(lp103
Vnone
p104
ass(Vimage
p105
g28
tp106
(dp107
Vbootloaders
p108
(lp109
Vgrub-pc
p110
aVextlinux
p111
aVgrub-efi-ia32
p112
asVbreaks
p113
Vxserver-xorg-input-vmmouse (<< 1:13.0.99)
p114
sVsuggests
p115
Vcrda
p116
sVinstall-stem
p117
Vvmlinuz
p118
ss(Vdescription
p119
g10
g11
Vaptosid-amd64
p120
tp121
(dp122
Vparts
p123
(lp124
Vxen
p125
ass(Vimage
p126
tp127
(dp128
Vinitramfs-generators
p129
(lp130
Vinitramfs-tools
p131
aVinitramfs-fallback
p132
ass(Vbuild
p133
g10
tp134
(dp135
Vdebug-info
p136
I00
sVimage-file
p137
Varch/x86/boot/bzImage
p138
ss(Vbuild
p139
g28
tp140
(dp141
Vdebug-info
p142
I00
sVimage-file
p143
Varch/x86/boot/bzImage
p144
ss(Vversion
p145
tp146
(dp147
Vabiname_base
p148
V4.8.0
p149
sVabiname
p150
V4.8.0-8.slh.1
p151
sVupstream
p152
V4.8
p153
sVsource
p154
V4.8-12
p155
sstp156
Rp157
.