ccopy_reg
_reconstructor
p0
(cdebian_linux.config
ConfigCore
p1
c__builtin__
dict
p2
(dp3
(Vbase
p4
Vi386
p5
Vnone
p6
tp7
(dp8
Vimplicit-flavour
p9
I01
sVflavours
p10
(lp11
Vaptosid-686
p12
ass(Vdescription
p13
tp14
(dp15
Vpart-long-up
p16
VThis kernel is not suitable for SMP (multi-processor,\u000amulti-core or hyper-threaded) systems.
p17
sVpart-long-xen
p18
VThis kernel also runs on a Xen hypervisor.\u000aIt supports both privileged (dom0) and unprivileged (domU) operation.
p19
ss(Vversion
p20
tp21
(dp22
Vabiname_base
p23
V4.11.0
p24
sVabiname
p25
V4.11.0-5.slh.1
p26
sVsource
p27
V4.11-12
p28
sVupstream
p29
V4.11
p30
ss(Vrelations
p31
tp32
(dp33
Vgcc-6
p34
Vgcc-6
p35
sVinitramfs-tools
p36
Vinitramfs-tools (>= 0.121~)
p37
sVinitramfs-fallback
p38
Vlinux-initramfs-tool
p39
ss(Vdescription
p40
Vamd64
p41
Vnone
p42
Vaptosid-amd64
p43
tp44
(dp45
Vparts
p46
(lp47
Vxen
p48
ass(Vimage
p49
tp50
(dp51
Vinitramfs-generators
p52
(lp53
Vinitramfs-tools
p54
aVinitramfs-fallback
p55
ass(Vbase
p56
g41
tp57
(dp58
Vfeaturesets
p59
(lp60
Vnone
p61
ag42
asVkernel-arch
p62
Vx86
p63
ss(Vdescription
p64
g41
NVaptosid-amd64
p65
tp66
(dp67
Vhardware
p68
V64-bit PCs
p69
sVhardware-long
p70
VPCs with AMD64 or Intel 64 processors
p71
ss(Vimage
p72
g41
tp73
(dp74
Vsuggests
p75
Vcrda
p76
sVinstall-stem
p77
Vvmlinuz
p78
sVbreaks
p79
Vxserver-xorg-input-vmmouse (<< 1:13.0.99)
p80
sVbootloaders
p81
(lp82
Vgrub-pc
p83
aVextlinux
p84
aVgrub-efi-amd64
p85
ass(Vbase
p86
g41
g42
tp87
(dp88
g9
I01
sg10
(lp89
Vaptosid-amd64
p90
ass(Vbuild
p91
g5
tp92
(dp93
Vimage-file
p94
Varch/x86/boot/bzImage
p95
sVdebug-info
p96
I00
ss(Vabi
p97
tp98
(dp99
Vabiname
p100
V5.slh.1
p101
ss(Vimage
p102
g5
tp103
(dp104
Vsuggests
p105
Vcrda
p106
sVinstall-stem
p107
Vvmlinuz
p108
sVbreaks
p109
Vxserver-xorg-input-vmmouse (<< 1:13.0.99)
p110
sVbootloaders
p111
(lp112
Vgrub-pc
p113
aVextlinux
p114
aVgrub-efi-ia32
p115
ass(Vbase
p116
g5
tp117
(dp118
Vfeaturesets
p119
(lp120
g61
ag6
asVkernel-arch
p121
Vx86
p122
ss(Vdescription
p123
g5
NVaptosid-686
p124
tp125
(dp126
Vhardware
p127
Vmodern PCs
p128
sVhardware-long
p129
VPCs with Intel Pentium Pro/II/III/4/4M/D/M, Xeon, Celeron, Core or Atom; AMD Geode LX/NX, Athlon (K7), Duron, Opteron, Sempron, Turion or Phenom; Transmeta Efficeon; VIA C3 "Nehemiah" or C7 processors
p130
ss(Vbase
p131
tp132
(dp133
Vcompiler
p134
Vgcc-6
p135
sVfeaturesets
p136
(lp137
Vnone
p138
asVarches
p139
(lp140
Vamd64
p141
aVi386
p142
ass(Vbuild
p143
g41
tp144
(dp145
Vimage-file
p146
Varch/x86/boot/bzImage
p147
sVdebug-info
p148
I00
sstp149
Rp150
.